file name:elf32-tradlittlemips

F28P6x_driver_core0.out:     file format elf32-tradlittlemips


Disassembly of section .text.qxbootdebug:

00280000 <.L0 >:
  280000:	94 30 10 01 	movigh gr3 100 <cla_interrupt_defaulthandler>
  280004:	94 31 20 05 	movigl gr3 1200 <.L0 +0x1c>
  280008:	a8 40 c0 02 	load32 gr4 gr3 0 <_cla_int_entry_group0_0>
  28000c:	94 40 00 03 	bst gr4 0 <_cla_int_entry_group0_0>
  280010:	ec 40 c0 02 	store32 gr4 gr3 0 <_cla_int_entry_group0_0>
  280014:	94 20 10 71 	movigh gr2 107 <cla_interrupt_defaulthandler+0x7>
  280018:	94 22 00 05 	movigl gr2 2000 <.L0 +0x24>
  28001c:	94 40 00 01 	movigh gr4 0 <_cla_int_entry_group0_0>
  280020:	94 40 00 55 	movigl gr4 5 <_core0_exp_start>
  280024:	ec 40 86 a2 	store32 gr4 gr2 35 <_cla_int_entry_group0_3+0x5>
  280028:	94 40 00 05 	movigl gr4 0 <_cla_int_entry_group0_0>
  28002c:	ec 40 86 c2 	store32 gr4 gr2 36 <_cla_int_entry_group0_3+0x6>
  280030:	95 e0 00 21 	movigh gr30 2 <_cla_int_entry_group0_0+0x2>
  280034:	95 e7 c0 05 	movigl gr30 7c00 <$line_table_start0+0xed>
  280038:	82 d5 7d 8d 	call 2afec <device_copytrim>
  28003c:	80 00 00 00 	nop
  280040:	80 00 00 00 	nop
  280044:	94 20 10 71 	movigh gr2 107 <cla_interrupt_defaulthandler+0x7>
  280048:	94 20 00 05 	movigl gr2 0 <_cla_int_entry_group0_0>
  28004c:	94 30 00 01 	movigh gr3 0 <_cla_int_entry_group0_0>
  280050:	94 30 00 35 	movigl gr3 3 <_cla_int_entry_group0_0+0x3>
  280054:	ec 30 88 c2 	store32 gr3 gr2 46 <.L0 +0x5>
  280058:	94 30 0f 01 	movigh gr3 f0 <_cla_int_entry_group0_15>
  28005c:	94 30 00 05 	movigl gr3 0 <_cla_int_entry_group0_0>
  280060:	ec 30 89 42 	store32 gr3 gr2 4a <.L0 +0x9>
  280064:	94 30 00 f1 	movigh gr3 f <_core0_exp_start+0xa>
  280068:	94 3f ff f5 	movigl gr3 ffffffff <Flash0CtrlRegs+0xfef5ffff>
  28006c:	ec 30 89 02 	store32 gr3 gr2 48 <.L0 +0x7>
  280070:	ec 30 89 22 	store32 gr3 gr2 49 <.L0 +0x8>
  280074:	94 20 10 71 	movigh gr2 107 <cla_interrupt_defaulthandler+0x7>
  280078:	94 22 0d c5 	movigl gr2 20dc <.L0 +0x1c>
  28007c:	94 30 00 19 	moviglz gr3 1 <_cla_int_entry_group0_0+0x1>
  280080:	ec 30 80 02 	store32 gr3 gr2 0 <_cla_int_entry_group0_0>
  280084:	94 22 09 c5 	movigl gr2 209c <.L0 +0x1d>
  280088:	ec 30 80 02 	store32 gr3 gr2 0 <_cla_int_entry_group0_0>
  28008c:	82 d4 1b 81 	jmp 28400 <_dsp_start>
  280090:	80 00 00 00 	nop
  280094:	80 00 00 00 	nop
  280098:	80 00 00 00 	nop
  28009c:	80 00 00 00 	nop

Disassembly of section .text:

00028000 <_int_entry_group0_0>:
   28000:	94 00 00 21 	movigh gr0 2 <_cla_int_entry_group0_0+0x2>
   28004:	94 07 c0 05 	movigl gr0 7c00 <$line_table_start0+0xed>
   28008:	a8 00 00 02 	load32 gr0 gr0 0 <_cla_int_entry_group0_0>
   2800c:	80 00 00 03 	jmpr gr0

00028010 <_int_entry_group0_1>:
   28010:	94 00 00 21 	movigh gr0 2 <_cla_int_entry_group0_0+0x2>
   28014:	94 07 c0 05 	movigl gr0 7c00 <$line_table_start0+0xed>
   28018:	a8 00 00 22 	load32 gr0 gr0 1 <_cla_int_entry_group0_0+0x1>
   2801c:	80 00 00 03 	jmpr gr0

00028020 <_int_entry_group0_2>:
   28020:	94 00 00 21 	movigh gr0 2 <_cla_int_entry_group0_0+0x2>
   28024:	94 07 c0 05 	movigl gr0 7c00 <$line_table_start0+0xed>
   28028:	a8 00 00 42 	load32 gr0 gr0 2 <_cla_int_entry_group0_0+0x2>
   2802c:	80 00 00 03 	jmpr gr0

00028030 <_int_entry_group0_3>:
   28030:	94 00 00 21 	movigh gr0 2 <_cla_int_entry_group0_0+0x2>
   28034:	94 07 c0 05 	movigl gr0 7c00 <$line_table_start0+0xed>
   28038:	a8 00 00 62 	load32 gr0 gr0 3 <_cla_int_entry_group0_0+0x3>
   2803c:	80 00 00 03 	jmpr gr0

00028040 <_int_entry_group0_4>:
   28040:	94 00 00 21 	movigh gr0 2 <_cla_int_entry_group0_0+0x2>
   28044:	94 07 c0 05 	movigl gr0 7c00 <$line_table_start0+0xed>
   28048:	a8 00 00 82 	load32 gr0 gr0 4 <_cla_int_entry_group0_0+0x4>
   2804c:	80 00 00 03 	jmpr gr0

00028050 <_int_entry_group0_5>:
   28050:	94 00 00 21 	movigh gr0 2 <_cla_int_entry_group0_0+0x2>
   28054:	94 07 c0 05 	movigl gr0 7c00 <$line_table_start0+0xed>
   28058:	a8 00 00 a2 	load32 gr0 gr0 5 <_core0_exp_start>
   2805c:	80 00 00 03 	jmpr gr0

00028060 <_int_entry_group0_6>:
   28060:	94 00 00 21 	movigh gr0 2 <_cla_int_entry_group0_0+0x2>
   28064:	94 07 c0 05 	movigl gr0 7c00 <$line_table_start0+0xed>
   28068:	a8 00 00 c2 	load32 gr0 gr0 6 <_core0_exp_start+0x1>
   2806c:	80 00 00 03 	jmpr gr0

00028070 <_int_entry_group0_7>:
   28070:	94 00 00 21 	movigh gr0 2 <_cla_int_entry_group0_0+0x2>
   28074:	94 07 c0 05 	movigl gr0 7c00 <$line_table_start0+0xed>
   28078:	a8 00 00 e2 	load32 gr0 gr0 7 <_core0_exp_start+0x2>
   2807c:	80 00 00 03 	jmpr gr0

00028080 <_int_entry_group0_8>:
   28080:	94 00 00 21 	movigh gr0 2 <_cla_int_entry_group0_0+0x2>
   28084:	94 07 c0 05 	movigl gr0 7c00 <$line_table_start0+0xed>
   28088:	a8 00 01 02 	load32 gr0 gr0 8 <_core0_exp_start+0x3>
   2808c:	80 00 00 03 	jmpr gr0

00028090 <_int_entry_group0_9>:
   28090:	94 00 00 21 	movigh gr0 2 <_cla_int_entry_group0_0+0x2>
   28094:	94 07 c0 05 	movigl gr0 7c00 <$line_table_start0+0xed>
   28098:	a8 00 01 22 	load32 gr0 gr0 9 <_core0_exp_start+0x4>
   2809c:	80 00 00 03 	jmpr gr0

000280a0 <_int_entry_group0_10>:
   280a0:	94 00 00 21 	movigh gr0 2 <_cla_int_entry_group0_0+0x2>
   280a4:	94 07 c0 05 	movigl gr0 7c00 <$line_table_start0+0xed>
   280a8:	a8 00 01 42 	load32 gr0 gr0 a <_core0_exp_start+0x5>
   280ac:	80 00 00 03 	jmpr gr0

000280b0 <_int_entry_group0_11>:
   280b0:	94 00 00 21 	movigh gr0 2 <_cla_int_entry_group0_0+0x2>
   280b4:	94 07 c0 05 	movigl gr0 7c00 <$line_table_start0+0xed>
   280b8:	a8 00 01 62 	load32 gr0 gr0 b <_core0_exp_start+0x6>
   280bc:	80 00 00 03 	jmpr gr0

000280c0 <_int_entry_group0_12>:
   280c0:	94 00 00 21 	movigh gr0 2 <_cla_int_entry_group0_0+0x2>
   280c4:	94 07 c0 05 	movigl gr0 7c00 <$line_table_start0+0xed>
   280c8:	a8 00 01 82 	load32 gr0 gr0 c <_core0_exp_start+0x7>
   280cc:	80 00 00 03 	jmpr gr0

000280d0 <_int_entry_group0_13>:
   280d0:	94 00 00 21 	movigh gr0 2 <_cla_int_entry_group0_0+0x2>
   280d4:	94 07 c0 05 	movigl gr0 7c00 <$line_table_start0+0xed>
   280d8:	a8 00 01 a2 	load32 gr0 gr0 d <_core0_exp_start+0x8>
   280dc:	80 00 00 03 	jmpr gr0

000280e0 <_int_entry_group0_14>:
   280e0:	94 00 00 21 	movigh gr0 2 <_cla_int_entry_group0_0+0x2>
   280e4:	94 07 c0 05 	movigl gr0 7c00 <$line_table_start0+0xed>
   280e8:	a8 00 01 c2 	load32 gr0 gr0 e <_core0_exp_start+0x9>
   280ec:	80 00 00 03 	jmpr gr0

000280f0 <_int_entry_group0_15>:
   280f0:	94 00 00 21 	movigh gr0 2 <_cla_int_entry_group0_0+0x2>
   280f4:	94 07 c0 05 	movigl gr0 7c00 <$line_table_start0+0xed>
   280f8:	a8 00 01 e2 	load32 gr0 gr0 f <_core0_exp_start+0xa>
   280fc:	80 00 00 03 	jmpr gr0

00028100 <_int_entry_group1_0>:
   28100:	94 00 00 21 	movigh gr0 2 <_cla_int_entry_group0_0+0x2>
   28104:	94 07 c0 05 	movigl gr0 7c00 <$line_table_start0+0xed>
   28108:	a8 00 02 02 	load32 gr0 gr0 10 <_cla_int_entry_group0_1>
   2810c:	80 00 00 03 	jmpr gr0

00028110 <_int_entry_group1_1>:
   28110:	94 00 00 21 	movigh gr0 2 <_cla_int_entry_group0_0+0x2>
   28114:	94 07 c0 05 	movigl gr0 7c00 <$line_table_start0+0xed>
   28118:	a8 00 02 22 	load32 gr0 gr0 11 <_cla_int_entry_group0_1+0x1>
   2811c:	80 00 00 03 	jmpr gr0

00028120 <_int_entry_group1_2>:
   28120:	94 00 00 21 	movigh gr0 2 <_cla_int_entry_group0_0+0x2>
   28124:	94 07 c0 05 	movigl gr0 7c00 <$line_table_start0+0xed>
   28128:	a8 00 02 42 	load32 gr0 gr0 12 <_cla_int_entry_group0_1+0x2>
   2812c:	80 00 00 03 	jmpr gr0

00028130 <_int_entry_group1_3>:
   28130:	94 00 00 21 	movigh gr0 2 <_cla_int_entry_group0_0+0x2>
   28134:	94 07 c0 05 	movigl gr0 7c00 <$line_table_start0+0xed>
   28138:	a8 00 02 62 	load32 gr0 gr0 13 <_cla_int_entry_group0_1+0x3>
   2813c:	80 00 00 03 	jmpr gr0

00028140 <_int_entry_group1_4>:
   28140:	94 00 00 21 	movigh gr0 2 <_cla_int_entry_group0_0+0x2>
   28144:	94 07 c0 05 	movigl gr0 7c00 <$line_table_start0+0xed>
   28148:	a8 00 02 82 	load32 gr0 gr0 14 <_cla_int_entry_group0_1+0x4>
   2814c:	80 00 00 03 	jmpr gr0

00028150 <_int_entry_group1_5>:
   28150:	94 00 00 21 	movigh gr0 2 <_cla_int_entry_group0_0+0x2>
   28154:	94 07 c0 05 	movigl gr0 7c00 <$line_table_start0+0xed>
   28158:	a8 00 02 a2 	load32 gr0 gr0 15 <_cla_int_entry_group0_1+0x5>
   2815c:	80 00 00 03 	jmpr gr0

00028160 <_int_entry_group1_6>:
   28160:	94 00 00 21 	movigh gr0 2 <_cla_int_entry_group0_0+0x2>
   28164:	94 07 c0 05 	movigl gr0 7c00 <$line_table_start0+0xed>
   28168:	a8 00 02 c2 	load32 gr0 gr0 16 <_cla_int_entry_group0_1+0x6>
   2816c:	80 00 00 03 	jmpr gr0

00028170 <_int_entry_group1_7>:
   28170:	94 00 00 21 	movigh gr0 2 <_cla_int_entry_group0_0+0x2>
   28174:	94 07 c0 05 	movigl gr0 7c00 <$line_table_start0+0xed>
   28178:	a8 00 02 e2 	load32 gr0 gr0 17 <_core1_exp_start>
   2817c:	80 00 00 03 	jmpr gr0

00028180 <_int_entry_group1_8>:
   28180:	94 00 00 21 	movigh gr0 2 <_cla_int_entry_group0_0+0x2>
   28184:	94 07 c0 05 	movigl gr0 7c00 <$line_table_start0+0xed>
   28188:	a8 00 03 02 	load32 gr0 gr0 18 <_core1_exp_start+0x1>
   2818c:	80 00 00 03 	jmpr gr0

00028190 <_int_entry_group1_9>:
   28190:	94 00 00 21 	movigh gr0 2 <_cla_int_entry_group0_0+0x2>
   28194:	94 07 c0 05 	movigl gr0 7c00 <$line_table_start0+0xed>
   28198:	a8 00 03 22 	load32 gr0 gr0 19 <_core1_exp_start+0x2>
   2819c:	80 00 00 03 	jmpr gr0

000281a0 <_int_entry_group1_10>:
   281a0:	94 00 00 21 	movigh gr0 2 <_cla_int_entry_group0_0+0x2>
   281a4:	94 07 c0 05 	movigl gr0 7c00 <$line_table_start0+0xed>
   281a8:	a8 00 03 42 	load32 gr0 gr0 1a <_core1_exp_start+0x3>
   281ac:	80 00 00 03 	jmpr gr0

000281b0 <_int_entry_group1_11>:
   281b0:	94 00 00 21 	movigh gr0 2 <_cla_int_entry_group0_0+0x2>
   281b4:	94 07 c0 05 	movigl gr0 7c00 <$line_table_start0+0xed>
   281b8:	a8 00 03 62 	load32 gr0 gr0 1b <_core1_exp_start+0x4>
   281bc:	80 00 00 03 	jmpr gr0

000281c0 <_int_entry_group1_12>:
   281c0:	94 00 00 21 	movigh gr0 2 <_cla_int_entry_group0_0+0x2>
   281c4:	94 07 c0 05 	movigl gr0 7c00 <$line_table_start0+0xed>
   281c8:	a8 00 03 82 	load32 gr0 gr0 1c <_core1_exp_start+0x5>
   281cc:	80 00 00 03 	jmpr gr0

000281d0 <_int_entry_group1_13>:
   281d0:	94 00 00 21 	movigh gr0 2 <_cla_int_entry_group0_0+0x2>
   281d4:	94 07 c0 05 	movigl gr0 7c00 <$line_table_start0+0xed>
   281d8:	a8 00 03 a2 	load32 gr0 gr0 1d <_core1_exp_start+0x6>
   281dc:	80 00 00 03 	jmpr gr0

000281e0 <_int_entry_group1_14>:
   281e0:	94 00 00 21 	movigh gr0 2 <_cla_int_entry_group0_0+0x2>
   281e4:	94 07 c0 05 	movigl gr0 7c00 <$line_table_start0+0xed>
   281e8:	a8 00 03 c2 	load32 gr0 gr0 1e <_core1_exp_start+0x7>
   281ec:	80 00 00 03 	jmpr gr0

000281f0 <_int_entry_group1_15>:
   281f0:	94 00 00 21 	movigh gr0 2 <_cla_int_entry_group0_0+0x2>
   281f4:	94 07 c0 05 	movigl gr0 7c00 <$line_table_start0+0xed>
   281f8:	a8 00 03 e2 	load32 gr0 gr0 1f <_core1_exp_start+0x8>
   281fc:	80 00 00 03 	jmpr gr0

00028200 <_int_entry_group2_0>:
   28200:	94 00 00 21 	movigh gr0 2 <_cla_int_entry_group0_0+0x2>
   28204:	94 07 c0 05 	movigl gr0 7c00 <$line_table_start0+0xed>
   28208:	a8 00 04 02 	load32 gr0 gr0 20 <_cla_int_entry_group0_2>
   2820c:	80 00 00 03 	jmpr gr0

00028210 <_int_entry_group2_1>:
   28210:	94 00 00 21 	movigh gr0 2 <_cla_int_entry_group0_0+0x2>
   28214:	94 07 c0 05 	movigl gr0 7c00 <$line_table_start0+0xed>
   28218:	a8 00 04 22 	load32 gr0 gr0 21 <_cla_int_entry_group0_2+0x1>
   2821c:	80 00 00 03 	jmpr gr0

00028220 <_int_entry_group2_2>:
   28220:	94 00 00 21 	movigh gr0 2 <_cla_int_entry_group0_0+0x2>
   28224:	94 07 c0 05 	movigl gr0 7c00 <$line_table_start0+0xed>
   28228:	a8 00 04 42 	load32 gr0 gr0 22 <_cla_int_entry_group0_2+0x2>
   2822c:	80 00 00 03 	jmpr gr0

00028230 <_int_entry_group2_3>:
   28230:	94 00 00 21 	movigh gr0 2 <_cla_int_entry_group0_0+0x2>
   28234:	94 07 c0 05 	movigl gr0 7c00 <$line_table_start0+0xed>
   28238:	a8 00 04 62 	load32 gr0 gr0 23 <_cla_int_entry_group0_2+0x3>
   2823c:	80 00 00 03 	jmpr gr0

00028240 <_int_entry_group2_4>:
   28240:	94 00 00 21 	movigh gr0 2 <_cla_int_entry_group0_0+0x2>
   28244:	94 07 c0 05 	movigl gr0 7c00 <$line_table_start0+0xed>
   28248:	a8 00 04 82 	load32 gr0 gr0 24 <_cla_int_entry_group0_2+0x4>
   2824c:	80 00 00 03 	jmpr gr0

00028250 <_int_entry_group2_5>:
   28250:	94 00 00 21 	movigh gr0 2 <_cla_int_entry_group0_0+0x2>
   28254:	94 07 c0 05 	movigl gr0 7c00 <$line_table_start0+0xed>
   28258:	a8 00 04 a2 	load32 gr0 gr0 25 <_cla_int_entry_group0_2+0x5>
   2825c:	80 00 00 03 	jmpr gr0

00028260 <_int_entry_group2_6>:
   28260:	94 00 00 21 	movigh gr0 2 <_cla_int_entry_group0_0+0x2>
   28264:	94 07 c0 05 	movigl gr0 7c00 <$line_table_start0+0xed>
   28268:	a8 00 04 c2 	load32 gr0 gr0 26 <.L0 >
   2826c:	80 00 00 03 	jmpr gr0

00028270 <_int_entry_group2_7>:
   28270:	94 00 00 21 	movigh gr0 2 <_cla_int_entry_group0_0+0x2>
   28274:	94 07 c0 05 	movigl gr0 7c00 <$line_table_start0+0xed>
   28278:	a8 00 04 e2 	load32 gr0 gr0 27 <.L0 +0x1>
   2827c:	80 00 00 03 	jmpr gr0

00028280 <_int_entry_group2_8>:
   28280:	94 00 00 21 	movigh gr0 2 <_cla_int_entry_group0_0+0x2>
   28284:	94 07 c0 05 	movigl gr0 7c00 <$line_table_start0+0xed>
   28288:	a8 00 05 02 	load32 gr0 gr0 28 <.L0 +0x2>
   2828c:	80 00 00 03 	jmpr gr0

00028290 <_int_entry_group2_9>:
   28290:	94 00 00 21 	movigh gr0 2 <_cla_int_entry_group0_0+0x2>
   28294:	94 07 c0 05 	movigl gr0 7c00 <$line_table_start0+0xed>
   28298:	a8 00 05 22 	load32 gr0 gr0 29 <.L0 +0x3>
   2829c:	80 00 00 03 	jmpr gr0

000282a0 <_int_entry_group2_10>:
   282a0:	94 00 00 21 	movigh gr0 2 <_cla_int_entry_group0_0+0x2>
   282a4:	94 07 c0 05 	movigl gr0 7c00 <$line_table_start0+0xed>
   282a8:	a8 00 05 42 	load32 gr0 gr0 2a <.L0 +0x4>
   282ac:	80 00 00 03 	jmpr gr0

000282b0 <_int_entry_group2_11>:
   282b0:	94 00 00 21 	movigh gr0 2 <_cla_int_entry_group0_0+0x2>
   282b4:	94 07 c0 05 	movigl gr0 7c00 <$line_table_start0+0xed>
   282b8:	a8 00 05 62 	load32 gr0 gr0 2b <.L0 +0x5>
   282bc:	80 00 00 03 	jmpr gr0

000282c0 <_int_entry_group2_12>:
   282c0:	94 00 00 21 	movigh gr0 2 <_cla_int_entry_group0_0+0x2>
   282c4:	94 07 c0 05 	movigl gr0 7c00 <$line_table_start0+0xed>
   282c8:	a8 00 05 82 	load32 gr0 gr0 2c <.L0 +0x6>
   282cc:	80 00 00 03 	jmpr gr0

000282d0 <_int_entry_group2_13>:
   282d0:	94 00 00 21 	movigh gr0 2 <_cla_int_entry_group0_0+0x2>
   282d4:	94 07 c0 05 	movigl gr0 7c00 <$line_table_start0+0xed>
   282d8:	a8 00 05 a2 	load32 gr0 gr0 2d <.L0 +0x7>
   282dc:	80 00 00 03 	jmpr gr0

000282e0 <_int_entry_group2_14>:
   282e0:	94 00 00 21 	movigh gr0 2 <_cla_int_entry_group0_0+0x2>
   282e4:	94 07 c0 05 	movigl gr0 7c00 <$line_table_start0+0xed>
   282e8:	a8 00 05 c2 	load32 gr0 gr0 2e <.L0 +0x8>
   282ec:	80 00 00 03 	jmpr gr0

000282f0 <_int_entry_group2_15>:
   282f0:	94 00 00 21 	movigh gr0 2 <_cla_int_entry_group0_0+0x2>
   282f4:	94 07 c0 05 	movigl gr0 7c00 <$line_table_start0+0xed>
   282f8:	a8 00 05 e2 	load32 gr0 gr0 2f <.L0 +0x9>
   282fc:	80 00 00 03 	jmpr gr0

00028300 <_int_entry_group3_0>:
   28300:	94 00 00 21 	movigh gr0 2 <_cla_int_entry_group0_0+0x2>
   28304:	94 07 c0 05 	movigl gr0 7c00 <$line_table_start0+0xed>
   28308:	a8 00 06 02 	load32 gr0 gr0 30 <_cla_int_entry_group0_3>
   2830c:	80 00 00 03 	jmpr gr0

00028310 <_int_entry_group3_1>:
   28310:	94 00 00 21 	movigh gr0 2 <_cla_int_entry_group0_0+0x2>
   28314:	94 07 c0 05 	movigl gr0 7c00 <$line_table_start0+0xed>
   28318:	a8 00 06 22 	load32 gr0 gr0 31 <_cla_int_entry_group0_3+0x1>
   2831c:	80 00 00 03 	jmpr gr0

00028320 <_int_entry_group3_2>:
   28320:	94 00 00 21 	movigh gr0 2 <_cla_int_entry_group0_0+0x2>
   28324:	94 07 c0 05 	movigl gr0 7c00 <$line_table_start0+0xed>
   28328:	a8 00 06 42 	load32 gr0 gr0 32 <_cla_int_entry_group0_3+0x2>
   2832c:	80 00 00 03 	jmpr gr0

00028330 <_int_entry_group3_3>:
   28330:	94 00 00 21 	movigh gr0 2 <_cla_int_entry_group0_0+0x2>
   28334:	94 07 c0 05 	movigl gr0 7c00 <$line_table_start0+0xed>
   28338:	a8 00 06 62 	load32 gr0 gr0 33 <_cla_int_entry_group0_3+0x3>
   2833c:	80 00 00 03 	jmpr gr0

00028340 <_int_entry_group3_4>:
   28340:	94 00 00 21 	movigh gr0 2 <_cla_int_entry_group0_0+0x2>
   28344:	94 07 c0 05 	movigl gr0 7c00 <$line_table_start0+0xed>
   28348:	a8 00 06 82 	load32 gr0 gr0 34 <_cla_int_entry_group0_3+0x4>
   2834c:	80 00 00 03 	jmpr gr0

00028350 <_int_entry_group3_5>:
   28350:	94 00 00 21 	movigh gr0 2 <_cla_int_entry_group0_0+0x2>
   28354:	94 07 c0 05 	movigl gr0 7c00 <$line_table_start0+0xed>
   28358:	a8 00 06 a2 	load32 gr0 gr0 35 <_cla_int_entry_group0_3+0x5>
   2835c:	80 00 00 03 	jmpr gr0

00028360 <_int_entry_group3_6>:
   28360:	94 00 00 21 	movigh gr0 2 <_cla_int_entry_group0_0+0x2>
   28364:	94 07 c0 05 	movigl gr0 7c00 <$line_table_start0+0xed>
   28368:	a8 00 06 c2 	load32 gr0 gr0 36 <_cla_int_entry_group0_3+0x6>
   2836c:	80 00 00 03 	jmpr gr0

00028370 <_int_entry_group3_7>:
   28370:	94 00 00 21 	movigh gr0 2 <_cla_int_entry_group0_0+0x2>
   28374:	94 07 c0 05 	movigl gr0 7c00 <$line_table_start0+0xed>
   28378:	a8 00 06 e2 	load32 gr0 gr0 37 <_cla_int_entry_group0_3+0x7>
   2837c:	80 00 00 03 	jmpr gr0

00028380 <_int_entry_group3_8>:
   28380:	94 00 00 21 	movigh gr0 2 <_cla_int_entry_group0_0+0x2>
   28384:	94 07 c0 05 	movigl gr0 7c00 <$line_table_start0+0xed>
   28388:	a8 00 07 02 	load32 gr0 gr0 38 <.L0 >
   2838c:	80 00 00 03 	jmpr gr0

00028390 <_int_entry_group3_9>:
   28390:	94 00 00 21 	movigh gr0 2 <_cla_int_entry_group0_0+0x2>
   28394:	94 07 c0 05 	movigl gr0 7c00 <$line_table_start0+0xed>
   28398:	a8 00 07 22 	load32 gr0 gr0 39 <.L0 +0x1>
   2839c:	80 00 00 03 	jmpr gr0

000283a0 <_int_entry_group3_10>:
   283a0:	94 00 00 21 	movigh gr0 2 <_cla_int_entry_group0_0+0x2>
   283a4:	94 07 c0 05 	movigl gr0 7c00 <$line_table_start0+0xed>
   283a8:	a8 00 07 42 	load32 gr0 gr0 3a <.L0 +0x2>
   283ac:	80 00 00 03 	jmpr gr0

000283b0 <_int_entry_group3_11>:
   283b0:	94 00 00 21 	movigh gr0 2 <_cla_int_entry_group0_0+0x2>
   283b4:	94 07 c0 05 	movigl gr0 7c00 <$line_table_start0+0xed>
   283b8:	a8 00 07 62 	load32 gr0 gr0 3b <.L0 +0x3>
   283bc:	80 00 00 03 	jmpr gr0

000283c0 <_int_entry_group3_12>:
   283c0:	94 00 00 21 	movigh gr0 2 <_cla_int_entry_group0_0+0x2>
   283c4:	94 07 c0 05 	movigl gr0 7c00 <$line_table_start0+0xed>
   283c8:	a8 00 07 82 	load32 gr0 gr0 3c <.L0 +0x4>
   283cc:	80 00 00 03 	jmpr gr0

000283d0 <_int_entry_group3_13>:
   283d0:	94 00 00 21 	movigh gr0 2 <_cla_int_entry_group0_0+0x2>
   283d4:	94 07 c0 05 	movigl gr0 7c00 <$line_table_start0+0xed>
   283d8:	a8 00 07 a2 	load32 gr0 gr0 3d <.L0 +0x5>
   283dc:	80 00 00 03 	jmpr gr0

000283e0 <_int_entry_group3_14>:
   283e0:	94 00 00 21 	movigh gr0 2 <_cla_int_entry_group0_0+0x2>
   283e4:	94 07 c0 05 	movigl gr0 7c00 <$line_table_start0+0xed>
   283e8:	a8 00 07 c2 	load32 gr0 gr0 3e <.L0 +0x6>
   283ec:	80 00 00 03 	jmpr gr0

000283f0 <_int_entry_group3_15>:
   283f0:	94 00 00 21 	movigh gr0 2 <_cla_int_entry_group0_0+0x2>
   283f4:	94 07 c0 05 	movigl gr0 7c00 <$line_table_start0+0xed>
   283f8:	a8 00 07 e2 	load32 gr0 gr0 3f <.L0 +0x7>
   283fc:	80 00 00 03 	jmpr gr0

00028400 <_dsp_start>:
   28400:	80 00 00 00 	nop
   28404:	80 00 00 00 	nop
   28408:	80 00 9b 61 	jmp 29778 <_dsp_call_main>
   2840c:	80 00 00 00 	nop
   28410:	80 00 00 00 	nop
   28414:	80 00 00 00 	nop
   28418:	80 00 00 00 	nop
   2841c:	80 00 00 00 	nop
   28420:	80 00 00 00 	nop
   28424:	80 00 00 00 	nop
   28428:	80 00 00 00 	nop
   2842c:	80 00 00 00 	nop
   28430:	80 00 00 00 	nop
   28434:	80 00 00 00 	nop
   28438:	80 00 00 00 	nop
   2843c:	80 00 00 00 	nop
   28440:	80 00 00 00 	nop
   28444:	80 00 00 00 	nop
   28448:	80 00 00 00 	nop
   2844c:	80 00 00 00 	nop
   28450:	80 00 00 00 	nop
   28454:	80 00 00 00 	nop
   28458:	80 00 00 00 	nop
   2845c:	80 00 00 00 	nop
   28460:	80 00 00 00 	nop
   28464:	80 00 00 00 	nop
   28468:	80 00 00 00 	nop
   2846c:	80 00 00 00 	nop
   28470:	80 00 00 00 	nop
   28474:	80 00 00 00 	nop
   28478:	80 00 00 00 	nop
   2847c:	80 00 00 00 	nop
   28480:	80 00 00 00 	nop
   28484:	80 00 00 00 	nop
   28488:	80 00 00 00 	nop
   2848c:	80 00 00 00 	nop
   28490:	80 00 00 00 	nop
   28494:	80 00 00 00 	nop
   28498:	80 00 00 00 	nop
   2849c:	80 00 00 00 	nop
   284a0:	80 00 00 00 	nop
   284a4:	80 00 00 00 	nop
   284a8:	80 00 00 00 	nop
   284ac:	80 00 00 00 	nop
   284b0:	80 00 00 00 	nop
   284b4:	80 00 00 00 	nop
   284b8:	80 00 00 00 	nop
   284bc:	80 00 00 00 	nop
   284c0:	80 00 00 00 	nop
   284c4:	80 00 00 00 	nop
   284c8:	80 00 00 00 	nop
   284cc:	80 00 00 00 	nop
   284d0:	80 00 00 00 	nop
   284d4:	80 00 00 00 	nop
   284d8:	80 00 00 00 	nop
   284dc:	80 00 00 00 	nop
   284e0:	80 00 00 00 	nop
   284e4:	80 00 00 00 	nop
   284e8:	80 00 00 00 	nop
   284ec:	80 00 00 00 	nop
   284f0:	80 00 00 00 	nop
   284f4:	80 00 00 00 	nop
   284f8:	80 00 00 00 	nop
   284fc:	80 00 00 00 	nop

00028500 <_int_entry_group4_0>:
   28500:	94 00 00 21 	movigh gr0 2 <_cla_int_entry_group0_0+0x2>
   28504:	94 07 c0 05 	movigl gr0 7c00 <$line_table_start0+0xed>
   28508:	a8 00 08 02 	load32 gr0 gr0 40 <_cla_int_entry_group0_4>
   2850c:	80 00 00 03 	jmpr gr0

00028510 <_int_entry_group4_1>:
   28510:	94 00 00 21 	movigh gr0 2 <_cla_int_entry_group0_0+0x2>
   28514:	94 07 c0 05 	movigl gr0 7c00 <$line_table_start0+0xed>
   28518:	a8 00 08 22 	load32 gr0 gr0 41 <.L0 >
   2851c:	80 00 00 03 	jmpr gr0

00028520 <_int_entry_group4_2>:
   28520:	94 00 00 21 	movigh gr0 2 <_cla_int_entry_group0_0+0x2>
   28524:	94 07 c0 05 	movigl gr0 7c00 <$line_table_start0+0xed>
   28528:	a8 00 08 42 	load32 gr0 gr0 42 <.L0 +0x1>
   2852c:	80 00 00 03 	jmpr gr0

00028530 <_int_entry_group4_3>:
   28530:	94 00 00 21 	movigh gr0 2 <_cla_int_entry_group0_0+0x2>
   28534:	94 07 c0 05 	movigl gr0 7c00 <$line_table_start0+0xed>
   28538:	a8 00 08 62 	load32 gr0 gr0 43 <.L0 +0x2>
   2853c:	80 00 00 03 	jmpr gr0

00028540 <_int_entry_group4_4>:
   28540:	94 00 00 21 	movigh gr0 2 <_cla_int_entry_group0_0+0x2>
   28544:	94 07 c0 05 	movigl gr0 7c00 <$line_table_start0+0xed>
   28548:	a8 00 08 82 	load32 gr0 gr0 44 <.L0 +0x3>
   2854c:	80 00 00 03 	jmpr gr0

00028550 <_int_entry_group4_5>:
   28550:	94 00 00 21 	movigh gr0 2 <_cla_int_entry_group0_0+0x2>
   28554:	94 07 c0 05 	movigl gr0 7c00 <$line_table_start0+0xed>
   28558:	a8 00 08 a2 	load32 gr0 gr0 45 <.L0 +0x4>
   2855c:	80 00 00 03 	jmpr gr0

00028560 <_int_entry_group4_6>:
   28560:	94 00 00 21 	movigh gr0 2 <_cla_int_entry_group0_0+0x2>
   28564:	94 07 c0 05 	movigl gr0 7c00 <$line_table_start0+0xed>
   28568:	a8 00 08 c2 	load32 gr0 gr0 46 <.L0 +0x5>
   2856c:	80 00 00 03 	jmpr gr0

00028570 <_int_entry_group4_7>:
   28570:	94 00 00 21 	movigh gr0 2 <_cla_int_entry_group0_0+0x2>
   28574:	94 07 c0 05 	movigl gr0 7c00 <$line_table_start0+0xed>
   28578:	a8 00 08 e2 	load32 gr0 gr0 47 <.L0 +0x6>
   2857c:	80 00 00 03 	jmpr gr0

00028580 <_int_entry_group4_8>:
   28580:	94 00 00 21 	movigh gr0 2 <_cla_int_entry_group0_0+0x2>
   28584:	94 07 c0 05 	movigl gr0 7c00 <$line_table_start0+0xed>
   28588:	a8 00 09 02 	load32 gr0 gr0 48 <.L0 +0x7>
   2858c:	80 00 00 03 	jmpr gr0

00028590 <_int_entry_group4_9>:
   28590:	94 00 00 21 	movigh gr0 2 <_cla_int_entry_group0_0+0x2>
   28594:	94 07 c0 05 	movigl gr0 7c00 <$line_table_start0+0xed>
   28598:	a8 00 09 22 	load32 gr0 gr0 49 <.L0 +0x8>
   2859c:	80 00 00 03 	jmpr gr0

000285a0 <_int_entry_group4_10>:
   285a0:	94 00 00 21 	movigh gr0 2 <_cla_int_entry_group0_0+0x2>
   285a4:	94 07 c0 05 	movigl gr0 7c00 <$line_table_start0+0xed>
   285a8:	a8 00 09 42 	load32 gr0 gr0 4a <.L0 +0x9>
   285ac:	80 00 00 03 	jmpr gr0

000285b0 <_int_entry_group4_11>:
   285b0:	94 00 00 21 	movigh gr0 2 <_cla_int_entry_group0_0+0x2>
   285b4:	94 07 c0 05 	movigl gr0 7c00 <$line_table_start0+0xed>
   285b8:	a8 00 09 62 	load32 gr0 gr0 4b <.L0 +0xa>
   285bc:	80 00 00 03 	jmpr gr0

000285c0 <_int_entry_group4_12>:
   285c0:	94 00 00 21 	movigh gr0 2 <_cla_int_entry_group0_0+0x2>
   285c4:	94 07 c0 05 	movigl gr0 7c00 <$line_table_start0+0xed>
   285c8:	a8 00 09 82 	load32 gr0 gr0 4c <.L0 +0xb>
   285cc:	80 00 00 03 	jmpr gr0

000285d0 <_int_entry_group4_13>:
   285d0:	94 00 00 21 	movigh gr0 2 <_cla_int_entry_group0_0+0x2>
   285d4:	94 07 c0 05 	movigl gr0 7c00 <$line_table_start0+0xed>
   285d8:	a8 00 09 a2 	load32 gr0 gr0 4d <.L0 +0xc>
   285dc:	80 00 00 03 	jmpr gr0

000285e0 <_int_entry_group4_14>:
   285e0:	94 00 00 21 	movigh gr0 2 <_cla_int_entry_group0_0+0x2>
   285e4:	94 07 c0 05 	movigl gr0 7c00 <$line_table_start0+0xed>
   285e8:	a8 00 09 c2 	load32 gr0 gr0 4e <.L0 +0xd>
   285ec:	80 00 00 03 	jmpr gr0

000285f0 <_int_entry_group4_15>:
   285f0:	94 00 00 21 	movigh gr0 2 <_cla_int_entry_group0_0+0x2>
   285f4:	94 07 c0 05 	movigl gr0 7c00 <$line_table_start0+0xed>
   285f8:	a8 00 09 e2 	load32 gr0 gr0 4f <.L0 +0xe>
   285fc:	80 00 00 03 	jmpr gr0

00028600 <_int_entry_group5_0>:
   28600:	94 00 00 21 	movigh gr0 2 <_cla_int_entry_group0_0+0x2>
   28604:	94 07 c0 05 	movigl gr0 7c00 <$line_table_start0+0xed>
   28608:	a8 00 0a 02 	load32 gr0 gr0 50 <_cla_int_entry_group0_5>
   2860c:	80 00 00 03 	jmpr gr0

00028610 <_int_entry_group5_1>:
   28610:	94 00 00 21 	movigh gr0 2 <_cla_int_entry_group0_0+0x2>
   28614:	94 07 c0 05 	movigl gr0 7c00 <$line_table_start0+0xed>
   28618:	a8 00 0a 22 	load32 gr0 gr0 51 <_cla_int_entry_group0_5+0x1>
   2861c:	80 00 00 03 	jmpr gr0

00028620 <_int_entry_group5_2>:
   28620:	94 00 00 21 	movigh gr0 2 <_cla_int_entry_group0_0+0x2>
   28624:	94 07 c0 05 	movigl gr0 7c00 <$line_table_start0+0xed>
   28628:	a8 00 0a 42 	load32 gr0 gr0 52 <_cla_int_entry_group0_5+0x2>
   2862c:	80 00 00 03 	jmpr gr0

00028630 <_int_entry_group5_3>:
   28630:	94 00 00 21 	movigh gr0 2 <_cla_int_entry_group0_0+0x2>
   28634:	94 07 c0 05 	movigl gr0 7c00 <$line_table_start0+0xed>
   28638:	a8 00 0a 62 	load32 gr0 gr0 53 <_cla_int_entry_group0_5+0x3>
   2863c:	80 00 00 03 	jmpr gr0

00028640 <_int_entry_group5_4>:
   28640:	94 00 00 21 	movigh gr0 2 <_cla_int_entry_group0_0+0x2>
   28644:	94 07 c0 05 	movigl gr0 7c00 <$line_table_start0+0xed>
   28648:	a8 00 0a 82 	load32 gr0 gr0 54 <_cla_int_entry_group0_5+0x4>
   2864c:	80 00 00 03 	jmpr gr0

00028650 <_int_entry_group5_5>:
   28650:	94 00 00 21 	movigh gr0 2 <_cla_int_entry_group0_0+0x2>
   28654:	94 07 c0 05 	movigl gr0 7c00 <$line_table_start0+0xed>
   28658:	a8 00 0a a2 	load32 gr0 gr0 55 <_cla_int_entry_group0_5+0x5>
   2865c:	80 00 00 03 	jmpr gr0

00028660 <_int_entry_group5_6>:
   28660:	94 00 00 21 	movigh gr0 2 <_cla_int_entry_group0_0+0x2>
   28664:	94 07 c0 05 	movigl gr0 7c00 <$line_table_start0+0xed>
   28668:	a8 00 0a c2 	load32 gr0 gr0 56 <_cla_int_entry_group0_5+0x6>
   2866c:	80 00 00 03 	jmpr gr0

00028670 <_int_entry_group5_7>:
   28670:	94 00 00 21 	movigh gr0 2 <_cla_int_entry_group0_0+0x2>
   28674:	94 07 c0 05 	movigl gr0 7c00 <$line_table_start0+0xed>
   28678:	a8 00 0a e2 	load32 gr0 gr0 57 <_cla_int_entry_group0_5+0x7>
   2867c:	80 00 00 03 	jmpr gr0

00028680 <_int_entry_group5_8>:
   28680:	94 00 00 21 	movigh gr0 2 <_cla_int_entry_group0_0+0x2>
   28684:	94 07 c0 05 	movigl gr0 7c00 <$line_table_start0+0xed>
   28688:	a8 00 0b 02 	load32 gr0 gr0 58 <_cla_int_entry_group0_5+0x8>
   2868c:	80 00 00 03 	jmpr gr0

00028690 <_int_entry_group5_9>:
   28690:	94 00 00 21 	movigh gr0 2 <_cla_int_entry_group0_0+0x2>
   28694:	94 07 c0 05 	movigl gr0 7c00 <$line_table_start0+0xed>
   28698:	a8 00 0b 22 	load32 gr0 gr0 59 <_cla_int_entry_group0_5+0x9>
   2869c:	80 00 00 03 	jmpr gr0

000286a0 <_int_entry_group5_10>:
   286a0:	94 00 00 21 	movigh gr0 2 <_cla_int_entry_group0_0+0x2>
   286a4:	94 07 c0 05 	movigl gr0 7c00 <$line_table_start0+0xed>
   286a8:	a8 00 0b 42 	load32 gr0 gr0 5a <_cla_int_entry_group0_5+0xa>
   286ac:	80 00 00 03 	jmpr gr0

000286b0 <_int_entry_group5_11>:
   286b0:	94 00 00 21 	movigh gr0 2 <_cla_int_entry_group0_0+0x2>
   286b4:	94 07 c0 05 	movigl gr0 7c00 <$line_table_start0+0xed>
   286b8:	a8 00 0b 62 	load32 gr0 gr0 5b <_cla_int_entry_group0_5+0xb>
   286bc:	80 00 00 03 	jmpr gr0

000286c0 <_int_entry_group5_12>:
   286c0:	94 00 00 21 	movigh gr0 2 <_cla_int_entry_group0_0+0x2>
   286c4:	94 07 c0 05 	movigl gr0 7c00 <$line_table_start0+0xed>
   286c8:	a8 00 0b 82 	load32 gr0 gr0 5c <.L0 >
   286cc:	80 00 00 03 	jmpr gr0

000286d0 <_int_entry_group5_13>:
   286d0:	94 00 00 21 	movigh gr0 2 <_cla_int_entry_group0_0+0x2>
   286d4:	94 07 c0 05 	movigl gr0 7c00 <$line_table_start0+0xed>
   286d8:	a8 00 0b a2 	load32 gr0 gr0 5d <.L0 +0x1>
   286dc:	80 00 00 03 	jmpr gr0

000286e0 <_int_entry_group5_14>:
   286e0:	94 00 00 21 	movigh gr0 2 <_cla_int_entry_group0_0+0x2>
   286e4:	94 07 c0 05 	movigl gr0 7c00 <$line_table_start0+0xed>
   286e8:	a8 00 0b c2 	load32 gr0 gr0 5e <.L0 +0x2>
   286ec:	80 00 00 03 	jmpr gr0

000286f0 <_int_entry_group5_15>:
   286f0:	94 00 00 21 	movigh gr0 2 <_cla_int_entry_group0_0+0x2>
   286f4:	94 07 c0 05 	movigl gr0 7c00 <$line_table_start0+0xed>
   286f8:	a8 00 0b e2 	load32 gr0 gr0 5f <.L0 +0x3>
   286fc:	80 00 00 03 	jmpr gr0

00028700 <_int_entry_group6_0>:
   28700:	94 00 00 21 	movigh gr0 2 <_cla_int_entry_group0_0+0x2>
   28704:	94 07 c0 05 	movigl gr0 7c00 <$line_table_start0+0xed>
   28708:	a8 00 0c 02 	load32 gr0 gr0 60 <_cla_int_entry_group0_6>
   2870c:	80 00 00 03 	jmpr gr0

00028710 <_int_entry_group6_1>:
   28710:	94 00 00 21 	movigh gr0 2 <_cla_int_entry_group0_0+0x2>
   28714:	94 07 c0 05 	movigl gr0 7c00 <$line_table_start0+0xed>
   28718:	a8 00 0c 22 	load32 gr0 gr0 61 <_cla_int_entry_group0_6+0x1>
   2871c:	80 00 00 03 	jmpr gr0

00028720 <_int_entry_group6_2>:
   28720:	94 00 00 21 	movigh gr0 2 <_cla_int_entry_group0_0+0x2>
   28724:	94 07 c0 05 	movigl gr0 7c00 <$line_table_start0+0xed>
   28728:	a8 00 0c 42 	load32 gr0 gr0 62 <_cla_int_entry_group0_6+0x2>
   2872c:	80 00 00 03 	jmpr gr0

00028730 <_int_entry_group6_3>:
   28730:	94 00 00 21 	movigh gr0 2 <_cla_int_entry_group0_0+0x2>
   28734:	94 07 c0 05 	movigl gr0 7c00 <$line_table_start0+0xed>
   28738:	a8 00 0c 62 	load32 gr0 gr0 63 <_cla_int_entry_group0_6+0x3>
   2873c:	80 00 00 03 	jmpr gr0

00028740 <_int_entry_group6_4>:
   28740:	94 00 00 21 	movigh gr0 2 <_cla_int_entry_group0_0+0x2>
   28744:	94 07 c0 05 	movigl gr0 7c00 <$line_table_start0+0xed>
   28748:	a8 00 0c 82 	load32 gr0 gr0 64 <_cla_int_entry_group0_6+0x4>
   2874c:	80 00 00 03 	jmpr gr0

00028750 <_int_entry_group6_5>:
   28750:	94 00 00 21 	movigh gr0 2 <_cla_int_entry_group0_0+0x2>
   28754:	94 07 c0 05 	movigl gr0 7c00 <$line_table_start0+0xed>
   28758:	a8 00 0c a2 	load32 gr0 gr0 65 <_cla_int_entry_group0_6+0x5>
   2875c:	80 00 00 03 	jmpr gr0

00028760 <_int_entry_group6_6>:
   28760:	94 00 00 21 	movigh gr0 2 <_cla_int_entry_group0_0+0x2>
   28764:	94 07 c0 05 	movigl gr0 7c00 <$line_table_start0+0xed>
   28768:	a8 00 0c c2 	load32 gr0 gr0 66 <_cla_int_entry_group0_6+0x6>
   2876c:	80 00 00 03 	jmpr gr0

00028770 <_int_entry_group6_7>:
   28770:	94 00 00 21 	movigh gr0 2 <_cla_int_entry_group0_0+0x2>
   28774:	94 07 c0 05 	movigl gr0 7c00 <$line_table_start0+0xed>
   28778:	a8 00 0c e2 	load32 gr0 gr0 67 <_cla_int_entry_group0_6+0x7>
   2877c:	80 00 00 03 	jmpr gr0

00028780 <_int_entry_group6_8>:
   28780:	94 00 00 21 	movigh gr0 2 <_cla_int_entry_group0_0+0x2>
   28784:	94 07 c0 05 	movigl gr0 7c00 <$line_table_start0+0xed>
   28788:	a8 00 0d 02 	load32 gr0 gr0 68 <_cla_int_entry_group0_6+0x8>
   2878c:	80 00 00 03 	jmpr gr0

00028790 <_int_entry_group6_9>:
   28790:	94 00 00 21 	movigh gr0 2 <_cla_int_entry_group0_0+0x2>
   28794:	94 07 c0 05 	movigl gr0 7c00 <$line_table_start0+0xed>
   28798:	a8 00 0d 22 	load32 gr0 gr0 69 <_cla_int_entry_group0_6+0x9>
   2879c:	80 00 00 03 	jmpr gr0

000287a0 <_int_entry_group6_10>:
   287a0:	94 00 00 21 	movigh gr0 2 <_cla_int_entry_group0_0+0x2>
   287a4:	94 07 c0 05 	movigl gr0 7c00 <$line_table_start0+0xed>
   287a8:	a8 00 0d 42 	load32 gr0 gr0 6a <_cla_int_entry_group0_6+0xa>
   287ac:	80 00 00 03 	jmpr gr0

000287b0 <_int_entry_group6_11>:
   287b0:	94 00 00 21 	movigh gr0 2 <_cla_int_entry_group0_0+0x2>
   287b4:	94 07 c0 05 	movigl gr0 7c00 <$line_table_start0+0xed>
   287b8:	a8 00 0d 62 	load32 gr0 gr0 6b <_cla_int_entry_group0_6+0xb>
   287bc:	80 00 00 03 	jmpr gr0

000287c0 <_int_entry_group6_12>:
   287c0:	94 00 00 21 	movigh gr0 2 <_cla_int_entry_group0_0+0x2>
   287c4:	94 07 c0 05 	movigl gr0 7c00 <$line_table_start0+0xed>
   287c8:	a8 00 0d 82 	load32 gr0 gr0 6c <_cla_int_entry_group0_6+0xc>
   287cc:	80 00 00 03 	jmpr gr0

000287d0 <_int_entry_group6_13>:
   287d0:	94 00 00 21 	movigh gr0 2 <_cla_int_entry_group0_0+0x2>
   287d4:	94 07 c0 05 	movigl gr0 7c00 <$line_table_start0+0xed>
   287d8:	a8 00 0d a2 	load32 gr0 gr0 6d <_cla_int_entry_group0_6+0xd>
   287dc:	80 00 00 03 	jmpr gr0

000287e0 <_int_entry_group6_14>:
   287e0:	94 00 00 21 	movigh gr0 2 <_cla_int_entry_group0_0+0x2>
   287e4:	94 07 c0 05 	movigl gr0 7c00 <$line_table_start0+0xed>
   287e8:	a8 00 0d c2 	load32 gr0 gr0 6e <_cla_int_entry_group0_6+0xe>
   287ec:	80 00 00 03 	jmpr gr0

000287f0 <_int_entry_group6_15>:
   287f0:	94 00 00 21 	movigh gr0 2 <_cla_int_entry_group0_0+0x2>
   287f4:	94 07 c0 05 	movigl gr0 7c00 <$line_table_start0+0xed>
   287f8:	a8 00 0d e2 	load32 gr0 gr0 6f <_cla_int_entry_group0_6+0xf>
   287fc:	80 00 00 03 	jmpr gr0

00028800 <_int_entry_group7_0>:
   28800:	94 00 00 21 	movigh gr0 2 <_cla_int_entry_group0_0+0x2>
   28804:	94 07 c0 05 	movigl gr0 7c00 <$line_table_start0+0xed>
   28808:	a8 00 0e 02 	load32 gr0 gr0 70 <_cla_int_entry_group0_7>
   2880c:	80 00 00 03 	jmpr gr0

00028810 <_int_entry_group7_1>:
   28810:	94 00 00 21 	movigh gr0 2 <_cla_int_entry_group0_0+0x2>
   28814:	94 07 c0 05 	movigl gr0 7c00 <$line_table_start0+0xed>
   28818:	a8 00 0e 22 	load32 gr0 gr0 71 <_cla_int_entry_group0_7+0x1>
   2881c:	80 00 00 03 	jmpr gr0

00028820 <_int_entry_group7_2>:
   28820:	94 00 00 21 	movigh gr0 2 <_cla_int_entry_group0_0+0x2>
   28824:	94 07 c0 05 	movigl gr0 7c00 <$line_table_start0+0xed>
   28828:	a8 00 0e 42 	load32 gr0 gr0 72 <_cla_int_entry_group0_7+0x2>
   2882c:	80 00 00 03 	jmpr gr0

00028830 <_int_entry_group7_3>:
   28830:	94 00 00 21 	movigh gr0 2 <_cla_int_entry_group0_0+0x2>
   28834:	94 07 c0 05 	movigl gr0 7c00 <$line_table_start0+0xed>
   28838:	a8 00 0e 62 	load32 gr0 gr0 73 <_cla_int_entry_group0_7+0x3>
   2883c:	80 00 00 03 	jmpr gr0

00028840 <_int_entry_group7_4>:
   28840:	94 00 00 21 	movigh gr0 2 <_cla_int_entry_group0_0+0x2>
   28844:	94 07 c0 05 	movigl gr0 7c00 <$line_table_start0+0xed>
   28848:	a8 00 0e 82 	load32 gr0 gr0 74 <_cla_int_entry_group0_7+0x4>
   2884c:	80 00 00 03 	jmpr gr0

00028850 <_int_entry_group7_5>:
   28850:	94 00 00 21 	movigh gr0 2 <_cla_int_entry_group0_0+0x2>
   28854:	94 07 c0 05 	movigl gr0 7c00 <$line_table_start0+0xed>
   28858:	a8 00 0e a2 	load32 gr0 gr0 75 <_cla_int_entry_group0_7+0x5>
   2885c:	80 00 00 03 	jmpr gr0

00028860 <_int_entry_group7_6>:
   28860:	94 00 00 21 	movigh gr0 2 <_cla_int_entry_group0_0+0x2>
   28864:	94 07 c0 05 	movigl gr0 7c00 <$line_table_start0+0xed>
   28868:	a8 00 0e c2 	load32 gr0 gr0 76 <_cla_int_entry_group0_7+0x6>
   2886c:	80 00 00 03 	jmpr gr0

00028870 <_int_entry_group7_7>:
   28870:	94 00 00 21 	movigh gr0 2 <_cla_int_entry_group0_0+0x2>
   28874:	94 07 c0 05 	movigl gr0 7c00 <$line_table_start0+0xed>
   28878:	a8 00 0e e2 	load32 gr0 gr0 77 <.L0 >
   2887c:	80 00 00 03 	jmpr gr0

00028880 <_int_entry_group7_8>:
   28880:	94 00 00 21 	movigh gr0 2 <_cla_int_entry_group0_0+0x2>
   28884:	94 07 c0 05 	movigl gr0 7c00 <$line_table_start0+0xed>
   28888:	a8 00 0f 02 	load32 gr0 gr0 78 <.L0 +0x1>
   2888c:	80 00 00 03 	jmpr gr0

00028890 <_int_entry_group7_9>:
   28890:	94 00 00 21 	movigh gr0 2 <_cla_int_entry_group0_0+0x2>
   28894:	94 07 c0 05 	movigl gr0 7c00 <$line_table_start0+0xed>
   28898:	a8 00 0f 22 	load32 gr0 gr0 79 <.L0 +0x2>
   2889c:	80 00 00 03 	jmpr gr0

000288a0 <_int_entry_group7_10>:
   288a0:	94 00 00 21 	movigh gr0 2 <_cla_int_entry_group0_0+0x2>
   288a4:	94 07 c0 05 	movigl gr0 7c00 <$line_table_start0+0xed>
   288a8:	a8 00 0f 42 	load32 gr0 gr0 7a <.L0 +0x3>
   288ac:	80 00 00 03 	jmpr gr0

000288b0 <_int_entry_group7_11>:
   288b0:	94 00 00 21 	movigh gr0 2 <_cla_int_entry_group0_0+0x2>
   288b4:	94 07 c0 05 	movigl gr0 7c00 <$line_table_start0+0xed>
   288b8:	a8 00 0f 62 	load32 gr0 gr0 7b <.L0 +0x4>
   288bc:	80 00 00 03 	jmpr gr0

000288c0 <_int_entry_group7_12>:
   288c0:	94 00 00 21 	movigh gr0 2 <_cla_int_entry_group0_0+0x2>
   288c4:	94 07 c0 05 	movigl gr0 7c00 <$line_table_start0+0xed>
   288c8:	a8 00 0f 82 	load32 gr0 gr0 7c <.L0 +0x5>
   288cc:	80 00 00 03 	jmpr gr0

000288d0 <_int_entry_group7_13>:
   288d0:	94 00 00 21 	movigh gr0 2 <_cla_int_entry_group0_0+0x2>
   288d4:	94 07 c0 05 	movigl gr0 7c00 <$line_table_start0+0xed>
   288d8:	a8 00 0f a2 	load32 gr0 gr0 7d <.L0 +0x6>
   288dc:	80 00 00 03 	jmpr gr0

000288e0 <_int_entry_group7_14>:
   288e0:	94 00 00 21 	movigh gr0 2 <_cla_int_entry_group0_0+0x2>
   288e4:	94 07 c0 05 	movigl gr0 7c00 <$line_table_start0+0xed>
   288e8:	a8 00 0f c2 	load32 gr0 gr0 7e <.L0 +0x7>
   288ec:	80 00 00 03 	jmpr gr0

000288f0 <_int_entry_group7_15>:
   288f0:	94 00 00 21 	movigh gr0 2 <_cla_int_entry_group0_0+0x2>
   288f4:	94 07 c0 05 	movigl gr0 7c00 <$line_table_start0+0xed>
   288f8:	a8 00 0f e2 	load32 gr0 gr0 7f <.L0 +0x8>
   288fc:	80 00 00 03 	jmpr gr0

00028900 <_int_entry_group8_0>:
   28900:	94 00 00 21 	movigh gr0 2 <_cla_int_entry_group0_0+0x2>
   28904:	94 07 c0 05 	movigl gr0 7c00 <$line_table_start0+0xed>
   28908:	a8 00 10 02 	load32 gr0 gr0 80 <_cla_int_entry_group0_8>
   2890c:	80 00 00 03 	jmpr gr0

00028910 <_int_entry_group8_1>:
   28910:	94 00 00 21 	movigh gr0 2 <_cla_int_entry_group0_0+0x2>
   28914:	94 07 c0 05 	movigl gr0 7c00 <$line_table_start0+0xed>
   28918:	a8 00 10 22 	load32 gr0 gr0 81 <_cla_int_entry_group0_8+0x1>
   2891c:	80 00 00 03 	jmpr gr0

00028920 <_int_entry_group8_2>:
   28920:	94 00 00 21 	movigh gr0 2 <_cla_int_entry_group0_0+0x2>
   28924:	94 07 c0 05 	movigl gr0 7c00 <$line_table_start0+0xed>
   28928:	a8 00 10 42 	load32 gr0 gr0 82 <_cla_int_entry_group0_8+0x2>
   2892c:	80 00 00 03 	jmpr gr0

00028930 <_int_entry_group8_3>:
   28930:	94 00 00 21 	movigh gr0 2 <_cla_int_entry_group0_0+0x2>
   28934:	94 07 c0 05 	movigl gr0 7c00 <$line_table_start0+0xed>
   28938:	a8 00 10 62 	load32 gr0 gr0 83 <_cla_int_entry_group0_8+0x3>
   2893c:	80 00 00 03 	jmpr gr0

00028940 <_int_entry_group8_4>:
   28940:	94 00 00 21 	movigh gr0 2 <_cla_int_entry_group0_0+0x2>
   28944:	94 07 c0 05 	movigl gr0 7c00 <$line_table_start0+0xed>
   28948:	a8 00 10 82 	load32 gr0 gr0 84 <_cla_int_entry_group0_8+0x4>
   2894c:	80 00 00 03 	jmpr gr0

00028950 <_int_entry_group8_5>:
   28950:	94 00 00 21 	movigh gr0 2 <_cla_int_entry_group0_0+0x2>
   28954:	94 07 c0 05 	movigl gr0 7c00 <$line_table_start0+0xed>
   28958:	a8 00 10 a2 	load32 gr0 gr0 85 <_cla_int_entry_group0_8+0x5>
   2895c:	80 00 00 03 	jmpr gr0

00028960 <_int_entry_group8_6>:
   28960:	94 00 00 21 	movigh gr0 2 <_cla_int_entry_group0_0+0x2>
   28964:	94 07 c0 05 	movigl gr0 7c00 <$line_table_start0+0xed>
   28968:	a8 00 10 c2 	load32 gr0 gr0 86 <_cla_int_entry_group0_8+0x6>
   2896c:	80 00 00 03 	jmpr gr0

00028970 <_int_entry_group8_7>:
   28970:	94 00 00 21 	movigh gr0 2 <_cla_int_entry_group0_0+0x2>
   28974:	94 07 c0 05 	movigl gr0 7c00 <$line_table_start0+0xed>
   28978:	a8 00 10 e2 	load32 gr0 gr0 87 <_cla_int_entry_group0_8+0x7>
   2897c:	80 00 00 03 	jmpr gr0

00028980 <_int_entry_group8_8>:
   28980:	94 00 00 21 	movigh gr0 2 <_cla_int_entry_group0_0+0x2>
   28984:	94 07 c0 05 	movigl gr0 7c00 <$line_table_start0+0xed>
   28988:	a8 00 11 02 	load32 gr0 gr0 88 <.L0 >
   2898c:	80 00 00 03 	jmpr gr0

00028990 <_int_entry_group8_9>:
   28990:	94 00 00 21 	movigh gr0 2 <_cla_int_entry_group0_0+0x2>
   28994:	94 07 c0 05 	movigl gr0 7c00 <$line_table_start0+0xed>
   28998:	a8 00 11 22 	load32 gr0 gr0 89 <.L0 +0x1>
   2899c:	80 00 00 03 	jmpr gr0

000289a0 <_int_entry_group8_10>:
   289a0:	94 00 00 21 	movigh gr0 2 <_cla_int_entry_group0_0+0x2>
   289a4:	94 07 c0 05 	movigl gr0 7c00 <$line_table_start0+0xed>
   289a8:	a8 00 11 42 	load32 gr0 gr0 8a <.L0 +0x2>
   289ac:	80 00 00 03 	jmpr gr0

000289b0 <_int_entry_group8_11>:
   289b0:	94 00 00 21 	movigh gr0 2 <_cla_int_entry_group0_0+0x2>
   289b4:	94 07 c0 05 	movigl gr0 7c00 <$line_table_start0+0xed>
   289b8:	a8 00 11 62 	load32 gr0 gr0 8b <.L0 +0x3>
   289bc:	80 00 00 03 	jmpr gr0

000289c0 <_int_entry_group8_12>:
   289c0:	94 00 00 21 	movigh gr0 2 <_cla_int_entry_group0_0+0x2>
   289c4:	94 07 c0 05 	movigl gr0 7c00 <$line_table_start0+0xed>
   289c8:	a8 00 11 82 	load32 gr0 gr0 8c <.L0 +0x4>
   289cc:	80 00 00 03 	jmpr gr0

000289d0 <_int_entry_group8_13>:
   289d0:	94 00 00 21 	movigh gr0 2 <_cla_int_entry_group0_0+0x2>
   289d4:	94 07 c0 05 	movigl gr0 7c00 <$line_table_start0+0xed>
   289d8:	a8 00 11 a2 	load32 gr0 gr0 8d <.L0 +0x5>
   289dc:	80 00 00 03 	jmpr gr0

000289e0 <_int_entry_group8_14>:
   289e0:	94 00 00 21 	movigh gr0 2 <_cla_int_entry_group0_0+0x2>
   289e4:	94 07 c0 05 	movigl gr0 7c00 <$line_table_start0+0xed>
   289e8:	a8 00 11 c2 	load32 gr0 gr0 8e <.L0 +0x6>
   289ec:	80 00 00 03 	jmpr gr0

000289f0 <_int_entry_group8_15>:
   289f0:	94 00 00 21 	movigh gr0 2 <_cla_int_entry_group0_0+0x2>
   289f4:	94 07 c0 05 	movigl gr0 7c00 <$line_table_start0+0xed>
   289f8:	a8 00 11 e2 	load32 gr0 gr0 8f <.L0 +0x7>
   289fc:	80 00 00 03 	jmpr gr0

00028a00 <_int_entry_group9_0>:
   28a00:	94 00 00 21 	movigh gr0 2 <_cla_int_entry_group0_0+0x2>
   28a04:	94 07 c0 05 	movigl gr0 7c00 <$line_table_start0+0xed>
   28a08:	a8 00 12 02 	load32 gr0 gr0 90 <_cla_int_entry_group0_9>
   28a0c:	80 00 00 03 	jmpr gr0

00028a10 <_int_entry_group9_1>:
   28a10:	94 00 00 21 	movigh gr0 2 <_cla_int_entry_group0_0+0x2>
   28a14:	94 07 c0 05 	movigl gr0 7c00 <$line_table_start0+0xed>
   28a18:	a8 00 12 22 	load32 gr0 gr0 91 <_cla_int_entry_group0_9+0x1>
   28a1c:	80 00 00 03 	jmpr gr0

00028a20 <_int_entry_group9_2>:
   28a20:	94 00 00 21 	movigh gr0 2 <_cla_int_entry_group0_0+0x2>
   28a24:	94 07 c0 05 	movigl gr0 7c00 <$line_table_start0+0xed>
   28a28:	a8 00 12 42 	load32 gr0 gr0 92 <.L0 >
   28a2c:	80 00 00 03 	jmpr gr0

00028a30 <_int_entry_group9_3>:
   28a30:	94 00 00 21 	movigh gr0 2 <_cla_int_entry_group0_0+0x2>
   28a34:	94 07 c0 05 	movigl gr0 7c00 <$line_table_start0+0xed>
   28a38:	a8 00 12 62 	load32 gr0 gr0 93 <.L0 +0x1>
   28a3c:	80 00 00 03 	jmpr gr0

00028a40 <_int_entry_group9_4>:
   28a40:	94 00 00 21 	movigh gr0 2 <_cla_int_entry_group0_0+0x2>
   28a44:	94 07 c0 05 	movigl gr0 7c00 <$line_table_start0+0xed>
   28a48:	a8 00 12 82 	load32 gr0 gr0 94 <.L0 +0x2>
   28a4c:	80 00 00 03 	jmpr gr0

00028a50 <_int_entry_group9_5>:
   28a50:	94 00 00 21 	movigh gr0 2 <_cla_int_entry_group0_0+0x2>
   28a54:	94 07 c0 05 	movigl gr0 7c00 <$line_table_start0+0xed>
   28a58:	a8 00 12 a2 	load32 gr0 gr0 95 <.L0 +0x3>
   28a5c:	80 00 00 03 	jmpr gr0

00028a60 <_int_entry_group9_6>:
   28a60:	94 00 00 21 	movigh gr0 2 <_cla_int_entry_group0_0+0x2>
   28a64:	94 07 c0 05 	movigl gr0 7c00 <$line_table_start0+0xed>
   28a68:	a8 00 12 c2 	load32 gr0 gr0 96 <.L0 +0x4>
   28a6c:	80 00 00 03 	jmpr gr0

00028a70 <_int_entry_group9_7>:
   28a70:	94 00 00 21 	movigh gr0 2 <_cla_int_entry_group0_0+0x2>
   28a74:	94 07 c0 05 	movigl gr0 7c00 <$line_table_start0+0xed>
   28a78:	a8 00 12 e2 	load32 gr0 gr0 97 <.L0 +0x5>
   28a7c:	80 00 00 03 	jmpr gr0

00028a80 <_int_entry_group9_8>:
   28a80:	94 00 00 21 	movigh gr0 2 <_cla_int_entry_group0_0+0x2>
   28a84:	94 07 c0 05 	movigl gr0 7c00 <$line_table_start0+0xed>
   28a88:	a8 00 13 02 	load32 gr0 gr0 98 <.L0 >
   28a8c:	80 00 00 03 	jmpr gr0

00028a90 <_int_entry_group9_9>:
   28a90:	94 00 00 21 	movigh gr0 2 <_cla_int_entry_group0_0+0x2>
   28a94:	94 07 c0 05 	movigl gr0 7c00 <$line_table_start0+0xed>
   28a98:	a8 00 13 22 	load32 gr0 gr0 99 <.L0 +0x1>
   28a9c:	80 00 00 03 	jmpr gr0

00028aa0 <_int_entry_group9_10>:
   28aa0:	94 00 00 21 	movigh gr0 2 <_cla_int_entry_group0_0+0x2>
   28aa4:	94 07 c0 05 	movigl gr0 7c00 <$line_table_start0+0xed>
   28aa8:	a8 00 13 42 	load32 gr0 gr0 9a <.L0 +0x2>
   28aac:	80 00 00 03 	jmpr gr0

00028ab0 <_int_entry_group9_11>:
   28ab0:	94 00 00 21 	movigh gr0 2 <_cla_int_entry_group0_0+0x2>
   28ab4:	94 07 c0 05 	movigl gr0 7c00 <$line_table_start0+0xed>
   28ab8:	a8 00 13 62 	load32 gr0 gr0 9b <.L0 +0x3>
   28abc:	80 00 00 03 	jmpr gr0

00028ac0 <_int_entry_group9_12>:
   28ac0:	94 00 00 21 	movigh gr0 2 <_cla_int_entry_group0_0+0x2>
   28ac4:	94 07 c0 05 	movigl gr0 7c00 <$line_table_start0+0xed>
   28ac8:	a8 00 13 82 	load32 gr0 gr0 9c <.L0 +0x4>
   28acc:	80 00 00 03 	jmpr gr0

00028ad0 <_int_entry_group9_13>:
   28ad0:	94 00 00 21 	movigh gr0 2 <_cla_int_entry_group0_0+0x2>
   28ad4:	94 07 c0 05 	movigl gr0 7c00 <$line_table_start0+0xed>
   28ad8:	a8 00 13 a2 	load32 gr0 gr0 9d <.L0 +0x5>
   28adc:	80 00 00 03 	jmpr gr0

00028ae0 <_int_entry_group9_14>:
   28ae0:	94 00 00 21 	movigh gr0 2 <_cla_int_entry_group0_0+0x2>
   28ae4:	94 07 c0 05 	movigl gr0 7c00 <$line_table_start0+0xed>
   28ae8:	a8 00 13 c2 	load32 gr0 gr0 9e <.L0 +0x6>
   28aec:	80 00 00 03 	jmpr gr0

00028af0 <_int_entry_group9_15>:
   28af0:	94 00 00 21 	movigh gr0 2 <_cla_int_entry_group0_0+0x2>
   28af4:	94 07 c0 05 	movigl gr0 7c00 <$line_table_start0+0xed>
   28af8:	a8 00 13 e2 	load32 gr0 gr0 9f <.L0 +0x7>
   28afc:	80 00 00 03 	jmpr gr0

00028b00 <_int_entry_group10_0>:
   28b00:	94 00 00 21 	movigh gr0 2 <_cla_int_entry_group0_0+0x2>
   28b04:	94 07 c0 05 	movigl gr0 7c00 <$line_table_start0+0xed>
   28b08:	a8 00 14 02 	load32 gr0 gr0 a0 <_cla_int_entry_group0_10>
   28b0c:	80 00 00 03 	jmpr gr0

00028b10 <_int_entry_group10_1>:
   28b10:	94 00 00 21 	movigh gr0 2 <_cla_int_entry_group0_0+0x2>
   28b14:	94 07 c0 05 	movigl gr0 7c00 <$line_table_start0+0xed>
   28b18:	a8 00 14 22 	load32 gr0 gr0 a1 <_cla_int_entry_group0_10+0x1>
   28b1c:	80 00 00 03 	jmpr gr0

00028b20 <_int_entry_group10_2>:
   28b20:	94 00 00 21 	movigh gr0 2 <_cla_int_entry_group0_0+0x2>
   28b24:	94 07 c0 05 	movigl gr0 7c00 <$line_table_start0+0xed>
   28b28:	a8 00 14 42 	load32 gr0 gr0 a2 <_cla_int_entry_group0_10+0x2>
   28b2c:	80 00 00 03 	jmpr gr0

00028b30 <_int_entry_group10_3>:
   28b30:	94 00 00 21 	movigh gr0 2 <_cla_int_entry_group0_0+0x2>
   28b34:	94 07 c0 05 	movigl gr0 7c00 <$line_table_start0+0xed>
   28b38:	a8 00 14 62 	load32 gr0 gr0 a3 <_cla_int_entry_group0_10+0x3>
   28b3c:	80 00 00 03 	jmpr gr0

00028b40 <_int_entry_group10_4>:
   28b40:	94 00 00 21 	movigh gr0 2 <_cla_int_entry_group0_0+0x2>
   28b44:	94 07 c0 05 	movigl gr0 7c00 <$line_table_start0+0xed>
   28b48:	a8 00 14 82 	load32 gr0 gr0 a4 <_cla_int_entry_group0_10+0x4>
   28b4c:	80 00 00 03 	jmpr gr0

00028b50 <_int_entry_group10_5>:
   28b50:	94 00 00 21 	movigh gr0 2 <_cla_int_entry_group0_0+0x2>
   28b54:	94 07 c0 05 	movigl gr0 7c00 <$line_table_start0+0xed>
   28b58:	a8 00 14 a2 	load32 gr0 gr0 a5 <_cla_int_entry_group0_10+0x5>
   28b5c:	80 00 00 03 	jmpr gr0

00028b60 <_int_entry_group10_6>:
   28b60:	94 00 00 21 	movigh gr0 2 <_cla_int_entry_group0_0+0x2>
   28b64:	94 07 c0 05 	movigl gr0 7c00 <$line_table_start0+0xed>
   28b68:	a8 00 14 c2 	load32 gr0 gr0 a6 <_cla_int_entry_group0_10+0x6>
   28b6c:	80 00 00 03 	jmpr gr0

00028b70 <_int_entry_group10_7>:
   28b70:	94 00 00 21 	movigh gr0 2 <_cla_int_entry_group0_0+0x2>
   28b74:	94 07 c0 05 	movigl gr0 7c00 <$line_table_start0+0xed>
   28b78:	a8 00 14 e2 	load32 gr0 gr0 a7 <_cla_int_entry_group0_10+0x7>
   28b7c:	80 00 00 03 	jmpr gr0

00028b80 <_int_entry_group10_8>:
   28b80:	94 00 00 21 	movigh gr0 2 <_cla_int_entry_group0_0+0x2>
   28b84:	94 07 c0 05 	movigl gr0 7c00 <$line_table_start0+0xed>
   28b88:	a8 00 15 02 	load32 gr0 gr0 a8 <_cla_int_entry_group0_10+0x8>
   28b8c:	80 00 00 03 	jmpr gr0

00028b90 <_int_entry_group10_9>:
   28b90:	94 00 00 21 	movigh gr0 2 <_cla_int_entry_group0_0+0x2>
   28b94:	94 07 c0 05 	movigl gr0 7c00 <$line_table_start0+0xed>
   28b98:	a8 00 15 22 	load32 gr0 gr0 a9 <_cla_int_entry_group0_10+0x9>
   28b9c:	80 00 00 03 	jmpr gr0

00028ba0 <_int_entry_group10_10>:
   28ba0:	94 00 00 21 	movigh gr0 2 <_cla_int_entry_group0_0+0x2>
   28ba4:	94 07 c0 05 	movigl gr0 7c00 <$line_table_start0+0xed>
   28ba8:	a8 00 15 42 	load32 gr0 gr0 aa <_cla_int_entry_group0_10+0xa>
   28bac:	80 00 00 03 	jmpr gr0

00028bb0 <_int_entry_group10_11>:
   28bb0:	94 00 00 21 	movigh gr0 2 <_cla_int_entry_group0_0+0x2>
   28bb4:	94 07 c0 05 	movigl gr0 7c00 <$line_table_start0+0xed>
   28bb8:	a8 00 15 62 	load32 gr0 gr0 ab <_cla_int_entry_group0_10+0xb>
   28bbc:	80 00 00 03 	jmpr gr0

00028bc0 <_int_entry_group10_12>:
   28bc0:	94 00 00 21 	movigh gr0 2 <_cla_int_entry_group0_0+0x2>
   28bc4:	94 07 c0 05 	movigl gr0 7c00 <$line_table_start0+0xed>
   28bc8:	a8 00 15 82 	load32 gr0 gr0 ac <_cla_int_entry_group0_10+0xc>
   28bcc:	80 00 00 03 	jmpr gr0

00028bd0 <_int_entry_group10_13>:
   28bd0:	94 00 00 21 	movigh gr0 2 <_cla_int_entry_group0_0+0x2>
   28bd4:	94 07 c0 05 	movigl gr0 7c00 <$line_table_start0+0xed>
   28bd8:	a8 00 15 a2 	load32 gr0 gr0 ad <_cla_int_entry_group0_10+0xd>
   28bdc:	80 00 00 03 	jmpr gr0

00028be0 <_int_entry_group10_14>:
   28be0:	94 00 00 21 	movigh gr0 2 <_cla_int_entry_group0_0+0x2>
   28be4:	94 07 c0 05 	movigl gr0 7c00 <$line_table_start0+0xed>
   28be8:	a8 00 15 c2 	load32 gr0 gr0 ae <_cla_int_entry_group0_10+0xe>
   28bec:	80 00 00 03 	jmpr gr0

00028bf0 <_int_entry_group10_15>:
   28bf0:	94 00 00 21 	movigh gr0 2 <_cla_int_entry_group0_0+0x2>
   28bf4:	94 07 c0 05 	movigl gr0 7c00 <$line_table_start0+0xed>
   28bf8:	a8 00 15 e2 	load32 gr0 gr0 af <_cla_int_entry_group0_10+0xf>
   28bfc:	80 00 00 03 	jmpr gr0

00028c00 <_int_entry_group11_0>:
   28c00:	94 00 00 21 	movigh gr0 2 <_cla_int_entry_group0_0+0x2>
   28c04:	94 07 c0 05 	movigl gr0 7c00 <$line_table_start0+0xed>
   28c08:	a8 00 16 02 	load32 gr0 gr0 b0 <_cla_int_entry_group0_11>
   28c0c:	80 00 00 03 	jmpr gr0

00028c10 <_int_entry_group11_1>:
   28c10:	94 00 00 21 	movigh gr0 2 <_cla_int_entry_group0_0+0x2>
   28c14:	94 07 c0 05 	movigl gr0 7c00 <$line_table_start0+0xed>
   28c18:	a8 00 16 22 	load32 gr0 gr0 b1 <_cla_int_entry_group0_11+0x1>
   28c1c:	80 00 00 03 	jmpr gr0

00028c20 <_int_entry_group11_2>:
   28c20:	94 00 00 21 	movigh gr0 2 <_cla_int_entry_group0_0+0x2>
   28c24:	94 07 c0 05 	movigl gr0 7c00 <$line_table_start0+0xed>
   28c28:	a8 00 16 42 	load32 gr0 gr0 b2 <_cla_int_entry_group0_11+0x2>
   28c2c:	80 00 00 03 	jmpr gr0

00028c30 <_int_entry_group11_3>:
   28c30:	94 00 00 21 	movigh gr0 2 <_cla_int_entry_group0_0+0x2>
   28c34:	94 07 c0 05 	movigl gr0 7c00 <$line_table_start0+0xed>
   28c38:	a8 00 16 62 	load32 gr0 gr0 b3 <_cla_int_entry_group0_11+0x3>
   28c3c:	80 00 00 03 	jmpr gr0

00028c40 <_int_entry_group11_4>:
   28c40:	94 00 00 21 	movigh gr0 2 <_cla_int_entry_group0_0+0x2>
   28c44:	94 07 c0 05 	movigl gr0 7c00 <$line_table_start0+0xed>
   28c48:	a8 00 16 82 	load32 gr0 gr0 b4 <_cla_int_entry_group0_11+0x4>
   28c4c:	80 00 00 03 	jmpr gr0

00028c50 <_int_entry_group11_5>:
   28c50:	94 00 00 21 	movigh gr0 2 <_cla_int_entry_group0_0+0x2>
   28c54:	94 07 c0 05 	movigl gr0 7c00 <$line_table_start0+0xed>
   28c58:	a8 00 16 a2 	load32 gr0 gr0 b5 <_cla_int_entry_group0_11+0x5>
   28c5c:	80 00 00 03 	jmpr gr0

00028c60 <_int_entry_group11_6>:
   28c60:	94 00 00 21 	movigh gr0 2 <_cla_int_entry_group0_0+0x2>
   28c64:	94 07 c0 05 	movigl gr0 7c00 <$line_table_start0+0xed>
   28c68:	a8 00 16 c2 	load32 gr0 gr0 b6 <_cla_int_entry_group0_11+0x6>
   28c6c:	80 00 00 03 	jmpr gr0

00028c70 <_int_entry_group11_7>:
   28c70:	94 00 00 21 	movigh gr0 2 <_cla_int_entry_group0_0+0x2>
   28c74:	94 07 c0 05 	movigl gr0 7c00 <$line_table_start0+0xed>
   28c78:	a8 00 16 e2 	load32 gr0 gr0 b7 <_cla_int_entry_group0_11+0x7>
   28c7c:	80 00 00 03 	jmpr gr0

00028c80 <_int_entry_group11_8>:
   28c80:	94 00 00 21 	movigh gr0 2 <_cla_int_entry_group0_0+0x2>
   28c84:	94 07 c0 05 	movigl gr0 7c00 <$line_table_start0+0xed>
   28c88:	a8 00 17 02 	load32 gr0 gr0 b8 <.L0 >
   28c8c:	80 00 00 03 	jmpr gr0

00028c90 <_int_entry_group11_9>:
   28c90:	94 00 00 21 	movigh gr0 2 <_cla_int_entry_group0_0+0x2>
   28c94:	94 07 c0 05 	movigl gr0 7c00 <$line_table_start0+0xed>
   28c98:	a8 00 17 22 	load32 gr0 gr0 b9 <.L0 +0x1>
   28c9c:	80 00 00 03 	jmpr gr0

00028ca0 <_int_entry_group11_10>:
   28ca0:	94 00 00 21 	movigh gr0 2 <_cla_int_entry_group0_0+0x2>
   28ca4:	94 07 c0 05 	movigl gr0 7c00 <$line_table_start0+0xed>
   28ca8:	a8 00 17 42 	load32 gr0 gr0 ba <.L0 +0x2>
   28cac:	80 00 00 03 	jmpr gr0

00028cb0 <_int_entry_group11_11>:
   28cb0:	94 00 00 21 	movigh gr0 2 <_cla_int_entry_group0_0+0x2>
   28cb4:	94 07 c0 05 	movigl gr0 7c00 <$line_table_start0+0xed>
   28cb8:	a8 00 17 62 	load32 gr0 gr0 bb <.L0 +0x3>
   28cbc:	80 00 00 03 	jmpr gr0

00028cc0 <_int_entry_group11_12>:
   28cc0:	94 00 00 21 	movigh gr0 2 <_cla_int_entry_group0_0+0x2>
   28cc4:	94 07 c0 05 	movigl gr0 7c00 <$line_table_start0+0xed>
   28cc8:	a8 00 17 82 	load32 gr0 gr0 bc <.L0 +0x4>
   28ccc:	80 00 00 03 	jmpr gr0

00028cd0 <_int_entry_group11_13>:
   28cd0:	94 00 00 21 	movigh gr0 2 <_cla_int_entry_group0_0+0x2>
   28cd4:	94 07 c0 05 	movigl gr0 7c00 <$line_table_start0+0xed>
   28cd8:	a8 00 17 a2 	load32 gr0 gr0 bd <.L0 +0x5>
   28cdc:	80 00 00 03 	jmpr gr0

00028ce0 <_int_entry_group11_14>:
   28ce0:	94 00 00 21 	movigh gr0 2 <_cla_int_entry_group0_0+0x2>
   28ce4:	94 07 c0 05 	movigl gr0 7c00 <$line_table_start0+0xed>
   28ce8:	a8 00 17 c2 	load32 gr0 gr0 be <.L0 +0x6>
   28cec:	80 00 00 03 	jmpr gr0

00028cf0 <_int_entry_group11_15>:
   28cf0:	94 00 00 21 	movigh gr0 2 <_cla_int_entry_group0_0+0x2>
   28cf4:	94 07 c0 05 	movigl gr0 7c00 <$line_table_start0+0xed>
   28cf8:	a8 00 17 e2 	load32 gr0 gr0 bf <.L0 +0x7>
   28cfc:	80 00 00 03 	jmpr gr0

00028d00 <_int_entry_group12_0>:
   28d00:	94 00 00 21 	movigh gr0 2 <_cla_int_entry_group0_0+0x2>
   28d04:	94 07 c0 05 	movigl gr0 7c00 <$line_table_start0+0xed>
   28d08:	a8 00 18 02 	load32 gr0 gr0 c0 <_cla_int_entry_group0_12>
   28d0c:	80 00 00 03 	jmpr gr0

00028d10 <_int_entry_group12_1>:
   28d10:	94 00 00 21 	movigh gr0 2 <_cla_int_entry_group0_0+0x2>
   28d14:	94 07 c0 05 	movigl gr0 7c00 <$line_table_start0+0xed>
   28d18:	a8 00 18 22 	load32 gr0 gr0 c1 <_cla_int_entry_group0_12+0x1>
   28d1c:	80 00 00 03 	jmpr gr0

00028d20 <_int_entry_group12_2>:
   28d20:	94 00 00 21 	movigh gr0 2 <_cla_int_entry_group0_0+0x2>
   28d24:	94 07 c0 05 	movigl gr0 7c00 <$line_table_start0+0xed>
   28d28:	a8 00 18 42 	load32 gr0 gr0 c2 <_cla_int_entry_group0_12+0x2>
   28d2c:	80 00 00 03 	jmpr gr0

00028d30 <_int_entry_group12_3>:
   28d30:	94 00 00 21 	movigh gr0 2 <_cla_int_entry_group0_0+0x2>
   28d34:	94 07 c0 05 	movigl gr0 7c00 <$line_table_start0+0xed>
   28d38:	a8 00 18 62 	load32 gr0 gr0 c3 <_cla_int_entry_group0_12+0x3>
   28d3c:	80 00 00 03 	jmpr gr0

00028d40 <_int_entry_group12_4>:
   28d40:	94 00 00 21 	movigh gr0 2 <_cla_int_entry_group0_0+0x2>
   28d44:	94 07 c0 05 	movigl gr0 7c00 <$line_table_start0+0xed>
   28d48:	a8 00 18 82 	load32 gr0 gr0 c4 <_cla_int_entry_group0_12+0x4>
   28d4c:	80 00 00 03 	jmpr gr0

00028d50 <_int_entry_group12_5>:
   28d50:	94 00 00 21 	movigh gr0 2 <_cla_int_entry_group0_0+0x2>
   28d54:	94 07 c0 05 	movigl gr0 7c00 <$line_table_start0+0xed>
   28d58:	a8 00 18 a2 	load32 gr0 gr0 c5 <_cla_int_entry_group0_12+0x5>
   28d5c:	80 00 00 03 	jmpr gr0

00028d60 <_int_entry_group12_6>:
   28d60:	94 00 00 21 	movigh gr0 2 <_cla_int_entry_group0_0+0x2>
   28d64:	94 07 c0 05 	movigl gr0 7c00 <$line_table_start0+0xed>
   28d68:	a8 00 18 c2 	load32 gr0 gr0 c6 <_cla_int_entry_group0_12+0x6>
   28d6c:	80 00 00 03 	jmpr gr0

00028d70 <_int_entry_group12_7>:
   28d70:	94 00 00 21 	movigh gr0 2 <_cla_int_entry_group0_0+0x2>
   28d74:	94 07 c0 05 	movigl gr0 7c00 <$line_table_start0+0xed>
   28d78:	a8 00 18 e2 	load32 gr0 gr0 c7 <_cla_int_entry_group0_12+0x7>
   28d7c:	80 00 00 03 	jmpr gr0

00028d80 <_int_entry_group12_8>:
   28d80:	94 00 00 21 	movigh gr0 2 <_cla_int_entry_group0_0+0x2>
   28d84:	94 07 c0 05 	movigl gr0 7c00 <$line_table_start0+0xed>
   28d88:	a8 00 19 02 	load32 gr0 gr0 c8 <_cla_int_entry_group0_12+0x8>
   28d8c:	80 00 00 03 	jmpr gr0

00028d90 <_int_entry_group12_9>:
   28d90:	94 00 00 21 	movigh gr0 2 <_cla_int_entry_group0_0+0x2>
   28d94:	94 07 c0 05 	movigl gr0 7c00 <$line_table_start0+0xed>
   28d98:	a8 00 19 22 	load32 gr0 gr0 c9 <_cla_int_entry_group0_12+0x9>
   28d9c:	80 00 00 03 	jmpr gr0

00028da0 <_int_entry_group12_10>:
   28da0:	94 00 00 21 	movigh gr0 2 <_cla_int_entry_group0_0+0x2>
   28da4:	94 07 c0 05 	movigl gr0 7c00 <$line_table_start0+0xed>
   28da8:	a8 00 19 42 	load32 gr0 gr0 ca <_cla_int_entry_group0_12+0xa>
   28dac:	80 00 00 03 	jmpr gr0

00028db0 <_int_entry_group12_11>:
   28db0:	94 00 00 21 	movigh gr0 2 <_cla_int_entry_group0_0+0x2>
   28db4:	94 07 c0 05 	movigl gr0 7c00 <$line_table_start0+0xed>
   28db8:	a8 00 19 62 	load32 gr0 gr0 cb <_cla_int_entry_group0_12+0xb>
   28dbc:	80 00 00 03 	jmpr gr0

00028dc0 <_int_entry_group12_12>:
   28dc0:	94 00 00 21 	movigh gr0 2 <_cla_int_entry_group0_0+0x2>
   28dc4:	94 07 c0 05 	movigl gr0 7c00 <$line_table_start0+0xed>
   28dc8:	a8 00 19 82 	load32 gr0 gr0 cc <_cla_int_entry_group0_12+0xc>
   28dcc:	80 00 00 03 	jmpr gr0

00028dd0 <_int_entry_group12_13>:
   28dd0:	94 00 00 21 	movigh gr0 2 <_cla_int_entry_group0_0+0x2>
   28dd4:	94 07 c0 05 	movigl gr0 7c00 <$line_table_start0+0xed>
   28dd8:	a8 00 19 a2 	load32 gr0 gr0 cd <_cla_int_entry_group0_12+0xd>
   28ddc:	80 00 00 03 	jmpr gr0

00028de0 <_int_entry_group12_14>:
   28de0:	94 00 00 21 	movigh gr0 2 <_cla_int_entry_group0_0+0x2>
   28de4:	94 07 c0 05 	movigl gr0 7c00 <$line_table_start0+0xed>
   28de8:	a8 00 19 c2 	load32 gr0 gr0 ce <_cla_int_entry_group0_12+0xe>
   28dec:	80 00 00 03 	jmpr gr0

00028df0 <_int_entry_group12_15>:
   28df0:	94 00 00 21 	movigh gr0 2 <_cla_int_entry_group0_0+0x2>
   28df4:	94 07 c0 05 	movigl gr0 7c00 <$line_table_start0+0xed>
   28df8:	a8 00 19 e2 	load32 gr0 gr0 cf <_cla_int_entry_group0_12+0xf>
   28dfc:	80 00 00 03 	jmpr gr0

00028e00 <_int_entry_group13_0>:
   28e00:	94 00 00 21 	movigh gr0 2 <_cla_int_entry_group0_0+0x2>
   28e04:	94 07 c0 05 	movigl gr0 7c00 <$line_table_start0+0xed>
   28e08:	a8 00 1a 02 	load32 gr0 gr0 d0 <_cla_int_entry_group0_13>
   28e0c:	80 00 00 03 	jmpr gr0

00028e10 <_int_entry_group14_0>:
   28e10:	94 00 00 21 	movigh gr0 2 <_cla_int_entry_group0_0+0x2>
   28e14:	94 07 c0 05 	movigl gr0 7c00 <$line_table_start0+0xed>
   28e18:	a8 00 1c 02 	load32 gr0 gr0 e0 <_cla_int_entry_group0_14>
   28e1c:	80 00 00 03 	jmpr gr0

00028e20 <_int_entry_group15_0>:
   28e20:	94 00 00 21 	movigh gr0 2 <_cla_int_entry_group0_0+0x2>
   28e24:	94 07 c0 05 	movigl gr0 7c00 <$line_table_start0+0xed>
   28e28:	a8 00 1e 02 	load32 gr0 gr0 f0 <_cla_int_entry_group0_15>
   28e2c:	80 00 00 03 	jmpr gr0

00028e30 <_lb_padding_nops>:
   28e30:	80 00 00 00 	nop
   28e34:	80 00 00 00 	nop
   28e38:	80 00 00 00 	nop
   28e3c:	80 00 00 00 	nop

00028e40 <interrupt_defaulthandler>:
   28e40:	83 ff ff e1 	jmp 28e40 <interrupt_defaulthandler>
   28e44:	80 00 00 00 	nop
   28e48:	80 00 00 00 	nop
   28e4c:	80 00 00 00 	nop

00028e50 <claint1ISR>:
    printf("%f\n", cla_f8data);
#endif
}

__interrupt void claint1ISR()
{
   28e50:	ec 17 bd 02 	store32 gr1 gr30 ffffffe8 <Flash0CtrlRegs+0xfef5ffe8>
   28e54:	80 00 00 00 	nop
   28e58:	80 00 00 00 	nop
   28e5c:	80 00 00 00 	nop
   28e60:	80 00 00 00 	nop
   28e64:	80 00 00 00 	nop
   28e68:	80 10 00 0f 	movc2g gr1
   28e6c:	ec 17 bc e2 	store32 gr1 gr30 ffffffe7 <Flash0CtrlRegs+0xfef5ffe7>
   28e70:	99 e7 bc 80 	addi gr30 gr30 ffffff90 <Flash0CtrlRegs+0xfef5ff90>
    cla1_ISR();
   28e74:	ec 07 83 62 	store32 gr0 gr30 1b <_core1_exp_start+0x4>
   28e78:	ec 17 83 42 	store32 gr1 gr30 1a <_core1_exp_start+0x3>
   28e7c:	ec 27 83 22 	store32 gr2 gr30 19 <_core1_exp_start+0x2>
   28e80:	ec 37 83 02 	store32 gr3 gr30 18 <_core1_exp_start+0x1>
   28e84:	ec 47 82 e2 	store32 gr4 gr30 17 <_core1_exp_start>
   28e88:	ec 57 82 c2 	store32 gr5 gr30 16 <_cla_int_entry_group0_1+0x6>
   28e8c:	ec 67 82 a2 	store32 gr6 gr30 15 <_cla_int_entry_group0_1+0x5>
   28e90:	ec 77 82 82 	store32 gr7 gr30 14 <_cla_int_entry_group0_1+0x4>
   28e94:	ec 87 82 62 	store32 gr8 gr30 13 <_cla_int_entry_group0_1+0x3>
   28e98:	ec 97 82 42 	store32 gr9 gr30 12 <_cla_int_entry_group0_1+0x2>
   28e9c:	ec a7 82 22 	store32 gr10 gr30 11 <_cla_int_entry_group0_1+0x1>
   28ea0:	ec b7 82 02 	store32 gr11 gr30 10 <_cla_int_entry_group0_1>
   28ea4:	ec c7 81 e2 	store32 gr12 gr30 f <_core0_exp_start+0xa>
   28ea8:	ec d7 81 c2 	store32 gr13 gr30 e <_core0_exp_start+0x9>
   28eac:	ec e7 81 a2 	store32 gr14 gr30 d <_core0_exp_start+0x8>
   28eb0:	ec f7 81 82 	store32 gr15 gr30 c <_core0_exp_start+0x7>
   28eb4:	ed 87 81 62 	store32 gr24 gr30 b <_core0_exp_start+0x6>
   28eb8:	ed 97 81 42 	store32 gr25 gr30 a <_core0_exp_start+0x5>
   28ebc:	ed c7 81 22 	store32 gr28 gr30 9 <_core0_exp_start+0x4>
   28ec0:	ed f7 81 02 	store32 gr31 gr30 8 <_core0_exp_start+0x3>
   28ec4:	ed e7 80 e2 	store32 gr30 gr30 7 <_core0_exp_start+0x2>
   28ec8:	ed a7 80 c2 	store32 gr26 gr30 6 <_core0_exp_start+0x1>
   28ecc:	ed b7 80 a2 	store32 gr27 gr30 5 <_core0_exp_start>
   28ed0:	80 00 a0 6d 	call 2a2e0 <cla1_ISR>
   28ed4:	80 00 00 00 	nop
   28ed8:	80 00 00 00 	nop
   28edc:	80 00 00 00 	nop
}
   28ee0:	a9 b7 80 a2 	load32 gr27 gr30 5 <_core0_exp_start>
   28ee4:	a9 a7 80 c2 	load32 gr26 gr30 6 <_core0_exp_start+0x1>
   28ee8:	a9 e7 80 e2 	load32 gr30 gr30 7 <_core0_exp_start+0x2>
   28eec:	a9 f7 81 02 	load32 gr31 gr30 8 <_core0_exp_start+0x3>
   28ef0:	a9 c7 81 22 	load32 gr28 gr30 9 <_core0_exp_start+0x4>
   28ef4:	a9 97 81 42 	load32 gr25 gr30 a <_core0_exp_start+0x5>
   28ef8:	a9 87 81 62 	load32 gr24 gr30 b <_core0_exp_start+0x6>
   28efc:	a8 f7 81 82 	load32 gr15 gr30 c <_core0_exp_start+0x7>
   28f00:	a8 e7 81 a2 	load32 gr14 gr30 d <_core0_exp_start+0x8>
   28f04:	a8 d7 81 c2 	load32 gr13 gr30 e <_core0_exp_start+0x9>
   28f08:	a8 c7 81 e2 	load32 gr12 gr30 f <_core0_exp_start+0xa>
   28f0c:	a8 b7 82 02 	load32 gr11 gr30 10 <_cla_int_entry_group0_1>
   28f10:	a8 a7 82 22 	load32 gr10 gr30 11 <_cla_int_entry_group0_1+0x1>
   28f14:	a8 97 82 42 	load32 gr9 gr30 12 <_cla_int_entry_group0_1+0x2>
   28f18:	a8 87 82 62 	load32 gr8 gr30 13 <_cla_int_entry_group0_1+0x3>
   28f1c:	a8 77 82 82 	load32 gr7 gr30 14 <_cla_int_entry_group0_1+0x4>
   28f20:	a8 67 82 a2 	load32 gr6 gr30 15 <_cla_int_entry_group0_1+0x5>
   28f24:	a8 57 82 c2 	load32 gr5 gr30 16 <_cla_int_entry_group0_1+0x6>
   28f28:	a8 47 82 e2 	load32 gr4 gr30 17 <_core1_exp_start>
   28f2c:	a8 37 83 02 	load32 gr3 gr30 18 <_core1_exp_start+0x1>
   28f30:	a8 27 83 22 	load32 gr2 gr30 19 <_core1_exp_start+0x2>
   28f34:	a8 17 83 42 	load32 gr1 gr30 1a <_core1_exp_start+0x3>
   28f38:	a8 07 83 62 	load32 gr0 gr30 1b <_core1_exp_start+0x4>
   28f3c:	99 e7 83 80 	addi gr30 gr30 70 <_cla_int_entry_group0_7>
   28f40:	a8 17 bc e2 	load32 gr1 gr30 ffffffe7 <Flash0CtrlRegs+0xfef5ffe7>
   28f44:	80 00 40 0b 	movg2c gr1
   28f48:	a8 17 bd 02 	load32 gr1 gr30 ffffffe8 <Flash0CtrlRegs+0xfef5ffe8>
   28f4c:	80 00 00 08 	rtt
   28f50:	80 00 00 00 	nop
   28f54:	80 00 00 00 	nop

00028f58 <claint2ISR>:

__interrupt void claint2ISR()
{
   28f58:	ec 17 bd 02 	store32 gr1 gr30 ffffffe8 <Flash0CtrlRegs+0xfef5ffe8>
   28f5c:	80 00 00 00 	nop
   28f60:	80 00 00 00 	nop
   28f64:	80 00 00 00 	nop
   28f68:	80 00 00 00 	nop
   28f6c:	80 00 00 00 	nop
   28f70:	80 10 00 0f 	movc2g gr1
   28f74:	ec 17 bc e2 	store32 gr1 gr30 ffffffe7 <Flash0CtrlRegs+0xfef5ffe7>
   28f78:	99 e7 bc 80 	addi gr30 gr30 ffffff90 <Flash0CtrlRegs+0xfef5ff90>
    cla2_ISR();
   28f7c:	ec 07 83 62 	store32 gr0 gr30 1b <_core1_exp_start+0x4>
   28f80:	ec 17 83 42 	store32 gr1 gr30 1a <_core1_exp_start+0x3>
   28f84:	ec 27 83 22 	store32 gr2 gr30 19 <_core1_exp_start+0x2>
   28f88:	ec 37 83 02 	store32 gr3 gr30 18 <_core1_exp_start+0x1>
   28f8c:	ec 47 82 e2 	store32 gr4 gr30 17 <_core1_exp_start>
   28f90:	ec 57 82 c2 	store32 gr5 gr30 16 <_cla_int_entry_group0_1+0x6>
   28f94:	ec 67 82 a2 	store32 gr6 gr30 15 <_cla_int_entry_group0_1+0x5>
   28f98:	ec 77 82 82 	store32 gr7 gr30 14 <_cla_int_entry_group0_1+0x4>
   28f9c:	ec 87 82 62 	store32 gr8 gr30 13 <_cla_int_entry_group0_1+0x3>
   28fa0:	ec 97 82 42 	store32 gr9 gr30 12 <_cla_int_entry_group0_1+0x2>
   28fa4:	ec a7 82 22 	store32 gr10 gr30 11 <_cla_int_entry_group0_1+0x1>
   28fa8:	ec b7 82 02 	store32 gr11 gr30 10 <_cla_int_entry_group0_1>
   28fac:	ec c7 81 e2 	store32 gr12 gr30 f <_core0_exp_start+0xa>
   28fb0:	ec d7 81 c2 	store32 gr13 gr30 e <_core0_exp_start+0x9>
   28fb4:	ec e7 81 a2 	store32 gr14 gr30 d <_core0_exp_start+0x8>
   28fb8:	ec f7 81 82 	store32 gr15 gr30 c <_core0_exp_start+0x7>
   28fbc:	ed 87 81 62 	store32 gr24 gr30 b <_core0_exp_start+0x6>
   28fc0:	ed 97 81 42 	store32 gr25 gr30 a <_core0_exp_start+0x5>
   28fc4:	ed c7 81 22 	store32 gr28 gr30 9 <_core0_exp_start+0x4>
   28fc8:	ed f7 81 02 	store32 gr31 gr30 8 <_core0_exp_start+0x3>
   28fcc:	ed e7 80 e2 	store32 gr30 gr30 7 <_core0_exp_start+0x2>
   28fd0:	ed a7 80 c2 	store32 gr26 gr30 6 <_core0_exp_start+0x1>
   28fd4:	ed b7 80 a2 	store32 gr27 gr30 5 <_core0_exp_start>
   28fd8:	80 00 9a 2d 	call 2a320 <cla2_ISR>
   28fdc:	80 00 00 00 	nop
   28fe0:	80 00 00 00 	nop
   28fe4:	80 00 00 00 	nop
}
   28fe8:	a9 b7 80 a2 	load32 gr27 gr30 5 <_core0_exp_start>
   28fec:	a9 a7 80 c2 	load32 gr26 gr30 6 <_core0_exp_start+0x1>
   28ff0:	a9 e7 80 e2 	load32 gr30 gr30 7 <_core0_exp_start+0x2>
   28ff4:	a9 f7 81 02 	load32 gr31 gr30 8 <_core0_exp_start+0x3>
   28ff8:	a9 c7 81 22 	load32 gr28 gr30 9 <_core0_exp_start+0x4>
   28ffc:	a9 97 81 42 	load32 gr25 gr30 a <_core0_exp_start+0x5>
   29000:	a9 87 81 62 	load32 gr24 gr30 b <_core0_exp_start+0x6>
   29004:	a8 f7 81 82 	load32 gr15 gr30 c <_core0_exp_start+0x7>
   29008:	a8 e7 81 a2 	load32 gr14 gr30 d <_core0_exp_start+0x8>
   2900c:	a8 d7 81 c2 	load32 gr13 gr30 e <_core0_exp_start+0x9>
   29010:	a8 c7 81 e2 	load32 gr12 gr30 f <_core0_exp_start+0xa>
   29014:	a8 b7 82 02 	load32 gr11 gr30 10 <_cla_int_entry_group0_1>
   29018:	a8 a7 82 22 	load32 gr10 gr30 11 <_cla_int_entry_group0_1+0x1>
   2901c:	a8 97 82 42 	load32 gr9 gr30 12 <_cla_int_entry_group0_1+0x2>
   29020:	a8 87 82 62 	load32 gr8 gr30 13 <_cla_int_entry_group0_1+0x3>
   29024:	a8 77 82 82 	load32 gr7 gr30 14 <_cla_int_entry_group0_1+0x4>
   29028:	a8 67 82 a2 	load32 gr6 gr30 15 <_cla_int_entry_group0_1+0x5>
   2902c:	a8 57 82 c2 	load32 gr5 gr30 16 <_cla_int_entry_group0_1+0x6>
   29030:	a8 47 82 e2 	load32 gr4 gr30 17 <_core1_exp_start>
   29034:	a8 37 83 02 	load32 gr3 gr30 18 <_core1_exp_start+0x1>
   29038:	a8 27 83 22 	load32 gr2 gr30 19 <_core1_exp_start+0x2>
   2903c:	a8 17 83 42 	load32 gr1 gr30 1a <_core1_exp_start+0x3>
   29040:	a8 07 83 62 	load32 gr0 gr30 1b <_core1_exp_start+0x4>
   29044:	99 e7 83 80 	addi gr30 gr30 70 <_cla_int_entry_group0_7>
   29048:	a8 17 bc e2 	load32 gr1 gr30 ffffffe7 <Flash0CtrlRegs+0xfef5ffe7>
   2904c:	80 00 40 0b 	movg2c gr1
   29050:	a8 17 bd 02 	load32 gr1 gr30 ffffffe8 <Flash0CtrlRegs+0xfef5ffe8>
   29054:	80 00 00 08 	rtt
   29058:	80 00 00 00 	nop
   2905c:	80 00 00 00 	nop

00029060 <claint3ISR>:

__interrupt void claint3ISR()
{
   29060:	ec 17 bd 02 	store32 gr1 gr30 ffffffe8 <Flash0CtrlRegs+0xfef5ffe8>
   29064:	80 00 00 00 	nop
   29068:	80 00 00 00 	nop
   2906c:	80 00 00 00 	nop
   29070:	80 00 00 00 	nop
   29074:	80 00 00 00 	nop
   29078:	80 10 00 0f 	movc2g gr1
   2907c:	ec 17 bc e2 	store32 gr1 gr30 ffffffe7 <Flash0CtrlRegs+0xfef5ffe7>
   29080:	99 e7 bc 80 	addi gr30 gr30 ffffff90 <Flash0CtrlRegs+0xfef5ff90>
    cla3_ISR();
   29084:	ec 07 83 62 	store32 gr0 gr30 1b <_core1_exp_start+0x4>
   29088:	ec 17 83 42 	store32 gr1 gr30 1a <_core1_exp_start+0x3>
   2908c:	ec 27 83 22 	store32 gr2 gr30 19 <_core1_exp_start+0x2>
   29090:	ec 37 83 02 	store32 gr3 gr30 18 <_core1_exp_start+0x1>
   29094:	ec 47 82 e2 	store32 gr4 gr30 17 <_core1_exp_start>
   29098:	ec 57 82 c2 	store32 gr5 gr30 16 <_cla_int_entry_group0_1+0x6>
   2909c:	ec 67 82 a2 	store32 gr6 gr30 15 <_cla_int_entry_group0_1+0x5>
   290a0:	ec 77 82 82 	store32 gr7 gr30 14 <_cla_int_entry_group0_1+0x4>
   290a4:	ec 87 82 62 	store32 gr8 gr30 13 <_cla_int_entry_group0_1+0x3>
   290a8:	ec 97 82 42 	store32 gr9 gr30 12 <_cla_int_entry_group0_1+0x2>
   290ac:	ec a7 82 22 	store32 gr10 gr30 11 <_cla_int_entry_group0_1+0x1>
   290b0:	ec b7 82 02 	store32 gr11 gr30 10 <_cla_int_entry_group0_1>
   290b4:	ec c7 81 e2 	store32 gr12 gr30 f <_core0_exp_start+0xa>
   290b8:	ec d7 81 c2 	store32 gr13 gr30 e <_core0_exp_start+0x9>
   290bc:	ec e7 81 a2 	store32 gr14 gr30 d <_core0_exp_start+0x8>
   290c0:	ec f7 81 82 	store32 gr15 gr30 c <_core0_exp_start+0x7>
   290c4:	ed 87 81 62 	store32 gr24 gr30 b <_core0_exp_start+0x6>
   290c8:	ed 97 81 42 	store32 gr25 gr30 a <_core0_exp_start+0x5>
   290cc:	ed c7 81 22 	store32 gr28 gr30 9 <_core0_exp_start+0x4>
   290d0:	ed f7 81 02 	store32 gr31 gr30 8 <_core0_exp_start+0x3>
   290d4:	ed e7 80 e2 	store32 gr30 gr30 7 <_core0_exp_start+0x2>
   290d8:	ed a7 80 c2 	store32 gr26 gr30 6 <_core0_exp_start+0x1>
   290dc:	ed b7 80 a2 	store32 gr27 gr30 5 <_core0_exp_start>
   290e0:	80 00 93 ed 	call 2a360 <cla3_ISR>
   290e4:	80 00 00 00 	nop
   290e8:	80 00 00 00 	nop
   290ec:	80 00 00 00 	nop
}
   290f0:	a9 b7 80 a2 	load32 gr27 gr30 5 <_core0_exp_start>
   290f4:	a9 a7 80 c2 	load32 gr26 gr30 6 <_core0_exp_start+0x1>
   290f8:	a9 e7 80 e2 	load32 gr30 gr30 7 <_core0_exp_start+0x2>
   290fc:	a9 f7 81 02 	load32 gr31 gr30 8 <_core0_exp_start+0x3>
   29100:	a9 c7 81 22 	load32 gr28 gr30 9 <_core0_exp_start+0x4>
   29104:	a9 97 81 42 	load32 gr25 gr30 a <_core0_exp_start+0x5>
   29108:	a9 87 81 62 	load32 gr24 gr30 b <_core0_exp_start+0x6>
   2910c:	a8 f7 81 82 	load32 gr15 gr30 c <_core0_exp_start+0x7>
   29110:	a8 e7 81 a2 	load32 gr14 gr30 d <_core0_exp_start+0x8>
   29114:	a8 d7 81 c2 	load32 gr13 gr30 e <_core0_exp_start+0x9>
   29118:	a8 c7 81 e2 	load32 gr12 gr30 f <_core0_exp_start+0xa>
   2911c:	a8 b7 82 02 	load32 gr11 gr30 10 <_cla_int_entry_group0_1>
   29120:	a8 a7 82 22 	load32 gr10 gr30 11 <_cla_int_entry_group0_1+0x1>
   29124:	a8 97 82 42 	load32 gr9 gr30 12 <_cla_int_entry_group0_1+0x2>
   29128:	a8 87 82 62 	load32 gr8 gr30 13 <_cla_int_entry_group0_1+0x3>
   2912c:	a8 77 82 82 	load32 gr7 gr30 14 <_cla_int_entry_group0_1+0x4>
   29130:	a8 67 82 a2 	load32 gr6 gr30 15 <_cla_int_entry_group0_1+0x5>
   29134:	a8 57 82 c2 	load32 gr5 gr30 16 <_cla_int_entry_group0_1+0x6>
   29138:	a8 47 82 e2 	load32 gr4 gr30 17 <_core1_exp_start>
   2913c:	a8 37 83 02 	load32 gr3 gr30 18 <_core1_exp_start+0x1>
   29140:	a8 27 83 22 	load32 gr2 gr30 19 <_core1_exp_start+0x2>
   29144:	a8 17 83 42 	load32 gr1 gr30 1a <_core1_exp_start+0x3>
   29148:	a8 07 83 62 	load32 gr0 gr30 1b <_core1_exp_start+0x4>
   2914c:	99 e7 83 80 	addi gr30 gr30 70 <_cla_int_entry_group0_7>
   29150:	a8 17 bc e2 	load32 gr1 gr30 ffffffe7 <Flash0CtrlRegs+0xfef5ffe7>
   29154:	80 00 40 0b 	movg2c gr1
   29158:	a8 17 bd 02 	load32 gr1 gr30 ffffffe8 <Flash0CtrlRegs+0xfef5ffe8>
   2915c:	80 00 00 08 	rtt
   29160:	80 00 00 00 	nop
   29164:	80 00 00 00 	nop

00029168 <claint4ISR>:

__interrupt void claint4ISR()
{
   29168:	ec 17 bd 02 	store32 gr1 gr30 ffffffe8 <Flash0CtrlRegs+0xfef5ffe8>
   2916c:	80 00 00 00 	nop
   29170:	80 00 00 00 	nop
   29174:	80 00 00 00 	nop
   29178:	80 00 00 00 	nop
   2917c:	80 00 00 00 	nop
   29180:	80 10 00 0f 	movc2g gr1
   29184:	ec 17 bc e2 	store32 gr1 gr30 ffffffe7 <Flash0CtrlRegs+0xfef5ffe7>
   29188:	99 e7 bc 80 	addi gr30 gr30 ffffff90 <Flash0CtrlRegs+0xfef5ff90>
    cla4_ISR();
   2918c:	ec 07 83 62 	store32 gr0 gr30 1b <_core1_exp_start+0x4>
   29190:	ec 17 83 42 	store32 gr1 gr30 1a <_core1_exp_start+0x3>
   29194:	ec 27 83 22 	store32 gr2 gr30 19 <_core1_exp_start+0x2>
   29198:	ec 37 83 02 	store32 gr3 gr30 18 <_core1_exp_start+0x1>
   2919c:	ec 47 82 e2 	store32 gr4 gr30 17 <_core1_exp_start>
   291a0:	ec 57 82 c2 	store32 gr5 gr30 16 <_cla_int_entry_group0_1+0x6>
   291a4:	ec 67 82 a2 	store32 gr6 gr30 15 <_cla_int_entry_group0_1+0x5>
   291a8:	ec 77 82 82 	store32 gr7 gr30 14 <_cla_int_entry_group0_1+0x4>
   291ac:	ec 87 82 62 	store32 gr8 gr30 13 <_cla_int_entry_group0_1+0x3>
   291b0:	ec 97 82 42 	store32 gr9 gr30 12 <_cla_int_entry_group0_1+0x2>
   291b4:	ec a7 82 22 	store32 gr10 gr30 11 <_cla_int_entry_group0_1+0x1>
   291b8:	ec b7 82 02 	store32 gr11 gr30 10 <_cla_int_entry_group0_1>
   291bc:	ec c7 81 e2 	store32 gr12 gr30 f <_core0_exp_start+0xa>
   291c0:	ec d7 81 c2 	store32 gr13 gr30 e <_core0_exp_start+0x9>
   291c4:	ec e7 81 a2 	store32 gr14 gr30 d <_core0_exp_start+0x8>
   291c8:	ec f7 81 82 	store32 gr15 gr30 c <_core0_exp_start+0x7>
   291cc:	ed 87 81 62 	store32 gr24 gr30 b <_core0_exp_start+0x6>
   291d0:	ed 97 81 42 	store32 gr25 gr30 a <_core0_exp_start+0x5>
   291d4:	ed c7 81 22 	store32 gr28 gr30 9 <_core0_exp_start+0x4>
   291d8:	ed f7 81 02 	store32 gr31 gr30 8 <_core0_exp_start+0x3>
   291dc:	ed e7 80 e2 	store32 gr30 gr30 7 <_core0_exp_start+0x2>
   291e0:	ed a7 80 c2 	store32 gr26 gr30 6 <_core0_exp_start+0x1>
   291e4:	ed b7 80 a2 	store32 gr27 gr30 5 <_core0_exp_start>
   291e8:	80 00 8d ad 	call 2a3a0 <cla4_ISR>
   291ec:	80 00 00 00 	nop
   291f0:	80 00 00 00 	nop
   291f4:	80 00 00 00 	nop
}
   291f8:	a9 b7 80 a2 	load32 gr27 gr30 5 <_core0_exp_start>
   291fc:	a9 a7 80 c2 	load32 gr26 gr30 6 <_core0_exp_start+0x1>
   29200:	a9 e7 80 e2 	load32 gr30 gr30 7 <_core0_exp_start+0x2>
   29204:	a9 f7 81 02 	load32 gr31 gr30 8 <_core0_exp_start+0x3>
   29208:	a9 c7 81 22 	load32 gr28 gr30 9 <_core0_exp_start+0x4>
   2920c:	a9 97 81 42 	load32 gr25 gr30 a <_core0_exp_start+0x5>
   29210:	a9 87 81 62 	load32 gr24 gr30 b <_core0_exp_start+0x6>
   29214:	a8 f7 81 82 	load32 gr15 gr30 c <_core0_exp_start+0x7>
   29218:	a8 e7 81 a2 	load32 gr14 gr30 d <_core0_exp_start+0x8>
   2921c:	a8 d7 81 c2 	load32 gr13 gr30 e <_core0_exp_start+0x9>
   29220:	a8 c7 81 e2 	load32 gr12 gr30 f <_core0_exp_start+0xa>
   29224:	a8 b7 82 02 	load32 gr11 gr30 10 <_cla_int_entry_group0_1>
   29228:	a8 a7 82 22 	load32 gr10 gr30 11 <_cla_int_entry_group0_1+0x1>
   2922c:	a8 97 82 42 	load32 gr9 gr30 12 <_cla_int_entry_group0_1+0x2>
   29230:	a8 87 82 62 	load32 gr8 gr30 13 <_cla_int_entry_group0_1+0x3>
   29234:	a8 77 82 82 	load32 gr7 gr30 14 <_cla_int_entry_group0_1+0x4>
   29238:	a8 67 82 a2 	load32 gr6 gr30 15 <_cla_int_entry_group0_1+0x5>
   2923c:	a8 57 82 c2 	load32 gr5 gr30 16 <_cla_int_entry_group0_1+0x6>
   29240:	a8 47 82 e2 	load32 gr4 gr30 17 <_core1_exp_start>
   29244:	a8 37 83 02 	load32 gr3 gr30 18 <_core1_exp_start+0x1>
   29248:	a8 27 83 22 	load32 gr2 gr30 19 <_core1_exp_start+0x2>
   2924c:	a8 17 83 42 	load32 gr1 gr30 1a <_core1_exp_start+0x3>
   29250:	a8 07 83 62 	load32 gr0 gr30 1b <_core1_exp_start+0x4>
   29254:	99 e7 83 80 	addi gr30 gr30 70 <_cla_int_entry_group0_7>
   29258:	a8 17 bc e2 	load32 gr1 gr30 ffffffe7 <Flash0CtrlRegs+0xfef5ffe7>
   2925c:	80 00 40 0b 	movg2c gr1
   29260:	a8 17 bd 02 	load32 gr1 gr30 ffffffe8 <Flash0CtrlRegs+0xfef5ffe8>
   29264:	80 00 00 08 	rtt
   29268:	80 00 00 00 	nop
   2926c:	80 00 00 00 	nop

00029270 <claint5ISR>:

__interrupt void claint5ISR()
{
   29270:	ec 17 bd 02 	store32 gr1 gr30 ffffffe8 <Flash0CtrlRegs+0xfef5ffe8>
   29274:	80 00 00 00 	nop
   29278:	80 00 00 00 	nop
   2927c:	80 00 00 00 	nop
   29280:	80 00 00 00 	nop
   29284:	80 00 00 00 	nop
   29288:	80 10 00 0f 	movc2g gr1
   2928c:	ec 17 bc e2 	store32 gr1 gr30 ffffffe7 <Flash0CtrlRegs+0xfef5ffe7>
   29290:	99 e7 bc 80 	addi gr30 gr30 ffffff90 <Flash0CtrlRegs+0xfef5ff90>
    cla5_ISR();
   29294:	ec 07 83 62 	store32 gr0 gr30 1b <_core1_exp_start+0x4>
   29298:	ec 17 83 42 	store32 gr1 gr30 1a <_core1_exp_start+0x3>
   2929c:	ec 27 83 22 	store32 gr2 gr30 19 <_core1_exp_start+0x2>
   292a0:	ec 37 83 02 	store32 gr3 gr30 18 <_core1_exp_start+0x1>
   292a4:	ec 47 82 e2 	store32 gr4 gr30 17 <_core1_exp_start>
   292a8:	ec 57 82 c2 	store32 gr5 gr30 16 <_cla_int_entry_group0_1+0x6>
   292ac:	ec 67 82 a2 	store32 gr6 gr30 15 <_cla_int_entry_group0_1+0x5>
   292b0:	ec 77 82 82 	store32 gr7 gr30 14 <_cla_int_entry_group0_1+0x4>
   292b4:	ec 87 82 62 	store32 gr8 gr30 13 <_cla_int_entry_group0_1+0x3>
   292b8:	ec 97 82 42 	store32 gr9 gr30 12 <_cla_int_entry_group0_1+0x2>
   292bc:	ec a7 82 22 	store32 gr10 gr30 11 <_cla_int_entry_group0_1+0x1>
   292c0:	ec b7 82 02 	store32 gr11 gr30 10 <_cla_int_entry_group0_1>
   292c4:	ec c7 81 e2 	store32 gr12 gr30 f <_core0_exp_start+0xa>
   292c8:	ec d7 81 c2 	store32 gr13 gr30 e <_core0_exp_start+0x9>
   292cc:	ec e7 81 a2 	store32 gr14 gr30 d <_core0_exp_start+0x8>
   292d0:	ec f7 81 82 	store32 gr15 gr30 c <_core0_exp_start+0x7>
   292d4:	ed 87 81 62 	store32 gr24 gr30 b <_core0_exp_start+0x6>
   292d8:	ed 97 81 42 	store32 gr25 gr30 a <_core0_exp_start+0x5>
   292dc:	ed c7 81 22 	store32 gr28 gr30 9 <_core0_exp_start+0x4>
   292e0:	ed f7 81 02 	store32 gr31 gr30 8 <_core0_exp_start+0x3>
   292e4:	ed e7 80 e2 	store32 gr30 gr30 7 <_core0_exp_start+0x2>
   292e8:	ed a7 80 c2 	store32 gr26 gr30 6 <_core0_exp_start+0x1>
   292ec:	ed b7 80 a2 	store32 gr27 gr30 5 <_core0_exp_start>
   292f0:	80 00 88 2d 	call 2a3f8 <cla5_ISR>
   292f4:	80 00 00 00 	nop
   292f8:	80 00 00 00 	nop
   292fc:	80 00 00 00 	nop
}
   29300:	a9 b7 80 a2 	load32 gr27 gr30 5 <_core0_exp_start>
   29304:	a9 a7 80 c2 	load32 gr26 gr30 6 <_core0_exp_start+0x1>
   29308:	a9 e7 80 e2 	load32 gr30 gr30 7 <_core0_exp_start+0x2>
   2930c:	a9 f7 81 02 	load32 gr31 gr30 8 <_core0_exp_start+0x3>
   29310:	a9 c7 81 22 	load32 gr28 gr30 9 <_core0_exp_start+0x4>
   29314:	a9 97 81 42 	load32 gr25 gr30 a <_core0_exp_start+0x5>
   29318:	a9 87 81 62 	load32 gr24 gr30 b <_core0_exp_start+0x6>
   2931c:	a8 f7 81 82 	load32 gr15 gr30 c <_core0_exp_start+0x7>
   29320:	a8 e7 81 a2 	load32 gr14 gr30 d <_core0_exp_start+0x8>
   29324:	a8 d7 81 c2 	load32 gr13 gr30 e <_core0_exp_start+0x9>
   29328:	a8 c7 81 e2 	load32 gr12 gr30 f <_core0_exp_start+0xa>
   2932c:	a8 b7 82 02 	load32 gr11 gr30 10 <_cla_int_entry_group0_1>
   29330:	a8 a7 82 22 	load32 gr10 gr30 11 <_cla_int_entry_group0_1+0x1>
   29334:	a8 97 82 42 	load32 gr9 gr30 12 <_cla_int_entry_group0_1+0x2>
   29338:	a8 87 82 62 	load32 gr8 gr30 13 <_cla_int_entry_group0_1+0x3>
   2933c:	a8 77 82 82 	load32 gr7 gr30 14 <_cla_int_entry_group0_1+0x4>
   29340:	a8 67 82 a2 	load32 gr6 gr30 15 <_cla_int_entry_group0_1+0x5>
   29344:	a8 57 82 c2 	load32 gr5 gr30 16 <_cla_int_entry_group0_1+0x6>
   29348:	a8 47 82 e2 	load32 gr4 gr30 17 <_core1_exp_start>
   2934c:	a8 37 83 02 	load32 gr3 gr30 18 <_core1_exp_start+0x1>
   29350:	a8 27 83 22 	load32 gr2 gr30 19 <_core1_exp_start+0x2>
   29354:	a8 17 83 42 	load32 gr1 gr30 1a <_core1_exp_start+0x3>
   29358:	a8 07 83 62 	load32 gr0 gr30 1b <_core1_exp_start+0x4>
   2935c:	99 e7 83 80 	addi gr30 gr30 70 <_cla_int_entry_group0_7>
   29360:	a8 17 bc e2 	load32 gr1 gr30 ffffffe7 <Flash0CtrlRegs+0xfef5ffe7>
   29364:	80 00 40 0b 	movg2c gr1
   29368:	a8 17 bd 02 	load32 gr1 gr30 ffffffe8 <Flash0CtrlRegs+0xfef5ffe8>
   2936c:	80 00 00 08 	rtt
   29370:	80 00 00 00 	nop
   29374:	80 00 00 00 	nop

00029378 <claint6ISR>:

__interrupt void claint6ISR()
{
   29378:	ec 17 bd 02 	store32 gr1 gr30 ffffffe8 <Flash0CtrlRegs+0xfef5ffe8>
   2937c:	80 00 00 00 	nop
   29380:	80 00 00 00 	nop
   29384:	80 00 00 00 	nop
   29388:	80 00 00 00 	nop
   2938c:	80 00 00 00 	nop
   29390:	80 10 00 0f 	movc2g gr1
   29394:	ec 17 bc e2 	store32 gr1 gr30 ffffffe7 <Flash0CtrlRegs+0xfef5ffe7>
   29398:	99 e7 bc 80 	addi gr30 gr30 ffffff90 <Flash0CtrlRegs+0xfef5ff90>
    cla6_ISR();
   2939c:	ec 07 83 62 	store32 gr0 gr30 1b <_core1_exp_start+0x4>
   293a0:	ec 17 83 42 	store32 gr1 gr30 1a <_core1_exp_start+0x3>
   293a4:	ec 27 83 22 	store32 gr2 gr30 19 <_core1_exp_start+0x2>
   293a8:	ec 37 83 02 	store32 gr3 gr30 18 <_core1_exp_start+0x1>
   293ac:	ec 47 82 e2 	store32 gr4 gr30 17 <_core1_exp_start>
   293b0:	ec 57 82 c2 	store32 gr5 gr30 16 <_cla_int_entry_group0_1+0x6>
   293b4:	ec 67 82 a2 	store32 gr6 gr30 15 <_cla_int_entry_group0_1+0x5>
   293b8:	ec 77 82 82 	store32 gr7 gr30 14 <_cla_int_entry_group0_1+0x4>
   293bc:	ec 87 82 62 	store32 gr8 gr30 13 <_cla_int_entry_group0_1+0x3>
   293c0:	ec 97 82 42 	store32 gr9 gr30 12 <_cla_int_entry_group0_1+0x2>
   293c4:	ec a7 82 22 	store32 gr10 gr30 11 <_cla_int_entry_group0_1+0x1>
   293c8:	ec b7 82 02 	store32 gr11 gr30 10 <_cla_int_entry_group0_1>
   293cc:	ec c7 81 e2 	store32 gr12 gr30 f <_core0_exp_start+0xa>
   293d0:	ec d7 81 c2 	store32 gr13 gr30 e <_core0_exp_start+0x9>
   293d4:	ec e7 81 a2 	store32 gr14 gr30 d <_core0_exp_start+0x8>
   293d8:	ec f7 81 82 	store32 gr15 gr30 c <_core0_exp_start+0x7>
   293dc:	ed 87 81 62 	store32 gr24 gr30 b <_core0_exp_start+0x6>
   293e0:	ed 97 81 42 	store32 gr25 gr30 a <_core0_exp_start+0x5>
   293e4:	ed c7 81 22 	store32 gr28 gr30 9 <_core0_exp_start+0x4>
   293e8:	ed f7 81 02 	store32 gr31 gr30 8 <_core0_exp_start+0x3>
   293ec:	ed e7 80 e2 	store32 gr30 gr30 7 <_core0_exp_start+0x2>
   293f0:	ed a7 80 c2 	store32 gr26 gr30 6 <_core0_exp_start+0x1>
   293f4:	ed b7 80 a2 	store32 gr27 gr30 5 <_core0_exp_start>
   293f8:	80 00 81 ed 	call 2a438 <cla6_ISR>
   293fc:	80 00 00 00 	nop
   29400:	80 00 00 00 	nop
   29404:	80 00 00 00 	nop
}
   29408:	a9 b7 80 a2 	load32 gr27 gr30 5 <_core0_exp_start>
   2940c:	a9 a7 80 c2 	load32 gr26 gr30 6 <_core0_exp_start+0x1>
   29410:	a9 e7 80 e2 	load32 gr30 gr30 7 <_core0_exp_start+0x2>
   29414:	a9 f7 81 02 	load32 gr31 gr30 8 <_core0_exp_start+0x3>
   29418:	a9 c7 81 22 	load32 gr28 gr30 9 <_core0_exp_start+0x4>
   2941c:	a9 97 81 42 	load32 gr25 gr30 a <_core0_exp_start+0x5>
   29420:	a9 87 81 62 	load32 gr24 gr30 b <_core0_exp_start+0x6>
   29424:	a8 f7 81 82 	load32 gr15 gr30 c <_core0_exp_start+0x7>
   29428:	a8 e7 81 a2 	load32 gr14 gr30 d <_core0_exp_start+0x8>
   2942c:	a8 d7 81 c2 	load32 gr13 gr30 e <_core0_exp_start+0x9>
   29430:	a8 c7 81 e2 	load32 gr12 gr30 f <_core0_exp_start+0xa>
   29434:	a8 b7 82 02 	load32 gr11 gr30 10 <_cla_int_entry_group0_1>
   29438:	a8 a7 82 22 	load32 gr10 gr30 11 <_cla_int_entry_group0_1+0x1>
   2943c:	a8 97 82 42 	load32 gr9 gr30 12 <_cla_int_entry_group0_1+0x2>
   29440:	a8 87 82 62 	load32 gr8 gr30 13 <_cla_int_entry_group0_1+0x3>
   29444:	a8 77 82 82 	load32 gr7 gr30 14 <_cla_int_entry_group0_1+0x4>
   29448:	a8 67 82 a2 	load32 gr6 gr30 15 <_cla_int_entry_group0_1+0x5>
   2944c:	a8 57 82 c2 	load32 gr5 gr30 16 <_cla_int_entry_group0_1+0x6>
   29450:	a8 47 82 e2 	load32 gr4 gr30 17 <_core1_exp_start>
   29454:	a8 37 83 02 	load32 gr3 gr30 18 <_core1_exp_start+0x1>
   29458:	a8 27 83 22 	load32 gr2 gr30 19 <_core1_exp_start+0x2>
   2945c:	a8 17 83 42 	load32 gr1 gr30 1a <_core1_exp_start+0x3>
   29460:	a8 07 83 62 	load32 gr0 gr30 1b <_core1_exp_start+0x4>
   29464:	99 e7 83 80 	addi gr30 gr30 70 <_cla_int_entry_group0_7>
   29468:	a8 17 bc e2 	load32 gr1 gr30 ffffffe7 <Flash0CtrlRegs+0xfef5ffe7>
   2946c:	80 00 40 0b 	movg2c gr1
   29470:	a8 17 bd 02 	load32 gr1 gr30 ffffffe8 <Flash0CtrlRegs+0xfef5ffe8>
   29474:	80 00 00 08 	rtt
   29478:	80 00 00 00 	nop
   2947c:	80 00 00 00 	nop

00029480 <claint7ISR>:

__interrupt void claint7ISR()
{
   29480:	ec 17 bd 02 	store32 gr1 gr30 ffffffe8 <Flash0CtrlRegs+0xfef5ffe8>
   29484:	80 00 00 00 	nop
   29488:	80 00 00 00 	nop
   2948c:	80 00 00 00 	nop
   29490:	80 00 00 00 	nop
   29494:	80 00 00 00 	nop
   29498:	80 10 00 0f 	movc2g gr1
   2949c:	ec 17 bc e2 	store32 gr1 gr30 ffffffe7 <Flash0CtrlRegs+0xfef5ffe7>
   294a0:	99 e7 bc 80 	addi gr30 gr30 ffffff90 <Flash0CtrlRegs+0xfef5ff90>
    cla7_ISR();
   294a4:	ec 07 83 62 	store32 gr0 gr30 1b <_core1_exp_start+0x4>
   294a8:	ec 17 83 42 	store32 gr1 gr30 1a <_core1_exp_start+0x3>
   294ac:	ec 27 83 22 	store32 gr2 gr30 19 <_core1_exp_start+0x2>
   294b0:	ec 37 83 02 	store32 gr3 gr30 18 <_core1_exp_start+0x1>
   294b4:	ec 47 82 e2 	store32 gr4 gr30 17 <_core1_exp_start>
   294b8:	ec 57 82 c2 	store32 gr5 gr30 16 <_cla_int_entry_group0_1+0x6>
   294bc:	ec 67 82 a2 	store32 gr6 gr30 15 <_cla_int_entry_group0_1+0x5>
   294c0:	ec 77 82 82 	store32 gr7 gr30 14 <_cla_int_entry_group0_1+0x4>
   294c4:	ec 87 82 62 	store32 gr8 gr30 13 <_cla_int_entry_group0_1+0x3>
   294c8:	ec 97 82 42 	store32 gr9 gr30 12 <_cla_int_entry_group0_1+0x2>
   294cc:	ec a7 82 22 	store32 gr10 gr30 11 <_cla_int_entry_group0_1+0x1>
   294d0:	ec b7 82 02 	store32 gr11 gr30 10 <_cla_int_entry_group0_1>
   294d4:	ec c7 81 e2 	store32 gr12 gr30 f <_core0_exp_start+0xa>
   294d8:	ec d7 81 c2 	store32 gr13 gr30 e <_core0_exp_start+0x9>
   294dc:	ec e7 81 a2 	store32 gr14 gr30 d <_core0_exp_start+0x8>
   294e0:	ec f7 81 82 	store32 gr15 gr30 c <_core0_exp_start+0x7>
   294e4:	ed 87 81 62 	store32 gr24 gr30 b <_core0_exp_start+0x6>
   294e8:	ed 97 81 42 	store32 gr25 gr30 a <_core0_exp_start+0x5>
   294ec:	ed c7 81 22 	store32 gr28 gr30 9 <_core0_exp_start+0x4>
   294f0:	ed f7 81 02 	store32 gr31 gr30 8 <_core0_exp_start+0x3>
   294f4:	ed e7 80 e2 	store32 gr30 gr30 7 <_core0_exp_start+0x2>
   294f8:	ed a7 80 c2 	store32 gr26 gr30 6 <_core0_exp_start+0x1>
   294fc:	ed b7 80 a2 	store32 gr27 gr30 5 <_core0_exp_start>
   29500:	80 00 7b ad 	call 2a478 <cla7_ISR>
   29504:	80 00 00 00 	nop
   29508:	80 00 00 00 	nop
   2950c:	80 00 00 00 	nop
}
   29510:	a9 b7 80 a2 	load32 gr27 gr30 5 <_core0_exp_start>
   29514:	a9 a7 80 c2 	load32 gr26 gr30 6 <_core0_exp_start+0x1>
   29518:	a9 e7 80 e2 	load32 gr30 gr30 7 <_core0_exp_start+0x2>
   2951c:	a9 f7 81 02 	load32 gr31 gr30 8 <_core0_exp_start+0x3>
   29520:	a9 c7 81 22 	load32 gr28 gr30 9 <_core0_exp_start+0x4>
   29524:	a9 97 81 42 	load32 gr25 gr30 a <_core0_exp_start+0x5>
   29528:	a9 87 81 62 	load32 gr24 gr30 b <_core0_exp_start+0x6>
   2952c:	a8 f7 81 82 	load32 gr15 gr30 c <_core0_exp_start+0x7>
   29530:	a8 e7 81 a2 	load32 gr14 gr30 d <_core0_exp_start+0x8>
   29534:	a8 d7 81 c2 	load32 gr13 gr30 e <_core0_exp_start+0x9>
   29538:	a8 c7 81 e2 	load32 gr12 gr30 f <_core0_exp_start+0xa>
   2953c:	a8 b7 82 02 	load32 gr11 gr30 10 <_cla_int_entry_group0_1>
   29540:	a8 a7 82 22 	load32 gr10 gr30 11 <_cla_int_entry_group0_1+0x1>
   29544:	a8 97 82 42 	load32 gr9 gr30 12 <_cla_int_entry_group0_1+0x2>
   29548:	a8 87 82 62 	load32 gr8 gr30 13 <_cla_int_entry_group0_1+0x3>
   2954c:	a8 77 82 82 	load32 gr7 gr30 14 <_cla_int_entry_group0_1+0x4>
   29550:	a8 67 82 a2 	load32 gr6 gr30 15 <_cla_int_entry_group0_1+0x5>
   29554:	a8 57 82 c2 	load32 gr5 gr30 16 <_cla_int_entry_group0_1+0x6>
   29558:	a8 47 82 e2 	load32 gr4 gr30 17 <_core1_exp_start>
   2955c:	a8 37 83 02 	load32 gr3 gr30 18 <_core1_exp_start+0x1>
   29560:	a8 27 83 22 	load32 gr2 gr30 19 <_core1_exp_start+0x2>
   29564:	a8 17 83 42 	load32 gr1 gr30 1a <_core1_exp_start+0x3>
   29568:	a8 07 83 62 	load32 gr0 gr30 1b <_core1_exp_start+0x4>
   2956c:	99 e7 83 80 	addi gr30 gr30 70 <_cla_int_entry_group0_7>
   29570:	a8 17 bc e2 	load32 gr1 gr30 ffffffe7 <Flash0CtrlRegs+0xfef5ffe7>
   29574:	80 00 40 0b 	movg2c gr1
   29578:	a8 17 bd 02 	load32 gr1 gr30 ffffffe8 <Flash0CtrlRegs+0xfef5ffe8>
   2957c:	80 00 00 08 	rtt
   29580:	80 00 00 00 	nop
   29584:	80 00 00 00 	nop

00029588 <claint8ISR>:

__interrupt void claint8ISR()
{
   29588:	ec 17 bd 02 	store32 gr1 gr30 ffffffe8 <Flash0CtrlRegs+0xfef5ffe8>
   2958c:	80 00 00 00 	nop
   29590:	80 00 00 00 	nop
   29594:	80 00 00 00 	nop
   29598:	80 00 00 00 	nop
   2959c:	80 00 00 00 	nop
   295a0:	80 10 00 0f 	movc2g gr1
   295a4:	ec 17 bc e2 	store32 gr1 gr30 ffffffe7 <Flash0CtrlRegs+0xfef5ffe7>
   295a8:	99 e7 bc 80 	addi gr30 gr30 ffffff90 <Flash0CtrlRegs+0xfef5ff90>
    cla8_ISR();
   295ac:	ec 07 83 62 	store32 gr0 gr30 1b <_core1_exp_start+0x4>
   295b0:	ec 17 83 42 	store32 gr1 gr30 1a <_core1_exp_start+0x3>
   295b4:	ec 27 83 22 	store32 gr2 gr30 19 <_core1_exp_start+0x2>
   295b8:	ec 37 83 02 	store32 gr3 gr30 18 <_core1_exp_start+0x1>
   295bc:	ec 47 82 e2 	store32 gr4 gr30 17 <_core1_exp_start>
   295c0:	ec 57 82 c2 	store32 gr5 gr30 16 <_cla_int_entry_group0_1+0x6>
   295c4:	ec 67 82 a2 	store32 gr6 gr30 15 <_cla_int_entry_group0_1+0x5>
   295c8:	ec 77 82 82 	store32 gr7 gr30 14 <_cla_int_entry_group0_1+0x4>
   295cc:	ec 87 82 62 	store32 gr8 gr30 13 <_cla_int_entry_group0_1+0x3>
   295d0:	ec 97 82 42 	store32 gr9 gr30 12 <_cla_int_entry_group0_1+0x2>
   295d4:	ec a7 82 22 	store32 gr10 gr30 11 <_cla_int_entry_group0_1+0x1>
   295d8:	ec b7 82 02 	store32 gr11 gr30 10 <_cla_int_entry_group0_1>
   295dc:	ec c7 81 e2 	store32 gr12 gr30 f <_core0_exp_start+0xa>
   295e0:	ec d7 81 c2 	store32 gr13 gr30 e <_core0_exp_start+0x9>
   295e4:	ec e7 81 a2 	store32 gr14 gr30 d <_core0_exp_start+0x8>
   295e8:	ec f7 81 82 	store32 gr15 gr30 c <_core0_exp_start+0x7>
   295ec:	ed 87 81 62 	store32 gr24 gr30 b <_core0_exp_start+0x6>
   295f0:	ed 97 81 42 	store32 gr25 gr30 a <_core0_exp_start+0x5>
   295f4:	ed c7 81 22 	store32 gr28 gr30 9 <_core0_exp_start+0x4>
   295f8:	ed f7 81 02 	store32 gr31 gr30 8 <_core0_exp_start+0x3>
   295fc:	ed e7 80 e2 	store32 gr30 gr30 7 <_core0_exp_start+0x2>
   29600:	ed a7 80 c2 	store32 gr26 gr30 6 <_core0_exp_start+0x1>
   29604:	ed b7 80 a2 	store32 gr27 gr30 5 <_core0_exp_start>
   29608:	80 00 75 6d 	call 2a4b8 <cla8_ISR>
   2960c:	80 00 00 00 	nop
   29610:	80 00 00 00 	nop
   29614:	80 00 00 00 	nop
}
   29618:	a9 b7 80 a2 	load32 gr27 gr30 5 <_core0_exp_start>
   2961c:	a9 a7 80 c2 	load32 gr26 gr30 6 <_core0_exp_start+0x1>
   29620:	a9 e7 80 e2 	load32 gr30 gr30 7 <_core0_exp_start+0x2>
   29624:	a9 f7 81 02 	load32 gr31 gr30 8 <_core0_exp_start+0x3>
   29628:	a9 c7 81 22 	load32 gr28 gr30 9 <_core0_exp_start+0x4>
   2962c:	a9 97 81 42 	load32 gr25 gr30 a <_core0_exp_start+0x5>
   29630:	a9 87 81 62 	load32 gr24 gr30 b <_core0_exp_start+0x6>
   29634:	a8 f7 81 82 	load32 gr15 gr30 c <_core0_exp_start+0x7>
   29638:	a8 e7 81 a2 	load32 gr14 gr30 d <_core0_exp_start+0x8>
   2963c:	a8 d7 81 c2 	load32 gr13 gr30 e <_core0_exp_start+0x9>
   29640:	a8 c7 81 e2 	load32 gr12 gr30 f <_core0_exp_start+0xa>
   29644:	a8 b7 82 02 	load32 gr11 gr30 10 <_cla_int_entry_group0_1>
   29648:	a8 a7 82 22 	load32 gr10 gr30 11 <_cla_int_entry_group0_1+0x1>
   2964c:	a8 97 82 42 	load32 gr9 gr30 12 <_cla_int_entry_group0_1+0x2>
   29650:	a8 87 82 62 	load32 gr8 gr30 13 <_cla_int_entry_group0_1+0x3>
   29654:	a8 77 82 82 	load32 gr7 gr30 14 <_cla_int_entry_group0_1+0x4>
   29658:	a8 67 82 a2 	load32 gr6 gr30 15 <_cla_int_entry_group0_1+0x5>
   2965c:	a8 57 82 c2 	load32 gr5 gr30 16 <_cla_int_entry_group0_1+0x6>
   29660:	a8 47 82 e2 	load32 gr4 gr30 17 <_core1_exp_start>
   29664:	a8 37 83 02 	load32 gr3 gr30 18 <_core1_exp_start+0x1>
   29668:	a8 27 83 22 	load32 gr2 gr30 19 <_core1_exp_start+0x2>
   2966c:	a8 17 83 42 	load32 gr1 gr30 1a <_core1_exp_start+0x3>
   29670:	a8 07 83 62 	load32 gr0 gr30 1b <_core1_exp_start+0x4>
   29674:	99 e7 83 80 	addi gr30 gr30 70 <_cla_int_entry_group0_7>
   29678:	a8 17 bc e2 	load32 gr1 gr30 ffffffe7 <Flash0CtrlRegs+0xfef5ffe7>
   2967c:	80 00 40 0b 	movg2c gr1
   29680:	a8 17 bd 02 	load32 gr1 gr30 ffffffe8 <Flash0CtrlRegs+0xfef5ffe8>
   29684:	80 00 00 08 	rtt
   29688:	80 00 00 00 	nop
   2968c:	80 00 00 00 	nop

00029690 <Interrupt_defaultHandler>:
//!
//! \return None.
//
//*****************************************************************************
__interrupt void Interrupt_defaultHandler(void)
{
   29690:	ec 17 bf e2 	store32 gr1 gr30 ffffffff <Flash0CtrlRegs+0xfef5ffff>
   29694:	80 00 00 00 	nop
   29698:	80 00 00 00 	nop
   2969c:	80 00 00 00 	nop
   296a0:	80 00 00 00 	nop
   296a4:	80 00 00 00 	nop
   296a8:	80 10 00 0f 	movc2g gr1
   296ac:	ec 17 bf c2 	store32 gr1 gr30 fffffffe <Flash0CtrlRegs+0xfef5fffe>
   296b0:	99 e7 bf c0 	addi gr30 gr30 fffffff8 <Flash0CtrlRegs+0xfef5fff8>
    // Something has gone wrong. An interrupt without a proper registered
    // handler function has occurred. To help you debug the issue, local
    // variable vectID contains the vector ID of the interrupt that occurred.
    //
    ESTOP0;
    for (;;)
   296b4:	83 ff ff e1 	jmp 296b4 <Interrupt_defaultHandler+0x24>
   296b8:	80 00 00 00 	nop
   296bc:	80 00 00 00 	nop

000296c0 <Interrupt_illegalOperationHandler>:
//!
//! \return None.
//
//*****************************************************************************
__interrupt void Interrupt_illegalOperationHandler(void)
{
   296c0:	ec 17 bf e2 	store32 gr1 gr30 ffffffff <Flash0CtrlRegs+0xfef5ffff>
   296c4:	80 00 00 00 	nop
   296c8:	80 00 00 00 	nop
   296cc:	80 00 00 00 	nop
   296d0:	80 00 00 00 	nop
   296d4:	80 00 00 00 	nop
   296d8:	80 10 00 0f 	movc2g gr1
   296dc:	ec 17 bf c2 	store32 gr1 gr30 fffffffe <Flash0CtrlRegs+0xfef5fffe>
   296e0:	99 e7 bf c0 	addi gr30 gr30 fffffff8 <Flash0CtrlRegs+0xfef5fff8>
    //
    // Something has gone wrong.  The CPU has tried to execute an illegal
    // instruction, generating an illegal instruction trap (ITRAP).
    //
    ESTOP0;
    for (;;)
   296e4:	83 ff ff e1 	jmp 296e4 <Interrupt_illegalOperationHandler+0x24>
   296e8:	80 00 00 00 	nop
   296ec:	80 00 00 00 	nop

000296f0 <Interrupt_nmiHandler>:
//!
//! \return None.
//
//*****************************************************************************
__interrupt void Interrupt_nmiHandler(void)
{
   296f0:	ec 17 bf e2 	store32 gr1 gr30 ffffffff <Flash0CtrlRegs+0xfef5ffff>
   296f4:	80 00 00 00 	nop
   296f8:	80 00 00 00 	nop
   296fc:	80 00 00 00 	nop
   29700:	80 00 00 00 	nop
   29704:	80 00 00 00 	nop
   29708:	80 10 00 0f 	movc2g gr1
   2970c:	ec 17 bf c2 	store32 gr1 gr30 fffffffe <Flash0CtrlRegs+0xfef5fffe>
   29710:	99 e7 bf c0 	addi gr30 gr30 fffffff8 <Flash0CtrlRegs+0xfef5fff8>
    // A non-maskable interrupt has occurred, indicating that a hardware error
    // has occurred in the system.  You can use SysCtl_getNMIFlagStatus() to
    // to read the NMIFLG register and determine what caused the NMI.
    //
    ESTOP0;
    for (;;)
   29714:	83 ff ff e1 	jmp 29714 <Interrupt_nmiHandler+0x24>
   29718:	80 00 00 00 	nop
   2971c:	80 00 00 00 	nop

00029720 <init_isrentry_base>:
   29720:	90 01 00 80 	movg2g gr0 gr4
   29724:	80 00 00 04 	ret
   29728:	80 00 00 00 	nop
   2972c:	80 00 00 00 	nop

00029730 <_lb_func_init_bss>:
   29730:	94 20 00 11 	movigh gr2 1 <_cla_int_entry_group0_0+0x1>
   29734:	94 20 4f 05 	movigl gr2 4f0 <.L0 >
   29738:	94 30 00 11 	movigh gr3 1 <_cla_int_entry_group0_0+0x1>
   2973c:	94 30 4f 85 	movigl gr3 4f8 <.L0 +0x8>
   29740:	94 40 00 01 	movigh gr4 0 <_cla_int_entry_group0_0>
   29744:	94 40 00 05 	movigl gr4 0 <_cla_int_entry_group0_0>

00029748 <_lb_assign_0_loop>:
   29748:	90 00 83 00 	eq gr2 gr3
   2974c:	80 00 00 e5 	jc 2976c <_lb_func_init_bss_end>
   29750:	80 00 00 00 	nop
   29754:	80 00 00 00 	nop
   29758:	ec 40 80 00 	store8 gr4 gr2 0 <_cla_int_entry_group0_0>
   2975c:	98 20 80 08 	addi gr2 gr2 1 <_cla_int_entry_group0_0+0x1>
   29760:	83 ff ff 21 	jmp 29748 <_lb_assign_0_loop>
   29764:	80 00 00 00 	nop
   29768:	80 00 00 00 	nop

0002976c <_lb_func_init_bss_end>:
   2976c:	80 00 00 04 	ret
   29770:	80 00 00 00 	nop
   29774:	80 00 00 00 	nop

00029778 <_dsp_call_main>:
   29778:	94 20 07 f1 	movigh gr2 7f <.L0 +0x8>
   2977c:	94 22 10 05 	movigl gr2 2100 <.L0 +0x4>
   29780:	94 35 a5 a9 	moviglz gr3 5a5a <.L0 +0x2c>
   29784:	ec 30 80 01 	store16 gr3 gr2 0 <_cla_int_entry_group0_0>
   29788:	83 ff fd 2d 	call 29730 <_lb_func_init_bss>
   2978c:	80 00 00 00 	nop
   29790:	80 00 00 00 	nop
   29794:	95 e0 00 21 	movigh gr30 2 <_cla_int_entry_group0_0+0x2>
   29798:	95 e7 c0 05 	movigl gr30 7c00 <$line_table_start0+0xed>
   2979c:	80 01 0d ad 	call 2b954 <main>
   297a0:	80 00 00 00 	nop
   297a4:	80 00 00 00 	nop

000297a8 <_main_exit_stay_nop>:
   297a8:	83 ff ff e1 	jmp 297a8 <_main_exit_stay_nop>
   297ac:	80 00 00 00 	nop
   297b0:	80 00 00 00 	nop
   297b4:	80 00 00 00 	nop

000297b8 <qx_precise_delay>:
   297b8:	98 41 3f f8 	addi gr4 gr4 ffffffff <Flash0CtrlRegs+0xfef5ffff>
   297bc:	80 00 00 00 	nop
   297c0:	80 00 00 00 	nop
   297c4:	94 01 00 16 	lei gr4 0 <_cla_int_entry_group0_0>
   297c8:	83 ff ff 69 	jnc 297b8 <qx_precise_delay>
   297cc:	80 00 00 00 	nop
   297d0:	80 00 00 00 	nop
   297d4:	80 00 00 04 	ret
   297d8:	80 00 00 00 	nop
   297dc:	80 00 00 00 	nop

000297e0 <fast_interrupt_initvectortable>:
   297e0:	94 20 00 01 	movigh gr2 0 <_cla_int_entry_group0_0>
   297e4:	94 20 00 05 	movigl gr2 0 <_cla_int_entry_group0_0>
   297e8:	94 30 00 01 	movigh gr3 0 <_cla_int_entry_group0_0>
   297ec:	94 30 40 05 	movigl gr3 400 <Cla1Task6+0x40>

000297f0 <fast_ivecinit_loop>:
   297f0:	84 61 02 00 	add gr6 gr4 gr2
   297f4:	18 20 80 20 ®░	addi gr2 gr2 4 <_cla_int_entry_group0_0+0x4>
   297f8:	ec 51 80 02 ®Ė	store32 gr5 gr6 0 <_cla_int_entry_group0_0>
   297fc:	90 00 83 00 	eq gr2 gr3
   29800:	83 ff ff 69 	jnc 297f0 <fast_ivecinit_loop>
   29804:	80 00 00 00 	nop
   29808:	80 00 00 00 	nop
   2980c:	90 01 00 80 	movg2g gr0 gr4
   29810:	80 00 00 04 	ret
   29814:	80 00 00 00 	nop
   29818:	80 00 00 00 	nop
   2981c:	80 00 00 00 	nop

00029820 <srand>:
   29820:	94 20 00 11 	movigh gr2 1 <_cla_int_entry_group0_0+0x1>
   29824:	94 30 00 09 	moviglz gr3 0 <_cla_int_entry_group0_0>
   29828:	94 20 0c 05 	movigl gr2 c0 <_cla_int_entry_group0_12>
   2982c:	a8 20 80 02 	load32 gr2 gr2 0 <_cla_int_entry_group0_0>
   29830:	ec 30 85 62 	store32 gr3 gr2 2b <.L0 +0x5>
   29834:	ec 40 85 42 	store32 gr4 gr2 2a <.L0 +0x4>
   29838:	80 00 00 04 	ret
   2983c:	80 00 00 00 	nop
   29840:	80 00 00 00 	nop
   29844:	80 00 00 00 	nop
   29848:	80 00 00 00 	nop
   2984c:	80 00 00 00 	nop

00029850 <rand>:
   29850:	94 20 00 11 	movigh gr2 1 <_cla_int_entry_group0_0+0x1>
   29854:	94 20 0c 05 	movigl gr2 c0 <_cla_int_entry_group0_12>
   29858:	94 34 c9 51 	movigh gr3 4c95 <.L0 +0x1>
   2985c:	94 37 f2 d5 	movigl gr3 7f2d <$line_table_start0+0x41a>
   29860:	94 45 85 11 	movigh gr4 5851 <.L0 +0x4>
   29864:	14 4f 42 d5 ®░	movigl gr4 fffff42d <Flash0CtrlRegs+0xfef5f42d>
   29868:	a8 50 80 02 ®Ė	load32 gr5 gr2 0 <_cla_int_entry_group0_0>
   2986c:	04 20 82 06 ®░	xor gr2 gr2 gr2
   29870:	a8 61 45 42 ®Ė	load32 gr6 gr5 2a <.L0 +0x4>
   29874:	04 81 83 1d ®░	mulu64 gr8 gr6 gr3
   29878:	a8 71 45 62 ®Ė	load32 gr7 gr5 2b <.L0 +0x5>
   2987c:	84 81 84 85 	mac32 gr8 gr6 gr4
   29880:	84 41 83 0c 	mul32 gr4 gr6 gr3
   29884:	98 41 00 08 	addi gr4 gr4 1 <_cla_int_entry_group0_0+0x1>
   29888:	84 81 c3 85 	mac32 gr8 gr7 gr3
   2988c:	04 20 82 01 ®░	addc gr2 gr2 gr2
   29890:	ec 41 45 42 ®Ė	store32 gr4 gr5 2a <.L0 +0x4>
   29894:	84 20 88 00 	add gr2 gr2 gr8
   29898:	98 20 80 00 	addi gr2 gr2 0 <_cla_int_entry_group0_0>
   2989c:	ec 21 45 62 	store32 gr2 gr5 2b <.L0 +0x5>
   298a0:	94 20 3e 07 	bclr gr2 ffffffff <Flash0CtrlRegs+0xfef5ffff>
   298a4:	80 00 00 04 	ret
   298a8:	80 00 00 00 	nop
   298ac:	80 00 00 00 	nop

000298b0 <strlen>:
   298b0:	94 50 00 39 	moviglz gr5 3 <_cla_int_entry_group0_0+0x3>
   298b4:	84 21 05 04 	and gr2 gr4 gr5
   298b8:	94 00 80 02 	eqi gr2 0 <_cla_int_entry_group0_0>
   298bc:	90 21 00 80 	movg2g gr2 gr4
   298c0:	80 00 03 05 	jc 29924 <strlen+0x74>
   298c4:	80 00 00 00 	nop
   298c8:	80 00 00 00 	nop
   298cc:	a8 21 00 00 	load8 gr2 gr4 0 <_cla_int_entry_group0_0>
   298d0:	94 00 80 02 	eqi gr2 0 <_cla_int_entry_group0_0>
   298d4:	80 00 06 05 	jc 29998 <strlen+0xe8>
   298d8:	80 00 00 00 	nop
   298dc:	80 00 00 00 	nop
   298e0:	98 21 00 08 	addi gr2 gr4 1 <_cla_int_entry_group0_0+0x1>
   298e4:	90 31 00 80 	movg2g gr3 gr4
   298e8:	98 30 c0 08 	addi gr3 gr3 1 <_cla_int_entry_group0_0+0x1>
   298ec:	84 60 c5 04 	and gr6 gr3 gr5
   298f0:	94 01 80 06 	neqi gr6 0 <_cla_int_entry_group0_0>
   298f4:	80 00 01 69 	jnc 29924 <strlen+0x74>
   298f8:	80 00 00 00 	nop
   298fc:	80 00 00 00 	nop
   29900:	a8 60 80 00 	load8 gr6 gr2 0 <_cla_int_entry_group0_0>
   29904:	98 20 80 08 	addi gr2 gr2 1 <_cla_int_entry_group0_0+0x1>
   29908:	94 01 80 02 	eqi gr6 0 <_cla_int_entry_group0_0>
   2990c:	83 ff fe c9 	jnc 298e8 <strlen+0x38>
   29910:	80 00 00 00 	nop
   29914:	80 00 00 00 	nop
   29918:	80 00 03 61 	jmp 29988 <strlen+0xd8>
   2991c:	80 00 00 00 	nop
   29920:	80 00 00 00 	nop
   29924:	94 50 10 11 	movigh gr5 101 <cla_interrupt_defaulthandler+0x1>
   29928:	98 60 bf f8 	addi gr6 gr2 ffffffff <Flash0CtrlRegs+0xfef5ffff>
   2992c:	94 50 10 05 	movigl gr5 100 <cla_interrupt_defaulthandler>
   29930:	94 78 08 01 	movigh gr7 ffff8080 <Flash0CtrlRegs+0xfef58080>
   29934:	94 78 08 05 	movigl gr7 ffff8080 <Flash0CtrlRegs+0xfef58080>
   29938:	a8 30 80 02 	load32 gr3 gr2 0 <_cla_int_entry_group0_0>
   2993c:	98 20 80 20 	addi gr2 gr2 4 <_cla_int_entry_group0_0+0x4>
   29940:	84 81 43 02 	sub gr8 gr5 gr3
   29944:	84 32 03 05 	or gr3 gr8 gr3
   29948:	84 30 c7 04 	and gr3 gr3 gr7
   2994c:	90 00 c7 00 	eq gr3 gr7
   29950:	90 31 80 80 	movg2g gr3 gr6
   29954:	98 60 c0 20 	addi gr6 gr3 4 <_cla_int_entry_group0_0+0x4>
   29958:	83 ff fe e5 	jc 29938 <strlen+0x88>
   2995c:	80 00 00 00 	nop
   29960:	80 00 00 00 	nop
   29964:	94 5f ff cd 	moviglx gr5 fffffffc <Flash0CtrlRegs+0xfef5fffc>
   29968:	84 60 85 00 	add gr6 gr2 gr5
   2996c:	98 30 c0 08 	addi gr3 gr3 1 <_cla_int_entry_group0_0+0x1>
   29970:	18 51 40 08 ®░	addi gr5 gr5 1 <_cla_int_entry_group0_0+0x1>
   29974:	a8 61 80 00 ®Ė	load8 gr6 gr6 0 <_cla_int_entry_group0_0>
   29978:	94 01 80 06 	neqi gr6 0 <_cla_int_entry_group0_0>
   2997c:	83 ff ff 45 	jc 29968 <strlen+0xb8>
   29980:	80 00 00 00 	nop
   29984:	80 00 00 00 	nop
   29988:	84 20 c4 02 	sub gr2 gr3 gr4
   2998c:	80 00 00 04 	ret
   29990:	80 00 00 00 	nop
   29994:	80 00 00 00 	nop
   29998:	90 31 00 80 	movg2g gr3 gr4
   2999c:	84 20 c4 02 	sub gr2 gr3 gr4
   299a0:	80 00 00 04 	ret
   299a4:	80 00 00 00 	nop
   299a8:	80 00 00 00 	nop
   299ac:	80 00 00 00 	nop

000299b0 <__fixunssfsi>:
   299b0:	94 01 00 0e 	lti gr4 0 <_cla_int_entry_group0_0>
   299b4:	94 20 00 09 	moviglz gr2 0 <_cla_int_entry_group0_0>
   299b8:	80 00 04 65 	jc 29a48 <__fixunssfsi+0x98>
   299bc:	80 00 00 00 	nop
   299c0:	80 00 00 00 	nop
   299c4:	98 31 17 0e 	srli gr3 gr4 17 <_core1_exp_start>
   299c8:	94 50 0f f9 	moviglz gr5 ff <.L0 +0x6>
   299cc:	84 30 c5 04 	and gr3 gr3 gr5
   299d0:	94 00 cf f7 	ltiu gr3 7f <.L0 +0x8>
   299d4:	80 00 03 85 	jc 29a48 <__fixunssfsi+0x98>
   299d8:	80 00 00 00 	nop
   299dc:	80 00 00 00 	nop
   299e0:	98 20 fb 08 	addi gr2 gr3 ffffff61 <Flash0CtrlRegs+0xfef5ff61>
   299e4:	94 5f fe 0d 	moviglx gr5 ffffffe0 <Flash0CtrlRegs+0xfef5ffe0>
   299e8:	90 00 85 0b 	ltu gr2 gr5
   299ec:	80 00 00 c9 	jnc 29a08 <__fixunssfsi+0x58>
   299f0:	80 00 00 00 	nop
   299f4:	80 00 00 00 	nop
   299f8:	94 2f ff fd 	moviglx gr2 ffffffff <Flash0CtrlRegs+0xfef5ffff>
   299fc:	80 00 00 04 	ret
   29a00:	80 00 00 00 	nop
   29a04:	80 00 00 00 	nop
   29a08:	94 20 07 f1 	movigh gr2 7f <.L0 +0x8>
   29a0c:	94 00 d2 b3 	gtiu gr3 95 <.L0 +0x3>
   29a10:	94 2f ff f5 	movigl gr2 ffffffff <Flash0CtrlRegs+0xfef5ffff>
   29a14:	84 21 02 04 	and gr2 gr4 gr2
   29a18:	94 20 2e 03 	bst gr2 fffffff7 <Flash0CtrlRegs+0xfef5fff7>
   29a1c:	80 00 01 05 	jc 29a40 <__fixunssfsi+0x90>
   29a20:	80 00 00 00 	nop
   29a24:	80 00 00 00 	nop
   29a28:	94 40 09 69 	moviglz gr4 96 <.L0 +0x4>
   29a2c:	84 31 03 02 	sub gr3 gr4 gr3
   29a30:	84 20 83 0b 	srl gr2 gr2 gr3
   29a34:	80 00 00 04 	ret
   29a38:	80 00 00 00 	nop
   29a3c:	80 00 00 00 	nop
   29a40:	98 30 fb 50 	addi gr3 gr3 ffffff6a <Flash0CtrlRegs+0xfef5ff6a>
   29a44:	84 20 83 09 	sl gr2 gr2 gr3
   29a48:	80 00 00 04 	ret
   29a4c:	80 00 00 00 	nop
   29a50:	80 00 00 00 	nop

00029a54 <__floatunsisf>:
   29a54:	94 01 00 02 	eqi gr4 0 <_cla_int_entry_group0_0>
   29a58:	80 00 06 05 	jc 29b1c <__floatunsisf+0xc8>
   29a5c:	80 00 00 00 	nop
   29a60:	80 00 00 00 	nop
   29a64:	98 21 01 0e 	srli gr2 gr4 1 <_cla_int_entry_group0_0+0x1>
   29a68:	94 35 55 51 	movigh gr3 5555 <.L0 +0x15>
   29a6c:	84 21 02 05 	or gr2 gr4 gr2
   29a70:	94 35 55 55 	movigl gr3 5555 <.L0 +0x15>
   29a74:	94 53 33 31 	movigh gr5 3333 <.L0 +0x1e>
   29a78:	98 60 82 0e 	srli gr6 gr2 2 <_cla_int_entry_group0_0+0x2>
   29a7c:	94 53 33 35 	movigl gr5 3333 <.L0 +0x1e>
   29a80:	84 20 86 05 	or gr2 gr2 gr6
   29a84:	98 60 84 0e 	srli gr6 gr2 4 <_cla_int_entry_group0_0+0x4>
   29a88:	84 20 86 05 	or gr2 gr2 gr6
   29a8c:	98 60 88 0e 	srli gr6 gr2 8 <_core0_exp_start+0x3>
   29a90:	84 20 86 05 	or gr2 gr2 gr6
   29a94:	98 60 90 0e 	srli gr6 gr2 10 <_cla_int_entry_group0_1>
   29a98:	84 20 86 05 	or gr2 gr2 gr6
   29a9c:	90 20 80 44 	not gr2 gr2
   29aa0:	98 60 81 0e 	srli gr6 gr2 1 <_cla_int_entry_group0_0+0x1>
   29aa4:	84 31 83 04 	and gr3 gr6 gr3
   29aa8:	94 60 01 f9 	moviglz gr6 1f <_core1_exp_start+0x8>
   29aac:	84 20 83 02 	sub gr2 gr2 gr3
   29ab0:	98 30 82 0e 	srli gr3 gr2 2 <_cla_int_entry_group0_0+0x2>
   29ab4:	84 20 85 04 	and gr2 gr2 gr5
   29ab8:	84 30 c5 04 	and gr3 gr3 gr5
   29abc:	94 50 f0 f1 	movigh gr5 f0f <.L0 >
   29ac0:	84 20 83 00 	add gr2 gr2 gr3
   29ac4:	94 50 f0 f5 	movigl gr5 f0f <.L0 >
   29ac8:	98 30 84 0e 	srli gr3 gr2 4 <_cla_int_entry_group0_0+0x4>
   29acc:	84 20 83 00 	add gr2 gr2 gr3
   29ad0:	94 30 10 11 	movigh gr3 101 <cla_interrupt_defaulthandler+0x1>
   29ad4:	94 30 10 15 	movigl gr3 101 <cla_interrupt_defaulthandler+0x1>
   29ad8:	84 20 85 04 	and gr2 gr2 gr5
   29adc:	84 20 83 0c 	mul32 gr2 gr2 gr3
   29ae0:	98 20 98 0e 	srli gr2 gr2 18 <_core1_exp_start+0x1>
   29ae4:	84 30 86 06 	xor gr3 gr2 gr6
   29ae8:	94 00 c2 f3 	gtiu gr3 17 <_core1_exp_start>
   29aec:	80 00 02 25 	jc 29b34 <__floatunsisf+0xe0>
   29af0:	80 00 00 00 	nop
   29af4:	80 00 00 00 	nop
   29af8:	94 50 01 79 	moviglz gr5 17 <_core1_exp_start>
   29afc:	94 60 08 01 	movigh gr6 80 <_cla_int_entry_group0_8>
   29b00:	84 31 43 02 	sub gr3 gr5 gr3
   29b04:	94 60 00 05 	movigl gr6 0 <_cla_int_entry_group0_0>
   29b08:	84 31 03 09 	sl gr3 gr4 gr3
   29b0c:	84 30 c6 06 	xor gr3 gr3 gr6
   29b10:	80 00 03 21 	jmp 29b78 <__floatunsisf+0x124>
   29b14:	80 00 00 00 	nop
   29b18:	80 00 00 00 	nop
   29b1c:	94 20 00 11 	movigh gr2 1 <_cla_int_entry_group0_0+0x1>
   29b20:	94 20 03 85 	movigl gr2 38 <.L0 >
   29b24:	a8 20 80 02 	load32 gr2 gr2 0 <_cla_int_entry_group0_0>
   29b28:	80 00 00 04 	ret
   29b2c:	80 00 00 00 	nop
   29b30:	80 00 00 00 	nop
   29b34:	94 30 00 89 	moviglz gr3 8 <_core0_exp_start+0x3>
   29b38:	94 58 00 01 	movigh gr5 ffff8000 <Flash0CtrlRegs+0xfef58000>
   29b3c:	94 50 00 05 	movigl gr5 0 <_cla_int_entry_group0_0>
   29b40:	94 60 08 01 	movigh gr6 80 <_cla_int_entry_group0_8>
   29b44:	84 30 c2 02 	sub gr3 gr3 gr2
   29b48:	94 60 00 05 	movigl gr6 0 <_cla_int_entry_group0_0>
   29b4c:	84 31 03 0b 	srl gr3 gr4 gr3
   29b50:	84 30 c6 06 	xor gr3 gr3 gr6
   29b54:	98 60 80 c0 	addi gr6 gr2 18 <_core1_exp_start+0x1>
   29b58:	84 41 06 09 	sl gr4 gr4 gr6
   29b5c:	90 01 05 0a 	gtu gr4 gr5
   29b60:	90 60 00 43 	setc gr6
   29b64:	90 01 05 00 	eq gr4 gr5
   29b68:	90 40 00 43 	setc gr4
   29b6c:	84 30 c6 00 	add gr3 gr3 gr6
   29b70:	84 41 03 04 	and gr4 gr4 gr3
   29b74:	84 31 03 00 	add gr3 gr4 gr3
   29b78:	98 20 97 06 	sli gr2 gr2 17 <_core1_exp_start>
   29b7c:	94 44 f0 01 	movigh gr4 4f00 <$line_table_start0+0xd>
   29b80:	94 40 00 05 	movigl gr4 0 <_cla_int_entry_group0_0>
   29b84:	84 20 c2 02 	sub gr2 gr3 gr2
   29b88:	84 20 84 00 	add gr2 gr2 gr4
   29b8c:	80 00 00 04 	ret
   29b90:	80 00 00 00 	nop
   29b94:	80 00 00 00 	nop

00029b98 <__udivsi3>:
   29b98:	94 85 55 51 	movigh gr8 5555 <.L0 +0x15>
   29b9c:	94 20 02 09 	moviglz gr2 20 <_cla_int_entry_group0_2>
   29ba0:	94 01 40 02 	eqi gr5 0 <_cla_int_entry_group0_0>
   29ba4:	94 85 55 55 	movigl gr8 5555 <.L0 +0x15>
   29ba8:	94 73 33 31 	movigh gr7 3333 <.L0 +0x1e>
   29bac:	94 73 33 35 	movigl gr7 3333 <.L0 +0x1e>
   29bb0:	94 30 f0 f1 	movigh gr3 f0f <.L0 >
   29bb4:	94 30 f0 f5 	movigl gr3 f0f <.L0 >
   29bb8:	94 60 10 11 	movigh gr6 101 <cla_interrupt_defaulthandler+0x1>
   29bbc:	94 60 10 15 	movigl gr6 101 <cla_interrupt_defaulthandler+0x1>
   29bc0:	90 90 80 80 	movg2g gr9 gr2
   29bc4:	80 00 03 25 	jc 29c2c <__udivsi3+0x94>
   29bc8:	80 00 00 00 	nop
   29bcc:	80 00 00 00 	nop
   29bd0:	98 91 41 0e 	srli gr9 gr5 1 <_cla_int_entry_group0_0+0x1>
   29bd4:	84 91 49 05 	or gr9 gr5 gr9
   29bd8:	98 a2 42 0e 	srli gr10 gr9 2 <_cla_int_entry_group0_0+0x2>
   29bdc:	84 92 4a 05 	or gr9 gr9 gr10
   29be0:	98 a2 44 0e 	srli gr10 gr9 4 <_cla_int_entry_group0_0+0x4>
   29be4:	84 92 4a 05 	or gr9 gr9 gr10
   29be8:	98 a2 48 0e 	srli gr10 gr9 8 <_core0_exp_start+0x3>
   29bec:	84 92 4a 05 	or gr9 gr9 gr10
   29bf0:	98 a2 50 0e 	srli gr10 gr9 10 <_cla_int_entry_group0_1>
   29bf4:	84 92 4a 05 	or gr9 gr9 gr10
   29bf8:	90 92 40 44 	not gr9 gr9
   29bfc:	98 a2 41 0e 	srli gr10 gr9 1 <_cla_int_entry_group0_0+0x1>
   29c00:	84 a2 88 04 	and gr10 gr10 gr8
   29c04:	84 92 4a 02 	sub gr9 gr9 gr10
   29c08:	84 a2 47 04 	and gr10 gr9 gr7
   29c0c:	98 92 42 0e 	srli gr9 gr9 2 <_cla_int_entry_group0_0+0x2>
   29c10:	84 92 47 04 	and gr9 gr9 gr7
   29c14:	84 92 89 00 	add gr9 gr10 gr9
   29c18:	98 a2 44 0e 	srli gr10 gr9 4 <_cla_int_entry_group0_0+0x4>
   29c1c:	84 92 4a 00 	add gr9 gr9 gr10
   29c20:	84 92 43 04 	and gr9 gr9 gr3
   29c24:	84 92 46 0c 	mul32 gr9 gr9 gr6
   29c28:	98 92 58 0e 	srli gr9 gr9 18 <_core1_exp_start+0x1>
   29c2c:	94 01 00 02 	eqi gr4 0 <_cla_int_entry_group0_0>
   29c30:	80 00 03 25 	jc 29c98 <__udivsi3+0x100>
   29c34:	80 00 00 00 	nop
   29c38:	80 00 00 00 	nop
   29c3c:	98 21 01 0e 	srli gr2 gr4 1 <_cla_int_entry_group0_0+0x1>
   29c40:	84 21 02 05 	or gr2 gr4 gr2
   29c44:	98 a0 82 0e 	srli gr10 gr2 2 <_cla_int_entry_group0_0+0x2>
   29c48:	84 20 8a 05 	or gr2 gr2 gr10
   29c4c:	98 a0 84 0e 	srli gr10 gr2 4 <_cla_int_entry_group0_0+0x4>
   29c50:	84 20 8a 05 	or gr2 gr2 gr10
   29c54:	98 a0 88 0e 	srli gr10 gr2 8 <_core0_exp_start+0x3>
   29c58:	84 20 8a 05 	or gr2 gr2 gr10
   29c5c:	98 a0 90 0e 	srli gr10 gr2 10 <_cla_int_entry_group0_1>
   29c60:	84 20 8a 05 	or gr2 gr2 gr10
   29c64:	90 20 80 44 	not gr2 gr2
   29c68:	98 a0 81 0e 	srli gr10 gr2 1 <_cla_int_entry_group0_0+0x1>
   29c6c:	84 82 88 04 	and gr8 gr10 gr8
   29c70:	84 20 88 02 	sub gr2 gr2 gr8
   29c74:	84 80 87 04 	and gr8 gr2 gr7
   29c78:	98 20 82 0e 	srli gr2 gr2 2 <_cla_int_entry_group0_0+0x2>
   29c7c:	84 20 87 04 	and gr2 gr2 gr7
   29c80:	84 22 02 00 	add gr2 gr8 gr2
   29c84:	98 70 84 0e 	srli gr7 gr2 4 <_cla_int_entry_group0_0+0x4>
   29c88:	84 20 87 00 	add gr2 gr2 gr7
   29c8c:	84 20 83 04 	and gr2 gr2 gr3
   29c90:	84 20 86 0c 	mul32 gr2 gr2 gr6
   29c94:	98 20 98 0e 	srli gr2 gr2 18 <_core1_exp_start+0x1>
   29c98:	84 32 42 02 	sub gr3 gr9 gr2
   29c9c:	94 00 c3 f3 	gtiu gr3 1f <_core1_exp_start+0x8>
   29ca0:	80 00 00 e9 	jnc 29cc0 <__udivsi3+0x128>
   29ca4:	80 00 00 00 	nop
   29ca8:	80 00 00 00 	nop
   29cac:	94 40 00 09 	moviglz gr4 0 <_cla_int_entry_group0_0>
   29cb0:	90 21 00 80 	movg2g gr2 gr4
   29cb4:	80 00 00 04 	ret
   29cb8:	80 00 00 00 	nop
   29cbc:	80 00 00 00 	nop
   29cc0:	94 00 c3 e2 	eqi gr3 1f <_core1_exp_start+0x8>
   29cc4:	80 00 03 85 	jc 29d38 <__udivsi3+0x1a0>
   29cc8:	80 00 00 00 	nop
   29ccc:	80 00 00 00 	nop
   29cd0:	94 60 01 f9 	moviglz gr6 1f <_core1_exp_start+0x8>
   29cd4:	98 70 c0 08 	addi gr7 gr3 1 <_cla_int_entry_group0_0+0x1>
   29cd8:	90 92 40 44 	not gr9 gr9
   29cdc:	84 80 c6 06 	xor gr8 gr3 gr6
   29ce0:	94 30 00 09 	moviglz gr3 0 <_cla_int_entry_group0_0>
   29ce4:	84 61 07 0b 	srl gr6 gr4 gr7
   29ce8:	84 22 42 00 	add gr2 gr9 gr2
   29cec:	84 41 08 09 	sl gr4 gr4 gr8
   29cf0:	98 71 1f 0e 	srli gr7 gr4 1f <_core1_exp_start+0x8>
   29cf4:	98 61 81 06 	sli gr6 gr6 1 <_cla_int_entry_group0_0+0x1>
   29cf8:	98 41 01 06 	sli gr4 gr4 1 <_cla_int_entry_group0_0+0x1>
   29cfc:	84 61 87 05 	or gr6 gr6 gr7
   29d00:	98 20 80 08 	addi gr2 gr2 1 <_cla_int_entry_group0_0+0x1>
   29d04:	84 41 03 05 	or gr4 gr4 gr3
   29d08:	90 71 80 44 	not gr7 gr6
   29d0c:	94 00 80 06 	neqi gr2 0 <_cla_int_entry_group0_0>
   29d10:	84 71 c5 00 	add gr7 gr7 gr5
   29d14:	98 81 df 0a 	srai gr8 gr7 1f <_core1_exp_start+0x8>
   29d18:	98 31 df 0e 	srli gr3 gr7 1f <_core1_exp_start+0x8>
   29d1c:	84 72 05 04 	and gr7 gr8 gr5
   29d20:	84 61 87 02 	sub gr6 gr6 gr7
   29d24:	83 ff fe 45 	jc 29cf0 <__udivsi3+0x158>
   29d28:	80 00 00 00 	nop
   29d2c:	80 00 00 00 	nop
   29d30:	98 21 01 06 	sli gr2 gr4 1 <_cla_int_entry_group0_0+0x1>
   29d34:	84 40 c2 05 	or gr4 gr3 gr2
   29d38:	90 21 00 80 	movg2g gr2 gr4
   29d3c:	80 00 00 04 	ret
   29d40:	80 00 00 00 	nop
   29d44:	80 00 00 00 	nop

00029d48 <__umodsi3>:
   29d48:	94 85 55 51 	movigh gr8 5555 <.L0 +0x15>
   29d4c:	94 20 02 09 	moviglz gr2 20 <_cla_int_entry_group0_2>
   29d50:	94 01 40 02 	eqi gr5 0 <_cla_int_entry_group0_0>
   29d54:	94 85 55 55 	movigl gr8 5555 <.L0 +0x15>
   29d58:	94 73 33 31 	movigh gr7 3333 <.L0 +0x1e>
   29d5c:	94 73 33 35 	movigl gr7 3333 <.L0 +0x1e>
   29d60:	94 30 f0 f1 	movigh gr3 f0f <.L0 >
   29d64:	94 30 f0 f5 	movigl gr3 f0f <.L0 >
   29d68:	94 60 10 11 	movigh gr6 101 <cla_interrupt_defaulthandler+0x1>
   29d6c:	94 60 10 15 	movigl gr6 101 <cla_interrupt_defaulthandler+0x1>
   29d70:	90 90 80 80 	movg2g gr9 gr2
   29d74:	80 00 03 25 	jc 29ddc <__umodsi3+0x94>
   29d78:	80 00 00 00 	nop
   29d7c:	80 00 00 00 	nop
   29d80:	98 91 41 0e 	srli gr9 gr5 1 <_cla_int_entry_group0_0+0x1>
   29d84:	84 91 49 05 	or gr9 gr5 gr9
   29d88:	98 a2 42 0e 	srli gr10 gr9 2 <_cla_int_entry_group0_0+0x2>
   29d8c:	84 92 4a 05 	or gr9 gr9 gr10
   29d90:	98 a2 44 0e 	srli gr10 gr9 4 <_cla_int_entry_group0_0+0x4>
   29d94:	84 92 4a 05 	or gr9 gr9 gr10
   29d98:	98 a2 48 0e 	srli gr10 gr9 8 <_core0_exp_start+0x3>
   29d9c:	84 92 4a 05 	or gr9 gr9 gr10
   29da0:	98 a2 50 0e 	srli gr10 gr9 10 <_cla_int_entry_group0_1>
   29da4:	84 92 4a 05 	or gr9 gr9 gr10
   29da8:	90 92 40 44 	not gr9 gr9
   29dac:	98 a2 41 0e 	srli gr10 gr9 1 <_cla_int_entry_group0_0+0x1>
   29db0:	84 a2 88 04 	and gr10 gr10 gr8
   29db4:	84 92 4a 02 	sub gr9 gr9 gr10
   29db8:	84 a2 47 04 	and gr10 gr9 gr7
   29dbc:	98 92 42 0e 	srli gr9 gr9 2 <_cla_int_entry_group0_0+0x2>
   29dc0:	84 92 47 04 	and gr9 gr9 gr7
   29dc4:	84 92 89 00 	add gr9 gr10 gr9
   29dc8:	98 a2 44 0e 	srli gr10 gr9 4 <_cla_int_entry_group0_0+0x4>
   29dcc:	84 92 4a 00 	add gr9 gr9 gr10
   29dd0:	84 92 43 04 	and gr9 gr9 gr3
   29dd4:	84 92 46 0c 	mul32 gr9 gr9 gr6
   29dd8:	98 92 58 0e 	srli gr9 gr9 18 <_core1_exp_start+0x1>
   29ddc:	94 01 00 02 	eqi gr4 0 <_cla_int_entry_group0_0>
   29de0:	80 00 03 25 	jc 29e48 <__umodsi3+0x100>
   29de4:	80 00 00 00 	nop
   29de8:	80 00 00 00 	nop
   29dec:	98 21 01 0e 	srli gr2 gr4 1 <_cla_int_entry_group0_0+0x1>
   29df0:	84 21 02 05 	or gr2 gr4 gr2
   29df4:	98 a0 82 0e 	srli gr10 gr2 2 <_cla_int_entry_group0_0+0x2>
   29df8:	84 20 8a 05 	or gr2 gr2 gr10
   29dfc:	98 a0 84 0e 	srli gr10 gr2 4 <_cla_int_entry_group0_0+0x4>
   29e00:	84 20 8a 05 	or gr2 gr2 gr10
   29e04:	98 a0 88 0e 	srli gr10 gr2 8 <_core0_exp_start+0x3>
   29e08:	84 20 8a 05 	or gr2 gr2 gr10
   29e0c:	98 a0 90 0e 	srli gr10 gr2 10 <_cla_int_entry_group0_1>
   29e10:	84 20 8a 05 	or gr2 gr2 gr10
   29e14:	90 20 80 44 	not gr2 gr2
   29e18:	98 a0 81 0e 	srli gr10 gr2 1 <_cla_int_entry_group0_0+0x1>
   29e1c:	84 82 88 04 	and gr8 gr10 gr8
   29e20:	84 20 88 02 	sub gr2 gr2 gr8
   29e24:	84 80 87 04 	and gr8 gr2 gr7
   29e28:	98 20 82 0e 	srli gr2 gr2 2 <_cla_int_entry_group0_0+0x2>
   29e2c:	84 20 87 04 	and gr2 gr2 gr7
   29e30:	84 22 02 00 	add gr2 gr8 gr2
   29e34:	98 70 84 0e 	srli gr7 gr2 4 <_cla_int_entry_group0_0+0x4>
   29e38:	84 20 87 00 	add gr2 gr2 gr7
   29e3c:	84 20 83 04 	and gr2 gr2 gr3
   29e40:	84 20 86 0c 	mul32 gr2 gr2 gr6
   29e44:	98 20 98 0e 	srli gr2 gr2 18 <_core1_exp_start+0x1>
   29e48:	84 32 42 02 	sub gr3 gr9 gr2
   29e4c:	94 00 c3 f3 	gtiu gr3 1f <_core1_exp_start+0x8>
   29e50:	80 00 04 85 	jc 29ee4 <__umodsi3+0x19c>
   29e54:	80 00 00 00 	nop
   29e58:	80 00 00 00 	nop
   29e5c:	94 00 c3 e2 	eqi gr3 1f <_core1_exp_start+0x8>
   29e60:	80 00 00 e9 	jnc 29e80 <__umodsi3+0x138>
   29e64:	80 00 00 00 	nop
   29e68:	80 00 00 00 	nop
   29e6c:	94 40 00 09 	moviglz gr4 0 <_cla_int_entry_group0_0>
   29e70:	90 21 00 80 	movg2g gr2 gr4
   29e74:	80 00 00 04 	ret
   29e78:	80 00 00 00 	nop
   29e7c:	80 00 00 00 	nop
   29e80:	98 60 c0 08 	addi gr6 gr3 1 <_cla_int_entry_group0_0+0x1>
   29e84:	94 70 01 f9 	moviglz gr7 1f <_core1_exp_start+0x8>
   29e88:	84 81 06 0b 	srl gr8 gr4 gr6
   29e8c:	84 60 c7 06 	xor gr6 gr3 gr7
   29e90:	90 72 40 44 	not gr7 gr9
   29e94:	94 30 00 09 	moviglz gr3 0 <_cla_int_entry_group0_0>
   29e98:	84 21 c2 00 	add gr2 gr7 gr2
   29e9c:	84 61 06 09 	sl gr6 gr4 gr6
   29ea0:	90 42 00 80 	movg2g gr4 gr8
   29ea4:	98 71 9f 0e 	srli gr7 gr6 1f <_core1_exp_start+0x8>
   29ea8:	98 41 01 06 	sli gr4 gr4 1 <_cla_int_entry_group0_0+0x1>
   29eac:	98 61 81 06 	sli gr6 gr6 1 <_cla_int_entry_group0_0+0x1>
   29eb0:	84 41 07 05 	or gr4 gr4 gr7
   29eb4:	98 20 80 08 	addi gr2 gr2 1 <_cla_int_entry_group0_0+0x1>
   29eb8:	84 61 83 05 	or gr6 gr6 gr3
   29ebc:	90 71 00 44 	not gr7 gr4
   29ec0:	94 00 80 06 	neqi gr2 0 <_cla_int_entry_group0_0>
   29ec4:	84 71 c5 00 	add gr7 gr7 gr5
   29ec8:	98 81 df 0a 	srai gr8 gr7 1f <_core1_exp_start+0x8>
   29ecc:	98 31 df 0e 	srli gr3 gr7 1f <_core1_exp_start+0x8>
   29ed0:	84 72 05 04 	and gr7 gr8 gr5
   29ed4:	84 41 07 02 	sub gr4 gr4 gr7
   29ed8:	83 ff fe 45 	jc 29ea4 <__umodsi3+0x15c>
   29edc:	80 00 00 00 	nop
   29ee0:	80 00 00 00 	nop
   29ee4:	90 21 00 80 	movg2g gr2 gr4
   29ee8:	80 00 00 04 	ret
   29eec:	80 00 00 00 	nop
   29ef0:	80 00 00 00 	nop

00029ef4 <bgtask_interrupt>:
__clatask void Cla1Task6(void);
__clatask void Cla1Task7(void);
__attribute__((clatask("background"))) void Cla1Task8(void);

void bgtask_interrupt(u32 base)
{
   29ef4:	99 e7 bf 00 	addi gr30 gr30 ffffffe0 <Flash0CtrlRegs+0xfef5ffe0>
   29ef8:	ed f7 80 e2 	store32 gr31 gr30 7 <_core0_exp_start+0x2>
   29efc:	ed 37 80 c2 	store32 gr19 gr30 6 <_core0_exp_start+0x1>
   29f00:	ed 27 80 a2 	store32 gr18 gr30 5 <_core0_exp_start>
   29f04:	ed 17 80 82 	store32 gr17 gr30 4 <_cla_int_entry_group0_0+0x4>
   29f08:	ed 07 80 62 	store32 gr16 gr30 3 <_cla_int_entry_group0_0+0x3>
   29f0c:	91 01 00 80 	movg2g gr16 gr4
//    Õ£░ÕØĆµśĀÕ░ä
    CLA_mapTaskVector(base, CLA_MVECT_1, (uint32_t)(&Cla1Task1));
   29f10:	94 60 00 01 	movigh gr6 0 <_cla_int_entry_group0_0>
   29f14:	94 60 10 c5 	movigl gr6 10c <Cla1Task1>
   29f18:	95 10 00 09 	moviglz gr17 0 <_cla_int_entry_group0_0>
   29f1c:	90 54 40 80 	movg2g gr5 gr17
   29f20:	80 00 15 8d 	call 2a1d4 <CLA_mapTaskVector>
   29f24:	80 00 00 00 	nop
   29f28:	80 00 00 00 	nop
   29f2c:	80 00 00 00 	nop
    CLA_mapTaskVector(base, CLA_MVECT_2, (uint32_t)(&Cla1Task2));
   29f30:	94 60 00 01 	movigh gr6 0 <_cla_int_entry_group0_0>
   29f34:	94 60 19 05 	movigl gr6 190 <Cla1Task2>
   29f38:	95 20 00 49 	moviglz gr18 4 <_cla_int_entry_group0_0+0x4>
   29f3c:	90 44 00 80 	movg2g gr4 gr16
   29f40:	90 54 80 80 	movg2g gr5 gr18
   29f44:	80 00 14 6d 	call 2a1d4 <CLA_mapTaskVector>
   29f48:	80 00 00 00 	nop
   29f4c:	80 00 00 00 	nop
   29f50:	80 00 00 00 	nop
    CLA_mapTaskVector(base, CLA_MVECT_3, (uint32_t)(&Cla1Task3));
   29f54:	94 60 00 01 	movigh gr6 0 <_cla_int_entry_group0_0>
   29f58:	94 60 22 05 	movigl gr6 220 <Cla1Task3>
   29f5c:	94 50 00 89 	moviglz gr5 8 <_core0_exp_start+0x3>
   29f60:	90 44 00 80 	movg2g gr4 gr16
   29f64:	80 00 13 6d 	call 2a1d4 <CLA_mapTaskVector>
   29f68:	80 00 00 00 	nop
   29f6c:	80 00 00 00 	nop
   29f70:	80 00 00 00 	nop
    CLA_mapTaskVector(base, CLA_MVECT_4, (uint32_t)(&Cla1Task4));
   29f74:	94 60 00 01 	movigh gr6 0 <_cla_int_entry_group0_0>
   29f78:	94 60 2b 05 	movigl gr6 2b0 <Cla1Task4>
   29f7c:	94 50 00 c9 	moviglz gr5 c <_core0_exp_start+0x7>
   29f80:	90 44 00 80 	movg2g gr4 gr16
   29f84:	80 00 12 6d 	call 2a1d4 <CLA_mapTaskVector>
   29f88:	80 00 00 00 	nop
   29f8c:	80 00 00 00 	nop
   29f90:	80 00 00 00 	nop
    CLA_mapTaskVector(base, CLA_MVECT_5, (uint32_t)(&Cla1Task5));
   29f94:	94 60 00 01 	movigh gr6 0 <_cla_int_entry_group0_0>
   29f98:	94 60 34 05 	movigl gr6 340 <Cla1Task5>
   29f9c:	94 50 01 09 	moviglz gr5 10 <_cla_int_entry_group0_1>
   29fa0:	90 44 00 80 	movg2g gr4 gr16
   29fa4:	80 00 11 6d 	call 2a1d4 <CLA_mapTaskVector>
   29fa8:	80 00 00 00 	nop
   29fac:	80 00 00 00 	nop
   29fb0:	80 00 00 00 	nop
    CLA_mapTaskVector(base, CLA_MVECT_6, (uint32_t)(&Cla1Task6));
   29fb4:	94 60 00 01 	movigh gr6 0 <_cla_int_entry_group0_0>
   29fb8:	94 60 3c 05 	movigl gr6 3c0 <Cla1Task6>
   29fbc:	94 50 01 49 	moviglz gr5 14 <_cla_int_entry_group0_1+0x4>
   29fc0:	90 44 00 80 	movg2g gr4 gr16
   29fc4:	80 00 10 6d 	call 2a1d4 <CLA_mapTaskVector>
   29fc8:	80 00 00 00 	nop
   29fcc:	80 00 00 00 	nop
   29fd0:	80 00 00 00 	nop
    CLA_mapTaskVector(base, CLA_MVECT_7, (uint32_t)(&Cla1Task7));
   29fd4:	94 60 00 01 	movigh gr6 0 <_cla_int_entry_group0_0>
   29fd8:	94 60 44 c5 	movigl gr6 44c <Cla1Task7>
   29fdc:	94 50 01 89 	moviglz gr5 18 <_core1_exp_start+0x1>
   29fe0:	90 44 00 80 	movg2g gr4 gr16
   29fe4:	80 00 0f 6d 	call 2a1d4 <CLA_mapTaskVector>
   29fe8:	80 00 00 00 	nop
   29fec:	80 00 00 00 	nop
   29ff0:	80 00 00 00 	nop
    CLA_mapTaskVector(base, CLA_MVECT_8, (uint32_t)(&Cla1Task8));
   29ff4:	95 30 00 01 	movigh gr19 0 <_cla_int_entry_group0_0>
   29ff8:	95 30 4d 85 	movigl gr19 4d8 <Cla1Task8>
   29ffc:	94 50 01 c9 	moviglz gr5 1c <_core1_exp_start+0x5>
   2a000:	90 44 00 80 	movg2g gr4 gr16
   2a004:	90 64 c0 80 	movg2g gr6 gr19
   2a008:	80 00 0e 4d 	call 2a1d4 <CLA_mapTaskVector>
   2a00c:	80 00 00 00 	nop
   2a010:	80 00 00 00 	nop
   2a014:	80 00 00 00 	nop
    CLA_enableIACK(base);
   2a018:	90 44 00 80 	movg2g gr4 gr16
   2a01c:	80 00 0e ed 	call 2a1fc <CLA_enableIACK>
   2a020:	80 00 00 00 	nop
   2a024:	80 00 00 00 	nop
   2a028:	80 00 00 00 	nop

    CLA_setTriggerSource(CLA_TASK_1, CLA_TRIGGER_SOFTWARE);
   2a02c:	90 44 40 80 	movg2g gr4 gr17
   2a030:	90 54 40 80 	movg2g gr5 gr17
   2a034:	80 00 80 cd 	call 2b050 <CLA_setTriggerSource>
   2a038:	80 00 00 00 	nop
   2a03c:	80 00 00 00 	nop
   2a040:	80 00 00 00 	nop
   2a044:	94 40 00 19 	moviglz gr4 1 <_cla_int_entry_group0_0+0x1>
    CLA_setTriggerSource(CLA_TASK_2, CLA_TRIGGER_SOFTWARE);
   2a048:	90 54 40 80 	movg2g gr5 gr17
   2a04c:	80 00 80 0d 	call 2b050 <CLA_setTriggerSource>
   2a050:	80 00 00 00 	nop
   2a054:	80 00 00 00 	nop
   2a058:	80 00 00 00 	nop
   2a05c:	94 40 00 29 	moviglz gr4 2 <_cla_int_entry_group0_0+0x2>
    CLA_setTriggerSource(CLA_TASK_3, CLA_TRIGGER_SOFTWARE);
   2a060:	90 54 40 80 	movg2g gr5 gr17
   2a064:	80 00 7f 4d 	call 2b050 <CLA_setTriggerSource>
   2a068:	80 00 00 00 	nop
   2a06c:	80 00 00 00 	nop
   2a070:	80 00 00 00 	nop
   2a074:	94 40 00 39 	moviglz gr4 3 <_cla_int_entry_group0_0+0x3>
    CLA_setTriggerSource(CLA_TASK_4, CLA_TRIGGER_SOFTWARE);
   2a078:	90 54 40 80 	movg2g gr5 gr17
   2a07c:	80 00 7e 8d 	call 2b050 <CLA_setTriggerSource>
   2a080:	80 00 00 00 	nop
   2a084:	80 00 00 00 	nop
   2a088:	80 00 00 00 	nop
    CLA_setTriggerSource(CLA_TASK_5, CLA_TRIGGER_SOFTWARE);
   2a08c:	90 44 80 80 	movg2g gr4 gr18
   2a090:	90 54 40 80 	movg2g gr5 gr17
   2a094:	80 00 7d cd 	call 2b050 <CLA_setTriggerSource>
   2a098:	80 00 00 00 	nop
   2a09c:	80 00 00 00 	nop
   2a0a0:	80 00 00 00 	nop
   2a0a4:	94 40 00 59 	moviglz gr4 5 <_core0_exp_start>
    CLA_setTriggerSource(CLA_TASK_6, CLA_TRIGGER_SOFTWARE);
   2a0a8:	90 54 40 80 	movg2g gr5 gr17
   2a0ac:	80 00 7d 0d 	call 2b050 <CLA_setTriggerSource>
   2a0b0:	80 00 00 00 	nop
   2a0b4:	80 00 00 00 	nop
   2a0b8:	80 00 00 00 	nop
   2a0bc:	94 40 00 69 	moviglz gr4 6 <_core0_exp_start+0x1>
    CLA_setTriggerSource(CLA_TASK_7, CLA_TRIGGER_SOFTWARE);
   2a0c0:	90 54 40 80 	movg2g gr5 gr17
   2a0c4:	80 00 7c 4d 	call 2b050 <CLA_setTriggerSource>
   2a0c8:	80 00 00 00 	nop
   2a0cc:	80 00 00 00 	nop
   2a0d0:	80 00 00 00 	nop
   2a0d4:	94 50 0f f9 	moviglz gr5 ff <.L0 +0x6>
    CLA_enableTasks(base, 0xff); //enalble all task
   2a0d8:	90 44 00 80 	movg2g gr4 gr16
   2a0dc:	80 00 0a 0d 	call 2a220 <CLA_enableTasks>
   2a0e0:	80 00 00 00 	nop
   2a0e4:	80 00 00 00 	nop
   2a0e8:	80 00 00 00 	nop
    HWREG(base + CLA_O_MVECTBGRND) = (uint32_t)(&Cla1Task8); // bg addr
   2a0ec:	14 28 00 09 ®░	moviglz gr2 ffff8000 <Flash0CtrlRegs+0xfef58000>
   2a0f0:	ed 34 01 a2 ®Ė	store32 gr19 gr16 d <_core0_exp_start+0x8>
    HWREG(base + CLA_O_MCTLBGRND) = 0x8000; // BGEN

    puts("bg st");
   2a0f4:	94 40 00 11 	movigh gr4 1 <_cla_int_entry_group0_0+0x1>
   2a0f8:	14 40 03 15 ®░	movigl gr4 31 <_cla_int_entry_group0_3+0x1>
   2a0fc:	ec 24 01 82 ®Ė	store32 gr2 gr16 c <_core0_exp_start+0x7>
   2a100:	80 00 6d 2d 	call 2aea8 <puts>
   2a104:	80 00 00 00 	nop
   2a108:	80 00 00 00 	nop
   2a10c:	80 00 00 00 	nop
   2a110:	94 28 00 19 	moviglz gr2 ffff8001 <Flash0CtrlRegs+0xfef58001>
    HWREG(base + CLA_O_MCTLBGRND) = 0x8001; // BGEN = 1 then bgstart
   2a114:	ec 24 01 82 	store32 gr2 gr16 c <_core0_exp_start+0x7>

0002a118 <.L0 >:

//    puts("1");
    for (int i = 0; i <= 10; i ++ ){ // µ£ēÕćĀµ¼Īõ╗╗ÕŖĪÕĄīÕźŚ’╝īķ£ĆĶ”üÕ£©ĶāīµÖ»õ╗╗ÕŖĪµē¦ĶĪīĶ┐ćń©ŗõĖŁ
   2a118:	94 04 41 4a 	gti gr17 a <_core0_exp_start+0x5>
   2a11c:	80 00 03 25 	jc 2a184 <.L0 >
   2a120:	80 00 00 00 	nop
   2a124:	80 00 00 00 	nop

0002a128 <.L0 >:
        int delay = 30 + rand() % (40 - 30 + 1);  // 30..40 ķÜÅµ£║Õ╗ČĶ┐¤ÕćĀõĖ¬Õæ©µ£¤
   2a128:	83 ff b9 2d 	call 29850 <rand>
   2a12c:	80 00 00 00 	nop
   2a130:	80 00 00 00 	nop
   2a134:	80 00 00 00 	nop
   2a138:	94 32 e8 b1 	movigh gr3 2e8b <.L0 +0x1a>
   2a13c:	94 3a 2e 95 	movigl gr3 ffffa2e9 <Flash0CtrlRegs+0xfef5a2e9>
   2a140:	94 40 00 b9 	moviglz gr4 b <_core0_exp_start+0x6>
   2a144:	84 30 83 0e 	mul64 gr3 gr2 gr3
   2a148:	98 50 df 0e 	srli gr5 gr3 1f <_core1_exp_start+0x8>
   2a14c:	98 30 c1 0a 	srai gr3 gr3 1 <_cla_int_entry_group0_0+0x1>
   2a150:	84 30 c5 00 	add gr3 gr3 gr5
   2a154:	84 30 c4 0c 	mul32 gr3 gr3 gr4
   2a158:	84 20 83 02 	sub gr2 gr2 gr3
   2a15c:	98 40 80 f0 	addi gr4 gr2 1e <_core1_exp_start+0x7>
        qx_precise_delay(delay);
   2a160:	83 ff b2 ad 	call 297b8 <qx_precise_delay>
   2a164:	80 00 00 00 	nop
   2a168:	80 00 00 00 	nop
   2a16c:	80 00 00 00 	nop
        __asm("iack 0x1||\n"); // Ķ¦”ÕÅæõ╗╗ÕŖĪ1’╝īõ╗╗ÕŖĪÕĄīÕźŚÕ╝ĆÕ¦ŗ
   2a170:	80 00 01 1c 	iack 1 <_cla_int_entry_group0_0+0x1>

0002a174 <.L0 >:

    puts("bg st");
    HWREG(base + CLA_O_MCTLBGRND) = 0x8001; // BGEN = 1 then bgstart

//    puts("1");
    for (int i = 0; i <= 10; i ++ ){ // µ£ēÕćĀµ¼Īõ╗╗ÕŖĪÕĄīÕźŚ’╝īķ£ĆĶ”üÕ£©ĶāīµÖ»õ╗╗ÕŖĪµē¦ĶĪīĶ┐ćń©ŗõĖŁ
   2a174:	99 14 40 08 	addi gr17 gr17 1 <_cla_int_entry_group0_0+0x1>
   2a178:	83 ff fc e1 	jmp 2a118 <.L0 >
   2a17c:	80 00 00 00 	nop
   2a180:	80 00 00 00 	nop

0002a184 <.L0 >:
        int delay = 30 + rand() % (40 - 30 + 1);  // 30..40 ķÜÅµ£║Õ╗ČĶ┐¤ÕćĀõĖ¬Õæ©µ£¤
        qx_precise_delay(delay);
        __asm("iack 0x1||\n"); // Ķ¦”ÕÅæõ╗╗ÕŖĪ1’╝īõ╗╗ÕŖĪÕĄīÕźŚÕ╝ĆÕ¦ŗ
    }
    puts("wait");
   2a184:	94 40 00 11 	movigh gr4 1 <_cla_int_entry_group0_0+0x1>
   2a188:	94 40 01 b5 	movigl gr4 1b <_core1_exp_start+0x4>
   2a18c:	80 00 68 cd 	call 2aea8 <puts>
   2a190:	80 00 00 00 	nop
   2a194:	80 00 00 00 	nop
   2a198:	80 00 00 00 	nop
    while (HWREG(base + CLA_O_MIRUN) != 0 ){}; // ńŁēÕŠģµēĆµ£ēõ╗╗ÕŖĪń╗ōµØ¤
   2a19c:	a8 24 02 82 	load32 gr2 gr16 14 <_cla_int_entry_group0_1+0x4>
   2a1a0:	94 00 80 06 	neqi gr2 0 <_cla_int_entry_group0_0>
   2a1a4:	83 ff ff a5 	jc 2a19c <.L0 +0x18>
   2a1a8:	80 00 00 00 	nop
   2a1ac:	80 00 00 00 	nop

}
   2a1b0:	a9 07 80 62 	load32 gr16 gr30 3 <_cla_int_entry_group0_0+0x3>
   2a1b4:	a9 17 80 82 	load32 gr17 gr30 4 <_cla_int_entry_group0_0+0x4>
   2a1b8:	a9 27 80 a2 	load32 gr18 gr30 5 <_core0_exp_start>
   2a1bc:	a9 37 80 c2 	load32 gr19 gr30 6 <_core0_exp_start+0x1>
   2a1c0:	a9 f7 80 e2 	load32 gr31 gr30 7 <_core0_exp_start+0x2>
   2a1c4:	99 e7 81 00 	addi gr30 gr30 20 <_cla_int_entry_group0_2>
   2a1c8:	80 00 00 04 	ret
   2a1cc:	80 00 00 00 	nop
   2a1d0:	80 00 00 00 	nop

0002a1d4 <CLA_mapTaskVector>:
//! \return None.
//
//*****************************************************************************
static inline void CLA_mapTaskVector(
    uint32_t base, CLA_MVECTNumber claIntVect, uint32_t claTaskAddr)
{
   2a1d4:	80 00 00 00 	nop
    ASSERT(CLA_isBaseValid(base));

    //
    // Modify protected register
    //
    EALLOW;
   2a1d8:	80 00 00 10 	eallow
   2a1dc:	94 2f ff f9 	moviglz gr2 ffffffff <Flash0CtrlRegs+0xfef5ffff>

    HWREG(base + (uint16_t)claIntVect) = claTaskAddr;
   2a1e0:	84 21 42 04 	and gr2 gr5 gr2
   2a1e4:	84 21 02 00 	add gr2 gr4 gr2
   2a1e8:	ec 60 80 02 	store32 gr6 gr2 0 <_cla_int_entry_group0_0>

    EDIS;
   2a1ec:	80 00 00 14 	edis
}
   2a1f0:	80 00 00 04 	ret
   2a1f4:	80 00 00 00 	nop
   2a1f8:	80 00 00 00 	nop

0002a1fc <CLA_enableIACK>:
//!
//! \return None.
//
//*****************************************************************************
static inline void CLA_enableIACK(uint32_t base)
{
   2a1fc:	80 00 00 00 	nop
    ASSERT(CLA_isBaseValid(base));

    //
    // Modify protected register
    //
    EALLOW;
   2a200:	80 00 00 10 	eallow

    //
    // Enable the main CPU to use the IACK #16bit instruction
    //
    HWREGH(base + CLA_O_MCTL) |= CLA_MCTL_IACKE;
   2a204:	a8 21 02 01 	load16 gr2 gr4 10 <_cla_int_entry_group0_1>
   2a208:	94 20 04 03 	bst gr2 2 <_cla_int_entry_group0_0+0x2>
   2a20c:	ec 21 02 01 	store16 gr2 gr4 10 <_cla_int_entry_group0_1>

    EDIS;
   2a210:	80 00 00 14 	edis
}
   2a214:	80 00 00 04 	ret
   2a218:	80 00 00 00 	nop
   2a21c:	80 00 00 00 	nop

0002a220 <CLA_enableTasks>:
//!
//! \return None.
//
//*****************************************************************************
static inline void CLA_enableTasks(uint32_t base, uint16_t taskFlags)
{
   2a220:	80 00 00 00 	nop
    ASSERT(CLA_isBaseValid(base));

    //
    // Modify protected register
    //
    EALLOW;
   2a224:	80 00 00 10 	eallow

    //
    // Enable CLA task
    //
    HWREG(base + CLA_O_MIER) |= taskFlags;
   2a228:	a8 21 02 62 	load32 gr2 gr4 13 <_cla_int_entry_group0_1+0x3>
   2a22c:	84 20 85 05 	or gr2 gr2 gr5
   2a230:	ec 21 02 62 	store32 gr2 gr4 13 <_cla_int_entry_group0_1+0x3>

}
   2a234:	80 00 00 04 	ret
   2a238:	80 00 00 00 	nop
   2a23c:	80 00 00 00 	nop

0002a240 <tests_core0>:
#ifdef __CORE1__
void tests_core1()
#else
void tests_core0()
#endif
{
   2a240:	99 e7 bf 80 	addi gr30 gr30 fffffff0 <Flash0CtrlRegs+0xfef5fff0>
   2a244:	ed f7 80 62 	store32 gr31 gr30 3 <_cla_int_entry_group0_0+0x3>
   2a248:	94 40 00 09 	moviglz gr4 0 <_cla_int_entry_group0_0>
    SysCtl_enablePeripheral(SYSCTL_PERIPH_CLK_CLA1);
   2a24c:	80 00 02 4d 	call 2a298 <SysCtl_enablePeripheral>
   2a250:	80 00 00 00 	nop
   2a254:	80 00 00 00 	nop
   2a258:	80 00 00 00 	nop
   2a25c:	94 20 10 71 	movigh gr2 107 <cla_interrupt_defaulthandler+0x7>
   2a260:	94 20 11 85 	movigl gr2 118 <.L0 +0x8>
   2a264:	94 30 00 19 	moviglz gr3 1 <_cla_int_entry_group0_0+0x1>
   2a268:	94 40 07 f1 	movigh gr4 7f <.L0 +0x8>
//    cla_interrupt_init();
    HWREG(0x01070000 + 0x118) = 0x1; // ÕłåķģŹclaÕåģÕŁśń®║ķŚ┤
   2a26c:	14 41 c0 05 ®░	movigl gr4 1c00 <.L0 +0x1d>
   2a270:	ec 30 80 02 ®Ė	store32 gr3 gr2 0 <_cla_int_entry_group0_0>
    bgtask_interrupt(CLA1_BASE);
   2a274:	83 ff e3 ed 	call 29ef4 <bgtask_interrupt>
   2a278:	80 00 00 00 	nop
   2a27c:	80 00 00 00 	nop
   2a280:	80 00 00 00 	nop
}
   2a284:	a9 f7 80 62 	load32 gr31 gr30 3 <_cla_int_entry_group0_0+0x3>
   2a288:	99 e7 80 80 	addi gr30 gr30 10 <_cla_int_entry_group0_1>
   2a28c:	80 00 00 04 	ret
   2a290:	80 00 00 00 	nop
   2a294:	80 00 00 00 	nop

0002a298 <SysCtl_enablePeripheral>:
//!
//! \return None.
//
//*****************************************************************************
static inline void SysCtl_enablePeripheral(SysCtl_PeripheralPCLOCKCR peripheral)
{
   2a298:	80 00 00 00 	nop
   2a29c:	94 20 01 f9 	moviglz gr2 1f <_core1_exp_start+0x8>
   2a2a0:	94 30 10 71 	movigh gr3 107 <cla_interrupt_defaulthandler+0x7>
   2a2a4:	94 32 01 05 	movigl gr3 2010 <.L0 +0xe>
    uint16_t bitIndex;

    //
    // Decode the peripheral variable.
    //
    regIndex = (uint16_t)4U * ((uint16_t)peripheral & (uint16_t)SYSCTL_PERIPH_REG_M);
   2a2a8:	84 21 02 04 	and gr2 gr4 gr2
   2a2ac:	98 20 82 06 	sli gr2 gr2 2 <_cla_int_entry_group0_0+0x2>
    // EALLOW;

    //
    // Turn on the module clock.
    //
    HWREG(CPUSYS_BASE + SYSCTL_O_PCLKCR0 + regIndex) |= (1UL << bitIndex);
   2a2b0:	84 20 83 00 	add gr2 gr2 gr3
   2a2b4:	14 51 f0 09 ®░	moviglz gr5 1f00 <.L0 +0xa>
   2a2b8:	a8 30 80 02 ®Ė	load32 gr3 gr2 0 <_cla_int_entry_group0_0>

    //
    // Decode the peripheral variable.
    //
    regIndex = (uint16_t)4U * ((uint16_t)peripheral & (uint16_t)SYSCTL_PERIPH_REG_M);
    bitIndex = ((uint16_t)peripheral & SYSCTL_PERIPH_BIT_M) >> SYSCTL_PERIPH_BIT_S;
   2a2bc:	84 41 05 04 	and gr4 gr4 gr5
   2a2c0:	94 50 00 19 	moviglz gr5 1 <_cla_int_entry_group0_0+0x1>
   2a2c4:	98 41 08 0e 	srli gr4 gr4 8 <_core0_exp_start+0x3>
    // EALLOW;

    //
    // Turn on the module clock.
    //
    HWREG(CPUSYS_BASE + SYSCTL_O_PCLKCR0 + regIndex) |= (1UL << bitIndex);
   2a2c8:	84 41 44 09 	sl gr4 gr5 gr4
   2a2cc:	84 30 c4 05 	or gr3 gr3 gr4
   2a2d0:	ec 30 80 02 	store32 gr3 gr2 0 <_cla_int_entry_group0_0>
    //    EDIS;
}
   2a2d4:	80 00 00 04 	ret
   2a2d8:	80 00 00 00 	nop
   2a2dc:	80 00 00 00 	nop

0002a2e0 <cla1_ISR>:
extern __cla2cpu int mvectbgrnd;
int num;
int cla1cnt=0,cla2cnt=0,cla3cnt=0,cla4cnt=0,cla5cnt=0,cla6cnt=0,cla7cnt=0,cla8cnt=0;

static void cla1_ISR()
{
   2a2e0:	99 e7 bf 80 	addi gr30 gr30 fffffff0 <Flash0CtrlRegs+0xfef5fff0>
        }
        cla1cnt++;
        printf("task1_%d\n", cla1cnt);
#else
//    printf("%x \n", mvectbgrnd);
    printf("irq1 %f \n", cla_f1data);
   2a2e4:	ed f7 80 62 	store32 gr31 gr30 3 <_cla_int_entry_group0_0+0x3>
   2a2e8:	94 20 02 01 	movigh gr2 20 <_cla_int_entry_group0_2>
   2a2ec:	94 23 00 05 	movigl gr2 3000 <.L0 +0x3>
   2a2f0:	94 40 00 11 	movigh gr4 1 <_cla_int_entry_group0_0+0x1>
   2a2f4:	14 40 02 75 ®░	movigl gr4 27 <.L0 +0x1>
   2a2f8:	a8 50 80 02 ®Ė	load32 gr5 gr2 0 <_cla_int_entry_group0_0>
   2a2fc:	80 00 23 0d 	call 2a760 <printf>
   2a300:	80 00 00 00 	nop
   2a304:	80 00 00 00 	nop
   2a308:	80 00 00 00 	nop

#endif

}
   2a30c:	a9 f7 80 62 	load32 gr31 gr30 3 <_cla_int_entry_group0_0+0x3>
   2a310:	99 e7 80 80 	addi gr30 gr30 10 <_cla_int_entry_group0_1>
   2a314:	80 00 00 04 	ret
   2a318:	80 00 00 00 	nop
   2a31c:	80 00 00 00 	nop

0002a320 <cla2_ISR>:

static void cla2_ISR()
{
   2a320:	99 e7 bf 80 	addi gr30 gr30 fffffff0 <Flash0CtrlRegs+0xfef5fff0>
        printf("e2_%f\n", cla_fdata2);
    }
    cla2cnt++;
    printf("task2_%d\n", cla2cnt);
#else
    printf("irq2 %f\n", cla_f2data);
   2a324:	ed f7 80 62 	store32 gr31 gr30 3 <_cla_int_entry_group0_0+0x3>
   2a328:	94 20 02 01 	movigh gr2 20 <_cla_int_entry_group0_2>
   2a32c:	94 23 00 45 	movigl gr2 3004 <.L0 +0x7>
   2a330:	94 40 00 11 	movigh gr4 1 <_cla_int_entry_group0_0+0x1>
   2a334:	14 40 00 05 ®░	movigl gr4 0 <_cla_int_entry_group0_0>
   2a338:	a8 50 80 02 ®Ė	load32 gr5 gr2 0 <_cla_int_entry_group0_0>
   2a33c:	80 00 21 0d 	call 2a760 <printf>
   2a340:	80 00 00 00 	nop
   2a344:	80 00 00 00 	nop
   2a348:	80 00 00 00 	nop
#endif


}
   2a34c:	a9 f7 80 62 	load32 gr31 gr30 3 <_cla_int_entry_group0_0+0x3>
   2a350:	99 e7 80 80 	addi gr30 gr30 10 <_cla_int_entry_group0_1>
   2a354:	80 00 00 04 	ret
   2a358:	80 00 00 00 	nop
   2a35c:	80 00 00 00 	nop

0002a360 <cla3_ISR>:

static void cla3_ISR()
{
   2a360:	99 e7 bf 80 	addi gr30 gr30 fffffff0 <Flash0CtrlRegs+0xfef5fff0>
        printf("e3_%f\n", cla_fdata3);
    }
    cla3cnt++;
    printf("task3_%d\n", cla3cnt);
#else
    printf("irq3 %f\n", cla_f3data);
   2a364:	ed f7 80 62 	store32 gr31 gr30 3 <_cla_int_entry_group0_0+0x3>
   2a368:	94 20 02 01 	movigh gr2 20 <_cla_int_entry_group0_2>
   2a36c:	94 23 00 85 	movigl gr2 3008 <.L0 +0xb>
   2a370:	94 40 00 11 	movigh gr4 1 <_cla_int_entry_group0_0+0x1>
   2a374:	14 40 00 95 ®░	movigl gr4 9 <_core0_exp_start+0x4>
   2a378:	a8 50 80 02 ®Ė	load32 gr5 gr2 0 <_cla_int_entry_group0_0>
   2a37c:	80 00 1f 0d 	call 2a760 <printf>
   2a380:	80 00 00 00 	nop
   2a384:	80 00 00 00 	nop
   2a388:	80 00 00 00 	nop
#endif
}
   2a38c:	a9 f7 80 62 	load32 gr31 gr30 3 <_cla_int_entry_group0_0+0x3>
   2a390:	99 e7 80 80 	addi gr30 gr30 10 <_cla_int_entry_group0_1>
   2a394:	80 00 00 04 	ret
   2a398:	80 00 00 00 	nop
   2a39c:	80 00 00 00 	nop

0002a3a0 <cla4_ISR>:

static void cla4_ISR()
{
   2a3a0:	99 e7 bf 80 	addi gr30 gr30 fffffff0 <Flash0CtrlRegs+0xfef5fff0>
    }
    cla4cnt++;

    printf("task4_%d\n", cla4cnt);
#else
    printf("%f\n", cla_f4data);
   2a3a4:	ed f7 80 62 	store32 gr31 gr30 3 <_cla_int_entry_group0_0+0x3>
   2a3a8:	94 20 02 01 	movigh gr2 20 <_cla_int_entry_group0_2>
   2a3ac:	94 23 00 c5 	movigl gr2 300c <.L0 +0xf>
   2a3b0:	94 40 00 11 	movigh gr4 1 <_cla_int_entry_group0_0+0x1>
   2a3b4:	14 40 01 25 ®░	movigl gr4 12 <_cla_int_entry_group0_1+0x2>
   2a3b8:	a8 50 80 02 ®Ė	load32 gr5 gr2 0 <_cla_int_entry_group0_0>
   2a3bc:	80 00 1d 0d 	call 2a760 <printf>
   2a3c0:	80 00 00 00 	nop
   2a3c4:	80 00 00 00 	nop
   2a3c8:	80 00 00 00 	nop
    puts("irq4");
   2a3cc:	94 40 00 11 	movigh gr4 1 <_cla_int_entry_group0_0+0x1>
   2a3d0:	94 40 01 65 	movigl gr4 16 <_cla_int_entry_group0_1+0x6>
   2a3d4:	80 00 56 8d 	call 2aea8 <puts>
   2a3d8:	80 00 00 00 	nop
   2a3dc:	80 00 00 00 	nop
   2a3e0:	80 00 00 00 	nop
#endif
}
   2a3e4:	a9 f7 80 62 	load32 gr31 gr30 3 <_cla_int_entry_group0_0+0x3>
   2a3e8:	99 e7 80 80 	addi gr30 gr30 10 <_cla_int_entry_group0_1>
   2a3ec:	80 00 00 04 	ret
   2a3f0:	80 00 00 00 	nop
   2a3f4:	80 00 00 00 	nop

0002a3f8 <cla5_ISR>:

static void cla5_ISR()
{
   2a3f8:	99 e7 bf 80 	addi gr30 gr30 fffffff0 <Flash0CtrlRegs+0xfef5fff0>
        printf("e5_%f\n", cla_fdata5);
    }
    cla5cnt++;
    printf("task5_%d\n", cla5cnt);
#else
    printf("%f\n", cla_f5data);
   2a3fc:	ed f7 80 62 	store32 gr31 gr30 3 <_cla_int_entry_group0_0+0x3>
   2a400:	94 20 02 01 	movigh gr2 20 <_cla_int_entry_group0_2>
   2a404:	94 23 01 05 	movigl gr2 3010 <.L0 +0x13>
   2a408:	94 40 00 11 	movigh gr4 1 <_cla_int_entry_group0_0+0x1>
   2a40c:	14 40 01 25 ®░	movigl gr4 12 <_cla_int_entry_group0_1+0x2>
   2a410:	a8 50 80 02 ®Ė	load32 gr5 gr2 0 <_cla_int_entry_group0_0>
   2a414:	80 00 1a 4d 	call 2a760 <printf>
   2a418:	80 00 00 00 	nop
   2a41c:	80 00 00 00 	nop
   2a420:	80 00 00 00 	nop
//    puts("irq5");
#endif
}
   2a424:	a9 f7 80 62 	load32 gr31 gr30 3 <_cla_int_entry_group0_0+0x3>
   2a428:	99 e7 80 80 	addi gr30 gr30 10 <_cla_int_entry_group0_1>
   2a42c:	80 00 00 04 	ret
   2a430:	80 00 00 00 	nop
   2a434:	80 00 00 00 	nop

0002a438 <cla6_ISR>:

static void cla6_ISR()
{
   2a438:	99 e7 bf 80 	addi gr30 gr30 fffffff0 <Flash0CtrlRegs+0xfef5fff0>
        printf("e6_%f\n", cla_fdata6);
    }
    cla6cnt++;
    printf("task6_%d\n", cla6cnt);
#else
    printf("e6_%f\n", cla_f6data);
   2a43c:	ed f7 80 62 	store32 gr31 gr30 3 <_cla_int_entry_group0_0+0x3>
   2a440:	94 20 02 01 	movigh gr2 20 <_cla_int_entry_group0_2>
   2a444:	94 23 01 45 	movigl gr2 3014 <.L0 +0x17>
   2a448:	94 40 00 11 	movigh gr4 1 <_cla_int_entry_group0_0+0x1>
   2a44c:	14 40 02 05 ®░	movigl gr4 20 <_cla_int_entry_group0_2>
   2a450:	a8 50 80 02 ®Ė	load32 gr5 gr2 0 <_cla_int_entry_group0_0>
   2a454:	80 00 18 4d 	call 2a760 <printf>
   2a458:	80 00 00 00 	nop
   2a45c:	80 00 00 00 	nop
   2a460:	80 00 00 00 	nop
//    puts("irq6");
//    CLA_performHardReset(CLA1_BASE); // hard  reset;
#endif
}
   2a464:	a9 f7 80 62 	load32 gr31 gr30 3 <_cla_int_entry_group0_0+0x3>
   2a468:	99 e7 80 80 	addi gr30 gr30 10 <_cla_int_entry_group0_1>
   2a46c:	80 00 00 04 	ret
   2a470:	80 00 00 00 	nop
   2a474:	80 00 00 00 	nop

0002a478 <cla7_ISR>:

static void cla7_ISR()
{
   2a478:	99 e7 bf 80 	addi gr30 gr30 fffffff0 <Flash0CtrlRegs+0xfef5fff0>
        printf("e7_%f\n", cla_fdata7);
    }
    cla7cnt++;
    printf("task7_%d\n", cla7cnt);
#else
    printf("%f\n", cla_f7data);
   2a47c:	ed f7 80 62 	store32 gr31 gr30 3 <_cla_int_entry_group0_0+0x3>
   2a480:	94 20 02 01 	movigh gr2 20 <_cla_int_entry_group0_2>
   2a484:	94 23 01 85 	movigl gr2 3018 <.L0 +0x1b>
   2a488:	94 40 00 11 	movigh gr4 1 <_cla_int_entry_group0_0+0x1>
   2a48c:	14 40 01 25 ®░	movigl gr4 12 <_cla_int_entry_group0_1+0x2>
   2a490:	a8 50 80 02 ®Ė	load32 gr5 gr2 0 <_cla_int_entry_group0_0>
   2a494:	80 00 16 4d 	call 2a760 <printf>
   2a498:	80 00 00 00 	nop
   2a49c:	80 00 00 00 	nop
   2a4a0:	80 00 00 00 	nop
//    puts("irq7");
#endif
}
   2a4a4:	a9 f7 80 62 	load32 gr31 gr30 3 <_cla_int_entry_group0_0+0x3>
   2a4a8:	99 e7 80 80 	addi gr30 gr30 10 <_cla_int_entry_group0_1>
   2a4ac:	80 00 00 04 	ret
   2a4b0:	80 00 00 00 	nop
   2a4b4:	80 00 00 00 	nop

0002a4b8 <cla8_ISR>:

static void cla8_ISR()
{
   2a4b8:	99 e7 bf 80 	addi gr30 gr30 fffffff0 <Flash0CtrlRegs+0xfef5fff0>
    printf("task8_%d\n", cla8cnt);
#else
    //test can read soften reg
//    printf("addr 0xe0 %d, 0x00 %d\n",cla_soften_data_addr0xe0 , cla_soften_data_addr0x00 );
//    puts("irq8");
    printf("%f\n", cla_f8data);
   2a4bc:	ed f7 80 62 	store32 gr31 gr30 3 <_cla_int_entry_group0_0+0x3>
   2a4c0:	94 20 02 01 	movigh gr2 20 <_cla_int_entry_group0_2>
   2a4c4:	94 23 02 c5 	movigl gr2 302c <.L0 +0x9>
   2a4c8:	94 40 00 11 	movigh gr4 1 <_cla_int_entry_group0_0+0x1>
   2a4cc:	14 40 01 25 ®░	movigl gr4 12 <_cla_int_entry_group0_1+0x2>
   2a4d0:	a8 50 80 02 ®Ė	load32 gr5 gr2 0 <_cla_int_entry_group0_0>
   2a4d4:	80 00 14 4d 	call 2a760 <printf>
   2a4d8:	80 00 00 00 	nop
   2a4dc:	80 00 00 00 	nop
   2a4e0:	80 00 00 00 	nop
#endif
}
   2a4e4:	a9 f7 80 62 	load32 gr31 gr30 3 <_cla_int_entry_group0_0+0x3>
   2a4e8:	99 e7 80 80 	addi gr30 gr30 10 <_cla_int_entry_group0_1>
   2a4ec:	80 00 00 04 	ret
   2a4f0:	80 00 00 00 	nop
   2a4f4:	80 00 00 00 	nop

0002a4f8 <chipAutotestCaseStart>:
#define CHIP_AUTOTEST_CASE_STS_START    (0x202101AA)
#define CHIP_AUTOTEST_CASE_STS_END      (0xCA5E8EAD)
#endif

void chipAutotestCaseStart()
{
   2a4f8:	80 00 00 00 	nop
#ifdef CHIP_AUTOTEST
    HWREG(CHIP_AUTOTEST_CASE_STS_MEM_ADDR) = CHIP_AUTOTEST_CASE_STS_START;
#endif
}
   2a4fc:	80 00 00 04 	ret
   2a500:	80 00 00 00 	nop
   2a504:	80 00 00 00 	nop

0002a508 <chipAutotestCaseEnd>:

void chipAutotestCaseEnd()
{
   2a508:	80 00 00 00 	nop
#ifdef CHIP_AUTOTEST
    HWREG(CHIP_AUTOTEST_CASE_STS_MEM_ADDR) = CHIP_AUTOTEST_CASE_STS_END;
#endif
}
   2a50c:	80 00 00 04 	ret
   2a510:	80 00 00 00 	nop
   2a514:	80 00 00 00 	nop

0002a518 <StdOutInit>:
        ;
}

__attribute__((weak)) void StdOutInit(
    volatile struct SCI_REGS *sci, int baudrate, uint32_t pin, uint32_t pin_mux)
{
   2a518:	99 e7 bf 80 	addi gr30 gr30 fffffff0 <Flash0CtrlRegs+0xfef5fff0>
    dbg_uart = sci;

    if (sci == &SciaRegs)
   2a51c:	ed f7 80 62 	store32 gr31 gr30 3 <_cla_int_entry_group0_0+0x3>
   2a520:	ed 07 80 42 	store32 gr16 gr30 2 <_cla_int_entry_group0_0+0x2>
   2a524:	94 20 10 91 	movigh gr2 109 <cla_interrupt_defaulthandler+0x9>
   2a528:	94 26 00 05 	movigl gr2 6000 <$line_table_start0+0x129>
   2a52c:	90 01 02 01 	neq gr4 gr2
}

__attribute__((weak)) void StdOutInit(
    volatile struct SCI_REGS *sci, int baudrate, uint32_t pin, uint32_t pin_mux)
{
    dbg_uart = sci;
   2a530:	94 20 00 11 	movigh gr2 1 <_cla_int_entry_group0_0+0x1>
   2a534:	94 20 4f 45 	movigl gr2 4f4 <.L0 +0x4>
   2a538:	11 01 80 80 ®░	movg2g gr16 gr6
   2a53c:	ec 40 80 02 ®Ė	store32 gr4 gr2 0 <_cla_int_entry_group0_0>

    if (sci == &SciaRegs)
        CpuSysRegs.PCLKCR7.bit.SCI_A = 1;
    else
    {
        CpuSysRegs.PCLKCR7.bit.SCI_B = 1;
   2a540:	94 20 10 71 	movigh gr2 107 <cla_interrupt_defaulthandler+0x7>
   2a544:	94 22 00 05 	movigl gr2 2000 <.L0 +0x24>
__attribute__((weak)) void StdOutInit(
    volatile struct SCI_REGS *sci, int baudrate, uint32_t pin, uint32_t pin_mux)
{
    dbg_uart = sci;

    if (sci == &SciaRegs)
   2a548:	80 00 00 e5 	jc 2a568 <StdOutInit+0x50>
   2a54c:	80 00 00 00 	nop
   2a550:	80 00 00 00 	nop
        CpuSysRegs.PCLKCR7.bit.SCI_A = 1;
   2a554:	a8 30 81 42 	load32 gr3 gr2 a <_core0_exp_start+0x5>
   2a558:	94 30 00 03 	bst gr3 0 <_cla_int_entry_group0_0>
   2a55c:	80 00 00 81 	jmp 2a570 <StdOutInit+0x58>
   2a560:	80 00 00 00 	nop
   2a564:	80 00 00 00 	nop
    else
    {
        CpuSysRegs.PCLKCR7.bit.SCI_B = 1;
   2a568:	a8 30 81 42 	load32 gr3 gr2 a <_core0_exp_start+0x5>
   2a56c:	94 30 02 03 	bst gr3 1 <_cla_int_entry_group0_0+0x1>
   2a570:	ec 30 81 42 	store32 gr3 gr2 a <_core0_exp_start+0x5>
    }

    // õĖ║ÕŖĀķĆ¤ÕēŹõ╗┐, ÕēŹõ╗┐ńÄ»Õóāµ│óńē╣ńÄćµĆ╗µś»ķģŹńĮ«Õł░µ£Ćķ½ś(ńö▒õ║Äbclkõ║¦ńö¤µ£║ÕłČķÖÉÕłČ,DLLÕ░Åõ║Ä2µŚČÕ░åµŚĀµ│ĢµēōÕŹ░)
    if (sim_env_flag)
   2a574:	94 20 00 11 	movigh gr2 1 <_cla_int_entry_group0_0+0x1>
   2a578:	94 20 4f 05 	movigl gr2 4f0 <.L0 >
   2a57c:	a8 20 80 00 	load8 gr2 gr2 0 <_cla_int_entry_group0_0>
   2a580:	94 00 80 02 	eqi gr2 0 <_cla_int_entry_group0_0>
   2a584:	80 00 02 25 	jc 2a5cc <StdOutInit+0xb4>
   2a588:	80 00 00 00 	nop
   2a58c:	80 00 00 00 	nop
    {
        sci->SCICCR.bit.SCICHAR  = 7;
   2a590:	14 30 00 79 ®░	moviglz gr3 7 <_core0_exp_start+0x2>
   2a594:	a8 21 00 01 ®Ė	load16 gr2 gr4 0 <_cla_int_entry_group0_0>
   2a598:	94 50 00 39 	moviglz gr5 3 <_cla_int_entry_group0_0+0x3>
   2a59c:	84 20 83 05 	or gr2 gr2 gr3
   2a5a0:	ec 21 00 01 	store16 gr2 gr4 0 <_cla_int_entry_group0_0>
        sci->SCILBAUD.all        = 3;
        sci->SCICTL1.bit.SWRESET = 1;
   2a5a4:	28 21 00 41 ®░	load16 gr2 gr4 2 <_cla_int_entry_group0_0+0x2>
   2a5a8:	ec 51 00 62 ®Ė	store32 gr5 gr4 3 <_cla_int_entry_group0_0+0x3>
   2a5ac:	94 20 0a 03 	bst gr2 5 <_core0_exp_start>
   2a5b0:	ec 21 00 41 	store16 gr2 gr4 2 <_cla_int_entry_group0_0+0x2>
        sci->SCICTL1.bit.TXENA   = 1;
   2a5b4:	a8 21 00 41 	load16 gr2 gr4 2 <_cla_int_entry_group0_0+0x2>
   2a5b8:	94 20 02 03 	bst gr2 1 <_cla_int_entry_group0_0+0x1>
   2a5bc:	ec 21 00 41 	store16 gr2 gr4 2 <_cla_int_entry_group0_0+0x2>
    }
   2a5c0:	80 00 06 21 	jmp 2a688 <StdOutInit+0x170>
   2a5c4:	80 00 00 00 	nop
   2a5c8:	80 00 00 00 	nop
   2a5cc:	94 20 00 11 	movigh gr2 1 <_cla_int_entry_group0_0+0x1>
   2a5d0:	94 20 03 c5 	movigl gr2 3c <.L0 +0x4>
   2a5d4:	94 30 00 11 	movigh gr3 1 <_cla_int_entry_group0_0+0x1>
   2a5d8:	94 30 04 85 	movigl gr3 48 <.L0 +0x7>
    else
    {
        // Baud = LSPCLK/((BRR + 1)*8)
        int val                 = (int)((((float)DEVICE_LSPCLK_FREQ) / baudrate / 8) - 1);
   2a5dc:	90 51 40 94 	fcvtfs gr5 gr5
   2a5e0:	94 60 00 11 	movigh gr6 1 <_cla_int_entry_group0_0+0x1>
   2a5e4:	14 60 04 05 ®░	movigl gr6 40 <_cla_int_entry_group0_4>
   2a5e8:	a8 20 80 02 ®Ė	load32 gr2 gr2 0 <_cla_int_entry_group0_0>
   2a5ec:	14 80 0f f9 ®░	moviglz gr8 ff <.L0 +0x6>
   2a5f0:	a8 30 c0 02 ®Ė	load32 gr3 gr3 0 <_cla_int_entry_group0_0>
   2a5f4:	14 90 00 79 ®░	moviglz gr9 7 <_core0_exp_start+0x2>
   2a5f8:	a8 61 80 02 ®Ė	load32 gr6 gr6 0 <_cla_int_entry_group0_0>
   2a5fc:	04 20 85 6e ®░	fsdiv gr2 gr2 gr5
   2a600:	a8 a1 00 01 ®Ė	load16 gr10 gr4 0 <_cla_int_entry_group0_0>
   2a604:	84 20 83 8a 	fsmul gr2 gr2 gr3
   2a608:	84 20 86 62 	fsadd gr2 gr2 gr6
        sci->SCICCR.bit.SCICHAR = 7;
   2a60c:	84 32 89 05 	or gr3 gr10 gr9
   2a610:	10 20 80 90 ®░	fcvtsf gr2 gr2
   2a614:	ec 31 00 01 ®Ė	store16 gr3 gr4 0 <_cla_int_entry_group0_0>
        // µ│óńē╣ńÄćĶ«Īń«ŚÕģ¼Õ╝Å: SYSTEM_CLOCK / DLL.(DLF/16*10) * 16)
        sci->SCILBAUD.all        = val & 0xFF;
   2a618:	84 30 88 04 	and gr3 gr2 gr8
        sci->SCIHBAUD.all        = val >> 8;
   2a61c:	18 20 88 0a ®░	srai gr2 gr2 8 <_core0_exp_start+0x3>
   2a620:	ec 31 00 62 ®Ė	store32 gr3 gr4 3 <_cla_int_entry_group0_0+0x3>
   2a624:	ec 21 00 42 	store32 gr2 gr4 2 <_cla_int_entry_group0_0+0x2>
        sci->SCICTL1.bit.SWRESET = 1;
   2a628:	a8 21 00 41 	load16 gr2 gr4 2 <_cla_int_entry_group0_0+0x2>
   2a62c:	94 20 0a 03 	bst gr2 5 <_core0_exp_start>
   2a630:	ec 21 00 41 	store16 gr2 gr4 2 <_cla_int_entry_group0_0+0x2>
        sci->SCICTL1.bit.TXENA   = 1;
   2a634:	a8 21 00 41 	load16 gr2 gr4 2 <_cla_int_entry_group0_0+0x2>
   2a638:	94 20 02 03 	bst gr2 1 <_cla_int_entry_group0_0+0x1>
   2a63c:	90 31 00 80 	movg2g gr3 gr4

        GPIO_setPinConfig(pin_mux);
   2a640:	10 41 c0 80 ®░	movg2g gr4 gr7
   2a644:	ec 20 c0 41 ®Ė	store16 gr2 gr3 2 <_cla_int_entry_group0_0+0x2>
   2a648:	80 00 5d ad 	call 2b200 <GPIO_setPinConfig>
   2a64c:	80 00 00 00 	nop
   2a650:	80 00 00 00 	nop
   2a654:	80 00 00 00 	nop
   2a658:	94 50 00 19 	moviglz gr5 1 <_cla_int_entry_group0_0+0x1>
        GPIO_setDirectionMode(pin, GPIO_DIR_MODE_OUT);
   2a65c:	90 44 00 80 	movg2g gr4 gr16
   2a660:	80 00 51 ed 	call 2b0a0 <GPIO_setDirectionMode>
   2a664:	80 00 00 00 	nop
   2a668:	80 00 00 00 	nop
   2a66c:	80 00 00 00 	nop
   2a670:	94 50 00 09 	moviglz gr5 0 <_cla_int_entry_group0_0>
        GPIO_setPadConfig(pin, GPIO_PIN_TYPE_STD);
   2a674:	90 44 00 80 	movg2g gr4 gr16
   2a678:	80 00 54 ad 	call 2b110 <GPIO_setPadConfig>
   2a67c:	80 00 00 00 	nop
   2a680:	80 00 00 00 	nop
   2a684:	80 00 00 00 	nop
    }
}
   2a688:	a9 07 80 42 	load32 gr16 gr30 2 <_cla_int_entry_group0_0+0x2>
   2a68c:	a9 f7 80 62 	load32 gr31 gr30 3 <_cla_int_entry_group0_0+0x3>
   2a690:	99 e7 80 80 	addi gr30 gr30 10 <_cla_int_entry_group0_1>
   2a694:	80 00 00 04 	ret
   2a698:	80 00 00 00 	nop
   2a69c:	80 00 00 00 	nop

0002a6a0 <EndSimulation>:

// õĖ╗ÕŖ©ń╗ōµØ¤ VCS or FPGA õ╗┐ń£¤
__attribute__((weak)) void EndSimulation(void)
{
   2a6a0:	99 e7 bf 80 	addi gr30 gr30 fffffff0 <Flash0CtrlRegs+0xfef5fff0>
   2a6a4:	ed f7 80 62 	store32 gr31 gr30 3 <_cla_int_entry_group0_0+0x3>
   2a6a8:	94 40 00 49 	moviglz gr4 4 <_cla_int_entry_group0_0+0x4>
    // for VCS simulation end
    putchar(0x4);
   2a6ac:	80 00 01 8d 	call 2a6e0 <putchar>
   2a6b0:	80 00 00 00 	nop
   2a6b4:	80 00 00 00 	nop
   2a6b8:	80 00 00 00 	nop
    // for chip autotest
    chipAutotestCaseEnd();
   2a6bc:	83 ff f2 4d 	call 2a508 <chipAutotestCaseEnd>
   2a6c0:	80 00 00 00 	nop
   2a6c4:	80 00 00 00 	nop
   2a6c8:	80 00 00 00 	nop
}
   2a6cc:	a9 f7 80 62 	load32 gr31 gr30 3 <_cla_int_entry_group0_0+0x3>
   2a6d0:	99 e7 80 80 	addi gr30 gr30 10 <_cla_int_entry_group0_1>
   2a6d4:	80 00 00 04 	ret
   2a6d8:	80 00 00 00 	nop
   2a6dc:	80 00 00 00 	nop

0002a6e0 <putchar>:

// Ķć¬Õ«×ńÄ░puts+printfÕćĮµĢ░(õĖŹõŠØĶĄ¢libcÕ║ō)
#include <stdarg.h>

__attribute__((weak)) void putchar(char c)
{
   2a6e0:	80 00 00 00 	nop
   2a6e4:	94 30 00 19 	moviglz gr3 1 <_cla_int_entry_group0_0+0x1>
    while (!dbg_uart->SCICTL2.bit.TXRDY)
   2a6e8:	94 20 00 11 	movigh gr2 1 <_cla_int_entry_group0_0+0x1>
   2a6ec:	94 20 4f 45 	movigl gr2 4f4 <.L0 +0x4>
   2a6f0:	a8 20 80 02 	load32 gr2 gr2 0 <_cla_int_entry_group0_0>
   2a6f4:	a8 20 81 01 	load16 gr2 gr2 8 <_core0_exp_start+0x3>
   2a6f8:	98 20 87 0e 	srli gr2 gr2 7 <_core0_exp_start+0x2>
   2a6fc:	84 20 83 04 	and gr2 gr2 gr3
   2a700:	94 00 80 02 	eqi gr2 0 <_cla_int_entry_group0_0>
   2a704:	83 ff ff 05 	jc 2a6e8 <putchar+0x8>
   2a708:	80 00 00 00 	nop
   2a70c:	80 00 00 00 	nop
        ;
    dbg_uart->SCITXBUF.all = c;
   2a710:	94 20 00 11 	movigh gr2 1 <_cla_int_entry_group0_0+0x1>
   2a714:	94 20 4f 45 	movigl gr2 4f4 <.L0 +0x4>
   2a718:	18 31 18 06 ®░	sli gr3 gr4 18 <_core1_exp_start+0x1>
   2a71c:	a8 20 80 02 ®Ė	load32 gr2 gr2 0 <_cla_int_entry_group0_0>
   2a720:	98 30 d8 0a 	srai gr3 gr3 18 <_core1_exp_start+0x1>
   2a724:	ec 30 81 22 	store32 gr3 gr2 9 <_core0_exp_start+0x4>
   2a728:	94 30 00 19 	moviglz gr3 1 <_cla_int_entry_group0_0+0x1>
    while (!dbg_uart->SCICTL2.bit.TXRDY)
   2a72c:	94 20 00 11 	movigh gr2 1 <_cla_int_entry_group0_0+0x1>
   2a730:	94 20 4f 45 	movigl gr2 4f4 <.L0 +0x4>
   2a734:	a8 20 80 02 	load32 gr2 gr2 0 <_cla_int_entry_group0_0>
   2a738:	a8 20 81 01 	load16 gr2 gr2 8 <_core0_exp_start+0x3>
   2a73c:	98 20 87 0e 	srli gr2 gr2 7 <_core0_exp_start+0x2>
   2a740:	84 20 83 04 	and gr2 gr2 gr3
   2a744:	94 00 80 02 	eqi gr2 0 <_cla_int_entry_group0_0>
   2a748:	83 ff ff 05 	jc 2a72c <putchar+0x4c>
   2a74c:	80 00 00 00 	nop
   2a750:	80 00 00 00 	nop
        ;
}
   2a754:	80 00 00 04 	ret
   2a758:	80 00 00 00 	nop
   2a75c:	80 00 00 00 	nop

0002a760 <printf>:
}

// Ķ┐öÕø×ÕĆ╝õĖ║µēōÕŹ░ÕŁŚń¼”ńÜäõĖ¬µĢ░
// µö»µīü%d, %x’╝ī%s’╝ī%c’╝ī%f’╝łÕÅ¬µēōÕŹ░6õĮŹµĢ░ÕŁŚ’╝ē
__attribute__((weak)) int printf(const char *str, ...)
{
   2a760:	99 e7 be 80 	addi gr30 gr30 ffffffd0 <Flash0CtrlRegs+0xfef5ffd0>
   2a764:	ed f7 81 42 	store32 gr31 gr30 a <_core0_exp_start+0x5>
   2a768:	ed 67 81 22 	store32 gr22 gr30 9 <_core0_exp_start+0x4>
   2a76c:	ed 57 81 02 	store32 gr21 gr30 8 <_core0_exp_start+0x3>
   2a770:	ed 47 80 e2 	store32 gr20 gr30 7 <_core0_exp_start+0x2>
   2a774:	ed 37 80 c2 	store32 gr19 gr30 6 <_core0_exp_start+0x1>
   2a778:	ed 27 80 a2 	store32 gr18 gr30 5 <_core0_exp_start>
   2a77c:	ed 17 80 82 	store32 gr17 gr30 4 <_cla_int_entry_group0_0+0x4>
   2a780:	ed 07 80 62 	store32 gr16 gr30 3 <_cla_int_entry_group0_0+0x3>
   2a784:	18 27 81 60 ®░	addi gr2 gr30 2c <.L0 +0x6>
   2a788:	ec 77 81 a2 ®Ė	store32 gr7 gr30 d <_core0_exp_start+0x8>
   2a78c:	ec 67 81 82 	store32 gr6 gr30 c <_core0_exp_start+0x7>
   2a790:	15 10 00 09 ®░	moviglz gr17 0 <_cla_int_entry_group0_0>
   2a794:	ec 57 81 62 ®Ė	store32 gr5 gr30 b <_core0_exp_start+0x6>
   2a798:	11 21 00 80 ®░	movg2g gr18 gr4
   2a79c:	ec 27 80 42 ®Ė	store32 gr2 gr30 2 <_cla_int_entry_group0_0+0x2>
   2a7a0:	91 04 40 80 	movg2g gr16 gr17
    int cnt                 = 0;           // µĢ░µŹ«ķĢ┐Õ║”Ķ«ĪµĢ░
    int i                   = 0;

    va_list pArgs;        // Õ«Üõ╣ēva_listń▒╗Õ×ŗµīćķÆł’╝īńö©õ║ÄÕŁśÕé©ÕÅéµĢ░ńÜäÕ£░ÕØĆ
    va_start(pArgs, str); // ÕłØÕ¦ŗÕī¢pArgs
    while (*pStr != '\0')
   2a7a4:	a8 24 80 00 	load8 gr2 gr18 0 <_cla_int_entry_group0_0>
   2a7a8:	90 20 80 46 	cbw gr2 gr2
   2a7ac:	94 00 80 02 	eqi gr2 0 <_cla_int_entry_group0_0>
   2a7b0:	80 00 34 05 	jc 2ae34 <.L0 +0x2c>
   2a7b4:	80 00 00 00 	nop
   2a7b8:	80 00 00 00 	nop
    {
        switch (*pStr)
   2a7bc:	a8 24 80 00 	load8 gr2 gr18 0 <_cla_int_entry_group0_0>
   2a7c0:	90 20 80 46 	cbw gr2 gr2
   2a7c4:	98 20 bf b8 	addi gr2 gr2 fffffff7 <Flash0CtrlRegs+0xfef5fff7>
   2a7c8:	94 00 83 93 	gtiu gr2 1c <_core1_exp_start+0x5>
   2a7cc:	80 00 31 c5 	jc 2ae08 <.L0 >
   2a7d0:	80 00 00 00 	nop
   2a7d4:	80 00 00 00 	nop
   2a7d8:	98 20 82 06 	sli gr2 gr2 2 <_cla_int_entry_group0_0+0x2>
   2a7dc:	94 30 00 11 	movigh gr3 1 <_cla_int_entry_group0_0+0x1>
   2a7e0:	94 30 04 c5 	movigl gr3 4c <.L0 +0xb>
   2a7e4:	84 20 83 00 	add gr2 gr2 gr3
   2a7e8:	a8 20 80 02 	load32 gr2 gr2 0 <_cla_int_entry_group0_0>
   2a7ec:	80 00 80 03 	jmpr gr2
   2a7f0:	80 00 00 00 	nop
   2a7f4:	80 00 00 00 	nop

0002a7f8 <.L0 >:
            case '\n':
                putchar(*pStr);
                ret_num++;
                break;
            case '\t':
                putchar(*pStr);
   2a7f8:	a8 24 80 00 	load8 gr2 gr18 0 <_cla_int_entry_group0_0>
   2a7fc:	90 40 80 46 	cbw gr4 gr2
   2a800:	83 ff f6 ed 	call 2a6e0 <putchar>
   2a804:	80 00 00 00 	nop
   2a808:	80 00 00 00 	nop
   2a80c:	80 00 00 00 	nop
                ret_num += 4;
   2a810:	99 14 40 20 	addi gr17 gr17 4 <_cla_int_entry_group0_0+0x4>
                break;
   2a814:	80 00 30 61 	jmp 2ae24 <.L0 +0x1c>
   2a818:	80 00 00 00 	nop
   2a81c:	80 00 00 00 	nop

0002a820 <.L0 >:
            case '%':
                pStr++;
                // % µĀ╝Õ╝ÅĶ¦Żµ×É
                switch (*pStr)
   2a820:	a8 24 80 20 	load8 gr2 gr18 1 <_cla_int_entry_group0_0+0x1>
   2a824:	90 20 80 46 	cbw gr2 gr2
   2a828:	94 00 84 a2 	eqi gr2 25 <_cla_int_entry_group0_2+0x5>
            case '\t':
                putchar(*pStr);
                ret_num += 4;
                break;
            case '%':
                pStr++;
   2a82c:	99 64 80 08 	addi gr22 gr18 1 <_cla_int_entry_group0_0+0x1>
                // % µĀ╝Õ╝ÅĶ¦Żµ×É
                switch (*pStr)
   2a830:	80 00 0a a5 	jc 2a988 <.L0 +0x168>
   2a834:	80 00 00 00 	nop
   2a838:	80 00 00 00 	nop
   2a83c:	94 00 8c 62 	eqi gr2 63 <_cla_int_entry_group0_6+0x3>
   2a840:	80 00 0b 65 	jc 2a9b0 <.L0 +0x190>
   2a844:	80 00 00 00 	nop
   2a848:	80 00 00 00 	nop
   2a84c:	94 00 8c 82 	eqi gr2 64 <_cla_int_entry_group0_6+0x4>
   2a850:	80 00 12 45 	jc 2aa9c <.L0 +0x27c>
   2a854:	80 00 00 00 	nop
   2a858:	80 00 00 00 	nop
   2a85c:	94 00 8c c2 	eqi gr2 66 <_cla_int_entry_group0_6+0x6>
   2a860:	80 00 1b 45 	jc 2abcc <.L0 +0x3ac>
   2a864:	80 00 00 00 	nop
   2a868:	80 00 00 00 	nop
   2a86c:	94 00 8e 62 	eqi gr2 73 <_cla_int_entry_group0_7+0x3>
   2a870:	80 00 0b 05 	jc 2a9d4 <.L0 +0x1b4>
   2a874:	80 00 00 00 	nop
   2a878:	80 00 00 00 	nop
   2a87c:	94 00 8f 02 	eqi gr2 78 <.L0 +0x1>
   2a880:	80 00 2a e9 	jnc 2ade0 <.L0 +0x5c0>
   2a884:	80 00 00 00 	nop
   2a888:	80 00 00 00 	nop
                        continue;
#endif
#if 1
                    case 'x':
                        // µÄźµöČ16Ķ┐øÕłČ
                        ArgHexVal = va_arg(pArgs, unsigned long);
   2a88c:	14 20 00 19 ®░	moviglz gr2 1 <_cla_int_entry_group0_0+0x1>
   2a890:	a8 37 80 42 ®Ė	load32 gr3 gr30 2 <_cla_int_entry_group0_0+0x2>
   2a894:	98 40 c0 20 	addi gr4 gr3 4 <_cla_int_entry_group0_0+0x4>
   2a898:	ec 47 80 42 	store32 gr4 gr30 2 <_cla_int_entry_group0_0+0x2>
   2a89c:	a9 20 c0 02 	load32 gr18 gr3 0 <_cla_int_entry_group0_0>
                        val_seg   = ArgHexVal;
                        // Ķ«Īń«ŚArgIntValķĢ┐Õ║”
                        if (ArgHexVal)
   2a8a0:	94 04 80 02 	eqi gr18 0 <_cla_int_entry_group0_0>
   2a8a4:	90 34 80 80 	movg2g gr3 gr18
   2a8a8:	80 00 00 e5 	jc 2a8c8 <.L0 +0xa8>
   2a8ac:	80 00 00 00 	nop
   2a8b0:	80 00 00 00 	nop
                        {
                            while (val_seg)
   2a8b4:	94 00 c0 02 	eqi gr3 0 <_cla_int_entry_group0_0>
   2a8b8:	80 00 0c 69 	jnc 2aa48 <.L0 +0x228>
   2a8bc:	80 00 00 00 	nop
   2a8c0:	80 00 00 00 	nop
   2a8c4:	90 24 00 80 	movg2g gr2 gr16
                            }
                        }
                        else
                            cnt = 1; // µĢ░ÕŁŚ0ńÜäķĢ┐Õ║”õĖ║1

                        ret_num += cnt; // ÕŁŚń¼”õĖ¬µĢ░ÕŖĀõĖŖµĢ┤µĢ░ńÜäķĢ┐Õ║”
   2a8c8:	85 14 42 00 	add gr17 gr17 gr2
   2a8cc:	91 00 80 80 	movg2g gr16 gr2
                        // Õ░åµĢ┤µĢ░ĶĮ¼õĖ║ÕŹĢõĖ¬ÕŁŚń¼”µēōÕŹ░
                        while (cnt)
   2a8d0:	94 04 00 02 	eqi gr16 0 <_cla_int_entry_group0_0>
   2a8d4:	80 00 0d a5 	jc 2aa8c <.L0 +0x26c>
   2a8d8:	80 00 00 00 	nop
   2a8dc:	80 00 00 00 	nop
                        {
                            val_seg = ArgHexVal / m_pow_n(16, cnt - 1);
   2a8e0:	99 44 3f f8 	addi gr20 gr16 ffffffff <Flash0CtrlRegs+0xfef5ffff>
   2a8e4:	95 50 01 09 	moviglz gr21 10 <_cla_int_entry_group0_1>
   2a8e8:	90 45 40 80 	movg2g gr4 gr21
   2a8ec:	90 55 00 80 	movg2g gr5 gr20
   2a8f0:	80 00 31 6d 	call 2af20 <m_pow_n>
   2a8f4:	80 00 00 00 	nop
   2a8f8:	80 00 00 00 	nop
   2a8fc:	80 00 00 00 	nop
   2a900:	90 50 80 80 	movg2g gr5 gr2
   2a904:	90 44 80 80 	movg2g gr4 gr18
   2a908:	83 ff 94 6d 	call 29b98 <__udivsi3>
   2a90c:	80 00 00 00 	nop
   2a910:	80 00 00 00 	nop
   2a914:	80 00 00 00 	nop
   2a918:	91 30 80 80 	movg2g gr19 gr2
                            ArgHexVal %= m_pow_n(16, cnt - 1);
   2a91c:	90 45 40 80 	movg2g gr4 gr21
   2a920:	90 55 00 80 	movg2g gr5 gr20
   2a924:	80 00 2f cd 	call 2af20 <m_pow_n>
   2a928:	80 00 00 00 	nop
   2a92c:	80 00 00 00 	nop
   2a930:	80 00 00 00 	nop
   2a934:	90 50 80 80 	movg2g gr5 gr2
   2a938:	90 44 80 80 	movg2g gr4 gr18
   2a93c:	83 ff a0 4d 	call 29d48 <__umodsi3>
   2a940:	80 00 00 00 	nop
   2a944:	80 00 00 00 	nop
   2a948:	80 00 00 00 	nop
                            if (val_seg <= 9)
   2a94c:	94 04 c1 33 	gtiu gr19 9 <_core0_exp_start+0x4>
                        ret_num += cnt; // ÕŁŚń¼”õĖ¬µĢ░ÕŖĀõĖŖµĢ┤µĢ░ńÜäķĢ┐Õ║”
                        // Õ░åµĢ┤µĢ░ĶĮ¼õĖ║ÕŹĢõĖ¬ÕŁŚń¼”µēōÕŹ░
                        while (cnt)
                        {
                            val_seg = ArgHexVal / m_pow_n(16, cnt - 1);
                            ArgHexVal %= m_pow_n(16, cnt - 1);
   2a950:	80 00 00 00 	nop
   2a954:	80 00 00 00 	nop
   2a958:	80 00 00 00 	nop
   2a95c:	80 00 00 00 	nop
   2a960:	91 20 80 80 	movg2g gr18 gr2
                            if (val_seg <= 9)
                                putchar((char)val_seg + '0');
                            else
                            {
                                // putchar((char)val_seg - 10 + 'a'); //Õ░ÅÕåÖÕŁŚµ»Ź
                                putchar((char)val_seg - 10 + 'A');
   2a964:	98 24 d8 06 	sli gr2 gr19 18 <_core1_exp_start+0x1>
   2a968:	80 00 07 85 	jc 2aa5c <.L0 +0x23c>
   2a96c:	80 00 00 00 	nop
   2a970:	80 00 00 00 	nop
   2a974:	94 33 00 01 	movigh gr3 3000 <.L0 +0x3>
   2a978:	94 30 00 05 	movigl gr3 0 <_cla_int_entry_group0_0>
                        while (cnt)
                        {
                            val_seg = ArgHexVal / m_pow_n(16, cnt - 1);
                            ArgHexVal %= m_pow_n(16, cnt - 1);
                            if (val_seg <= 9)
                                putchar((char)val_seg + '0');
   2a97c:	80 00 07 21 	jmp 2aa64 <.L0 +0x244>
   2a980:	80 00 00 00 	nop
   2a984:	80 00 00 00 	nop
   2a988:	94 40 02 59 	moviglz gr4 25 <_cla_int_entry_group0_2+0x5>
   2a98c:	83 ff ea 8d 	call 2a6e0 <putchar>
   2a990:	80 00 00 00 	nop
   2a994:	80 00 00 00 	nop
   2a998:	80 00 00 00 	nop
   2a99c:	99 14 40 08 	addi gr17 gr17 1 <_cla_int_entry_group0_0+0x1>
   2a9a0:	99 25 80 08 	addi gr18 gr22 1 <_cla_int_entry_group0_0+0x1>
                            putchar((char)val_seg + '0');
                            cnt--;
                        }
                        ret_num += 6;
                        pStr++;
                        continue;
   2a9a4:	83 ff ef e1 	jmp 2a7a4 <printf+0x44>
   2a9a8:	80 00 00 00 	nop
   2a9ac:	80 00 00 00 	nop
                        ret_num++;
                        pStr++;
                        continue;
#if 1
                    case 'c':
                        ArgIntVal = va_arg(pArgs, int); // %c’╝īĶŠōÕć║char
   2a9b0:	a8 27 80 42 	load32 gr2 gr30 2 <_cla_int_entry_group0_0+0x2>
   2a9b4:	98 30 80 20 	addi gr3 gr2 4 <_cla_int_entry_group0_0+0x4>
   2a9b8:	ec 37 80 42 	store32 gr3 gr30 2 <_cla_int_entry_group0_0+0x2>
   2a9bc:	a8 20 80 02 	load32 gr2 gr2 0 <_cla_int_entry_group0_0>
                        putchar((char)ArgIntVal);
   2a9c0:	98 20 98 06 	sli gr2 gr2 18 <_core1_exp_start+0x1>
   2a9c4:	98 40 98 0a 	srai gr4 gr2 18 <_core1_exp_start+0x1>
   2a9c8:	83 ff fe 01 	jmp 2a98c <.L0 +0x16c>
   2a9cc:	80 00 00 00 	nop
   2a9d0:	80 00 00 00 	nop
                        ret_num++;
                        pStr++;
                        continue;
                    case 's':
                        // µÄźµöČÕŁŚń¼”
                        ArgStrVal = va_arg(pArgs, char *);
   2a9d4:	a8 27 80 42 	load32 gr2 gr30 2 <_cla_int_entry_group0_0+0x2>
   2a9d8:	98 30 80 20 	addi gr3 gr2 4 <_cla_int_entry_group0_0+0x4>
   2a9dc:	ec 37 80 42 	store32 gr3 gr30 2 <_cla_int_entry_group0_0+0x2>
   2a9e0:	a9 20 80 02 	load32 gr18 gr2 0 <_cla_int_entry_group0_0>
                        ret_num += (unsigned int)strlen(ArgStrVal);
   2a9e4:	90 44 80 80 	movg2g gr4 gr18
   2a9e8:	83 ff 76 2d 	call 298b0 <strlen>
   2a9ec:	80 00 00 00 	nop
   2a9f0:	80 00 00 00 	nop
   2a9f4:	80 00 00 00 	nop
   2a9f8:	85 14 42 00 	add gr17 gr17 gr2
                        while (*ArgStrVal)
   2a9fc:	a8 24 80 00 	load8 gr2 gr18 0 <_cla_int_entry_group0_0>
   2aa00:	94 00 80 02 	eqi gr2 0 <_cla_int_entry_group0_0>
   2aa04:	80 00 01 85 	jc 2aa38 <.L0 +0x218>
   2aa08:	80 00 00 00 	nop
   2aa0c:	80 00 00 00 	nop
                        {
                            putchar(*ArgStrVal);
   2aa10:	a8 24 80 00 	load8 gr2 gr18 0 <_cla_int_entry_group0_0>
   2aa14:	90 40 80 46 	cbw gr4 gr2
   2aa18:	83 ff e6 2d 	call 2a6e0 <putchar>
   2aa1c:	80 00 00 00 	nop
   2aa20:	80 00 00 00 	nop
   2aa24:	80 00 00 00 	nop
                            ArgStrVal++;
   2aa28:	99 24 80 08 	addi gr18 gr18 1 <_cla_int_entry_group0_0+0x1>
                        continue;
                    case 's':
                        // µÄźµöČÕŁŚń¼”
                        ArgStrVal = va_arg(pArgs, char *);
                        ret_num += (unsigned int)strlen(ArgStrVal);
                        while (*ArgStrVal)
   2aa2c:	83 ff fe 61 	jmp 2a9fc <.L0 +0x1dc>
   2aa30:	80 00 00 00 	nop
   2aa34:	80 00 00 00 	nop
                        {
                            putchar(*ArgStrVal);
                            ArgStrVal++;
                        }
                        pStr++;
   2aa38:	99 25 80 08 	addi gr18 gr22 1 <_cla_int_entry_group0_0+0x1>
                            putchar((char)val_seg + '0');
                            cnt--;
                        }
                        ret_num += 6;
                        pStr++;
                        continue;
   2aa3c:	83 ff eb 21 	jmp 2a7a4 <printf+0x44>
   2aa40:	80 00 00 00 	nop
   2aa44:	80 00 00 00 	nop
                        // Ķ«Īń«ŚArgIntValķĢ┐Õ║”
                        if (ArgHexVal)
                        {
                            while (val_seg)
                            {
                                cnt++;
   2aa48:	99 04 00 08 	addi gr16 gr16 1 <_cla_int_entry_group0_0+0x1>
                                val_seg /= 16;
   2aa4c:	98 30 c4 0e 	srli gr3 gr3 4 <_cla_int_entry_group0_0+0x4>
                        ArgHexVal = va_arg(pArgs, unsigned long);
                        val_seg   = ArgHexVal;
                        // Ķ«Īń«ŚArgIntValķĢ┐Õ║”
                        if (ArgHexVal)
                        {
                            while (val_seg)
   2aa50:	83 ff f3 01 	jmp 2a8b4 <.L0 +0x94>
   2aa54:	80 00 00 00 	nop
   2aa58:	80 00 00 00 	nop
   2aa5c:	94 33 70 01 	movigh gr3 3700 <.L0 +0x2e>
   2aa60:	94 30 00 05 	movigl gr3 0 <_cla_int_entry_group0_0>
   2aa64:	84 20 83 00 	add gr2 gr2 gr3
   2aa68:	98 40 98 0a 	srai gr4 gr2 18 <_core1_exp_start+0x1>
   2aa6c:	83 ff e3 8d 	call 2a6e0 <putchar>
   2aa70:	80 00 00 00 	nop
   2aa74:	80 00 00 00 	nop
   2aa78:	80 00 00 00 	nop
                            else
                            {
                                // putchar((char)val_seg - 10 + 'a'); //Õ░ÅÕåÖÕŁŚµ»Ź
                                putchar((char)val_seg - 10 + 'A');
                            }
                            cnt--;
   2aa7c:	99 04 3f f8 	addi gr16 gr16 ffffffff <Flash0CtrlRegs+0xfef5ffff>
                        else
                            cnt = 1; // µĢ░ÕŁŚ0ńÜäķĢ┐Õ║”õĖ║1

                        ret_num += cnt; // ÕŁŚń¼”õĖ¬µĢ░ÕŖĀõĖŖµĢ┤µĢ░ńÜäķĢ┐Õ║”
                        // Õ░åµĢ┤µĢ░ĶĮ¼õĖ║ÕŹĢõĖ¬ÕŁŚń¼”µēōÕŹ░
                        while (cnt)
   2aa80:	83 ff f2 61 	jmp 2a8d0 <.L0 +0xb0>
   2aa84:	80 00 00 00 	nop
   2aa88:	80 00 00 00 	nop
                                // putchar((char)val_seg - 10 + 'a'); //Õ░ÅÕåÖÕŁŚµ»Ź
                                putchar((char)val_seg - 10 + 'A');
                            }
                            cnt--;
                        }
                        pStr++;
   2aa8c:	99 25 80 08 	addi gr18 gr22 1 <_cla_int_entry_group0_0+0x1>
                            putchar((char)val_seg + '0');
                            cnt--;
                        }
                        ret_num += 6;
                        pStr++;
                        continue;
   2aa90:	83 ff e8 81 	jmp 2a7a4 <printf+0x44>
   2aa94:	80 00 00 00 	nop
   2aa98:	80 00 00 00 	nop
                        continue;
#endif
#if 1
                    case 'd':
                        // µÄźµöČµĢ┤Õ×ŗ
                        ArgIntVal = va_arg(pArgs, int);
   2aa9c:	a8 27 80 42 	load32 gr2 gr30 2 <_cla_int_entry_group0_0+0x2>
   2aaa0:	98 30 80 20 	addi gr3 gr2 4 <_cla_int_entry_group0_0+0x4>
   2aaa4:	ec 37 80 42 	store32 gr3 gr30 2 <_cla_int_entry_group0_0+0x2>
   2aaa8:	a9 20 80 02 	load32 gr18 gr2 0 <_cla_int_entry_group0_0>
                        if (ArgIntVal < 0) // Õ”éµ×£õĖ║Ķ┤¤µĢ░µēōÕŹ░’╝īĶ┤¤ÕÅĘ
   2aaac:	94 04 bf ea 	gti gr18 ffffffff <Flash0CtrlRegs+0xfef5ffff>
   2aab0:	80 00 01 25 	jc 2aad8 <.L0 +0x2b8>
   2aab4:	80 00 00 00 	nop
   2aab8:	80 00 00 00 	nop
   2aabc:	94 40 02 d9 	moviglz gr4 2d <.L0 +0x7>
                        {
                            ArgIntVal = -ArgIntVal; // ÕÅ¢ńøĖÕÅŹµĢ░
   2aac0:	91 20 00 41 	neg gr18

                            putchar('-');
   2aac4:	83 ff e0 cd 	call 2a6e0 <putchar>
   2aac8:	80 00 00 00 	nop
   2aacc:	80 00 00 00 	nop
   2aad0:	80 00 00 00 	nop
                            ret_num++;
   2aad4:	99 14 40 08 	addi gr17 gr17 1 <_cla_int_entry_group0_0+0x1>
                        }
                        val_seg = ArgIntVal; // ĶĄŗÕĆ╝ń╗Ö val_segÕżäńÉåµĢ░µŹ«
                        // Ķ«Īń«ŚArgIntValķĢ┐Õ║”
                        if (ArgIntVal)
   2aad8:	94 04 80 02 	eqi gr18 0 <_cla_int_entry_group0_0>
   2aadc:	94 30 00 19 	moviglz gr3 1 <_cla_int_entry_group0_0+0x1>
   2aae0:	90 24 80 80 	movg2g gr2 gr18
   2aae4:	80 00 00 e5 	jc 2ab04 <.L0 +0x2e4>
   2aae8:	80 00 00 00 	nop
   2aaec:	80 00 00 00 	nop
                        {
                            while (val_seg)
   2aaf0:	94 00 80 02 	eqi gr2 0 <_cla_int_entry_group0_0>
   2aaf4:	80 00 1b 89 	jnc 2ae68 <.L0 +0x60>
   2aaf8:	80 00 00 00 	nop
   2aafc:	80 00 00 00 	nop
   2ab00:	90 34 00 80 	movg2g gr3 gr16
                            }
                        }
                        else
                            cnt = 1; // µĢ░ÕŁŚ0ńÜäķĢ┐Õ║”õĖ║1

                        ret_num += cnt; // ÕŁŚń¼”õĖ¬µĢ░ÕŖĀõĖŖµĢ┤µĢ░ńÜäķĢ┐Õ║”
   2ab04:	85 14 43 00 	add gr17 gr17 gr3
   2ab08:	91 00 c0 80 	movg2g gr16 gr3

                        // Õ░åµĢ┤µĢ░ĶĮ¼õĖ║ÕŹĢõĖ¬ÕŁŚń¼”µēōÕŹ░
                        while (cnt)
   2ab0c:	94 04 00 02 	eqi gr16 0 <_cla_int_entry_group0_0>
   2ab10:	80 00 05 45 	jc 2abbc <.L0 +0x39c>
   2ab14:	80 00 00 00 	nop
   2ab18:	80 00 00 00 	nop
                        {
                            val_seg = ArgIntVal / m_pow_n(10, cnt - 1);
   2ab1c:	99 04 3f f8 	addi gr16 gr16 ffffffff <Flash0CtrlRegs+0xfef5ffff>
   2ab20:	95 30 00 a9 	moviglz gr19 a <_core0_exp_start+0x5>
   2ab24:	90 44 c0 80 	movg2g gr4 gr19
   2ab28:	90 54 00 80 	movg2g gr5 gr16
   2ab2c:	80 00 1f 8d 	call 2af20 <m_pow_n>
   2ab30:	80 00 00 00 	nop
   2ab34:	80 00 00 00 	nop
   2ab38:	80 00 00 00 	nop
   2ab3c:	90 50 80 80 	movg2g gr5 gr2
   2ab40:	90 44 80 80 	movg2g gr4 gr18
   2ab44:	83 ff 82 8d 	call 29b98 <__udivsi3>
   2ab48:	80 00 00 00 	nop
   2ab4c:	80 00 00 00 	nop
   2ab50:	80 00 00 00 	nop
   2ab54:	91 40 80 80 	movg2g gr20 gr2
                            ArgIntVal %= m_pow_n(10, cnt - 1);
   2ab58:	90 44 c0 80 	movg2g gr4 gr19
   2ab5c:	90 54 00 80 	movg2g gr5 gr16
   2ab60:	80 00 1d ed 	call 2af20 <m_pow_n>
   2ab64:	80 00 00 00 	nop
   2ab68:	80 00 00 00 	nop
   2ab6c:	80 00 00 00 	nop
   2ab70:	90 50 80 80 	movg2g gr5 gr2
   2ab74:	90 44 80 80 	movg2g gr4 gr18
   2ab78:	83 ff 8e 6d 	call 29d48 <__umodsi3>
   2ab7c:	80 00 00 00 	nop
   2ab80:	80 00 00 00 	nop
   2ab84:	80 00 00 00 	nop
                            putchar((char)val_seg + '0');
   2ab88:	98 35 18 06 	sli gr3 gr20 18 <_core1_exp_start+0x1>
   2ab8c:	94 43 00 01 	movigh gr4 3000 <.L0 +0x3>
   2ab90:	94 40 00 05 	movigl gr4 0 <_cla_int_entry_group0_0>
   2ab94:	84 30 c4 00 	add gr3 gr3 gr4
   2ab98:	98 40 d8 0a 	srai gr4 gr3 18 <_core1_exp_start+0x1>

                        // Õ░åµĢ┤µĢ░ĶĮ¼õĖ║ÕŹĢõĖ¬ÕŁŚń¼”µēōÕŹ░
                        while (cnt)
                        {
                            val_seg = ArgIntVal / m_pow_n(10, cnt - 1);
                            ArgIntVal %= m_pow_n(10, cnt - 1);
   2ab9c:	91 20 80 80 	movg2g gr18 gr2
                            putchar((char)val_seg + '0');
   2aba0:	83 ff d9 ed 	call 2a6e0 <putchar>
   2aba4:	80 00 00 00 	nop
   2aba8:	80 00 00 00 	nop
   2abac:	80 00 00 00 	nop
                            cnt = 1; // µĢ░ÕŁŚ0ńÜäķĢ┐Õ║”õĖ║1

                        ret_num += cnt; // ÕŁŚń¼”õĖ¬µĢ░ÕŖĀõĖŖµĢ┤µĢ░ńÜäķĢ┐Õ║”

                        // Õ░åµĢ┤µĢ░ĶĮ¼õĖ║ÕŹĢõĖ¬ÕŁŚń¼”µēōÕŹ░
                        while (cnt)
   2abb0:	83 ff fa c1 	jmp 2ab0c <.L0 +0x2ec>
   2abb4:	80 00 00 00 	nop
   2abb8:	80 00 00 00 	nop
                            val_seg = ArgIntVal / m_pow_n(10, cnt - 1);
                            ArgIntVal %= m_pow_n(10, cnt - 1);
                            putchar((char)val_seg + '0');
                            cnt--;
                        }
                        pStr++;
   2abbc:	99 25 80 08 	addi gr18 gr22 1 <_cla_int_entry_group0_0+0x1>
                            putchar((char)val_seg + '0');
                            cnt--;
                        }
                        ret_num += 6;
                        pStr++;
                        continue;
   2abc0:	83 ff df 01 	jmp 2a7a4 <printf+0x44>
   2abc4:	80 00 00 00 	nop
   2abc8:	80 00 00 00 	nop
                        continue;
#endif
#if 1 // %f µēōÕŹ░µö»µīü
                    case 'f':
                        // µÄźµöČµĄ«ńé╣Õ×ŗ õ┐ØńĢÖ6õĖ║Õ░ÅµĢ░’╝īõĖŹķććÕÅ¢ÕøøĶłŹõ║öÕģź
                        ArgFloVal = va_arg(pArgs, double);
   2abcc:	a8 27 80 42 	load32 gr2 gr30 2 <_cla_int_entry_group0_0+0x2>
   2abd0:	98 30 80 20 	addi gr3 gr2 4 <_cla_int_entry_group0_0+0x4>
   2abd4:	ec 37 80 42 	store32 gr3 gr30 2 <_cla_int_entry_group0_0+0x2>
   2abd8:	a9 30 80 02 	load32 gr19 gr2 0 <_cla_int_entry_group0_0>
                        val_seg   = (unsigned long)ArgFloVal; // ÕÅ¢µĢ┤µĢ░ķā©Õłå
   2abdc:	90 44 c0 80 	movg2g gr4 gr19
   2abe0:	83 ff 6e 6d 	call 299b0 <__fixunssfsi>
   2abe4:	80 00 00 00 	nop
   2abe8:	80 00 00 00 	nop
   2abec:	80 00 00 00 	nop
   2abf0:	91 20 80 80 	movg2g gr18 gr2
                        val_temp  = val_seg;                  // õĖ┤µŚČõ┐ØÕŁśµĢ┤µĢ░ķā©ÕłåµĢ░µŹ«
                        ArgFloVal = ArgFloVal - val_seg;      // ÕŠŚÕć║õĮÖõĖŗńÜäÕ░ÅµĢ░ķā©Õłå
   2abf4:	90 44 80 80 	movg2g gr4 gr18
   2abf8:	83 ff 72 cd 	call 29a54 <__floatunsisf>
   2abfc:	80 00 00 00 	nop
   2ac00:	80 00 00 00 	nop
   2ac04:	80 00 00 00 	nop
   2ac08:	85 44 c2 66 	fssub gr20 gr19 gr2
                        // Ķ«Īń«ŚµĢ┤µĢ░ķā©ÕłåķĢ┐Õ║”
                        if (val_seg)
   2ac0c:	94 04 80 02 	eqi gr18 0 <_cla_int_entry_group0_0>
   2ac10:	95 30 00 19 	moviglz gr19 1 <_cla_int_entry_group0_0+0x1>
   2ac14:	90 24 80 80 	movg2g gr2 gr18
   2ac18:	80 00 00 e5 	jc 2ac38 <.L0 +0x418>
   2ac1c:	80 00 00 00 	nop
   2ac20:	80 00 00 00 	nop
                        {
                            while (val_seg)
   2ac24:	94 00 80 02 	eqi gr2 0 <_cla_int_entry_group0_0>
   2ac28:	80 00 12 e9 	jnc 2ae88 <.L0 +0x80>
   2ac2c:	80 00 00 00 	nop
   2ac30:	80 00 00 00 	nop
   2ac34:	91 34 00 80 	movg2g gr19 gr16
                                val_seg /= 10;
                            }
                        }
                        else
                            cnt = 1;    // µĢ░ÕŁŚ0ńÜäķĢ┐Õ║”õĖ║1
                        ret_num += cnt; // ÕŁŚń¼”õĖ¬µĢ░ÕŖĀõĖŖµĢ┤µĢ░ńÜäķĢ┐Õ║”
   2ac38:	85 54 53 00 	add gr21 gr17 gr19
                        // Õ░åµĢ┤µĢ░ĶĮ¼õĖ║ÕŹĢõĖ¬ÕŁŚń¼”µēōÕŹ░
                        while (cnt)
   2ac3c:	94 04 c0 02 	eqi gr19 0 <_cla_int_entry_group0_0>
   2ac40:	80 00 05 45 	jc 2acec <.L0 +0x4cc>
   2ac44:	80 00 00 00 	nop
   2ac48:	80 00 00 00 	nop
                        {
                            val_seg = val_temp / m_pow_n(10, cnt - 1);
   2ac4c:	99 34 ff f8 	addi gr19 gr19 ffffffff <Flash0CtrlRegs+0xfef5ffff>
   2ac50:	95 00 00 a9 	moviglz gr16 a <_core0_exp_start+0x5>
   2ac54:	90 44 00 80 	movg2g gr4 gr16
   2ac58:	90 54 c0 80 	movg2g gr5 gr19
   2ac5c:	80 00 16 0d 	call 2af20 <m_pow_n>
   2ac60:	80 00 00 00 	nop
   2ac64:	80 00 00 00 	nop
   2ac68:	80 00 00 00 	nop
   2ac6c:	90 50 80 80 	movg2g gr5 gr2
   2ac70:	90 44 80 80 	movg2g gr4 gr18
   2ac74:	83 ff 79 0d 	call 29b98 <__udivsi3>
   2ac78:	80 00 00 00 	nop
   2ac7c:	80 00 00 00 	nop
   2ac80:	80 00 00 00 	nop
   2ac84:	91 10 80 80 	movg2g gr17 gr2
                            val_temp %= m_pow_n(10, cnt - 1);
   2ac88:	90 44 00 80 	movg2g gr4 gr16
   2ac8c:	90 54 c0 80 	movg2g gr5 gr19
   2ac90:	80 00 14 6d 	call 2af20 <m_pow_n>
   2ac94:	80 00 00 00 	nop
   2ac98:	80 00 00 00 	nop
   2ac9c:	80 00 00 00 	nop
   2aca0:	90 50 80 80 	movg2g gr5 gr2
   2aca4:	90 44 80 80 	movg2g gr4 gr18
   2aca8:	83 ff 84 ed 	call 29d48 <__umodsi3>
   2acac:	80 00 00 00 	nop
   2acb0:	80 00 00 00 	nop
   2acb4:	80 00 00 00 	nop
                            putchar((char)val_seg + '0');
   2acb8:	98 34 58 06 	sli gr3 gr17 18 <_core1_exp_start+0x1>
   2acbc:	94 43 00 01 	movigh gr4 3000 <.L0 +0x3>
   2acc0:	94 40 00 05 	movigl gr4 0 <_cla_int_entry_group0_0>
   2acc4:	84 30 c4 00 	add gr3 gr3 gr4
   2acc8:	98 40 d8 0a 	srai gr4 gr3 18 <_core1_exp_start+0x1>
                        ret_num += cnt; // ÕŁŚń¼”õĖ¬µĢ░ÕŖĀõĖŖµĢ┤µĢ░ńÜäķĢ┐Õ║”
                        // Õ░åµĢ┤µĢ░ĶĮ¼õĖ║ÕŹĢõĖ¬ÕŁŚń¼”µēōÕŹ░
                        while (cnt)
                        {
                            val_seg = val_temp / m_pow_n(10, cnt - 1);
                            val_temp %= m_pow_n(10, cnt - 1);
   2accc:	91 20 80 80 	movg2g gr18 gr2
                            putchar((char)val_seg + '0');
   2acd0:	83 ff d0 6d 	call 2a6e0 <putchar>
   2acd4:	80 00 00 00 	nop
   2acd8:	80 00 00 00 	nop
   2acdc:	80 00 00 00 	nop
                        }
                        else
                            cnt = 1;    // µĢ░ÕŁŚ0ńÜäķĢ┐Õ║”õĖ║1
                        ret_num += cnt; // ÕŁŚń¼”õĖ¬µĢ░ÕŖĀõĖŖµĢ┤µĢ░ńÜäķĢ┐Õ║”
                        // Õ░åµĢ┤µĢ░ĶĮ¼õĖ║ÕŹĢõĖ¬ÕŁŚń¼”µēōÕŹ░
                        while (cnt)
   2ace0:	83 ff fa c1 	jmp 2ac3c <.L0 +0x41c>
   2ace4:	80 00 00 00 	nop
   2ace8:	80 00 00 00 	nop
   2acec:	94 40 02 e9 	moviglz gr4 2e <.L0 +0x8>
                            val_temp %= m_pow_n(10, cnt - 1);
                            putchar((char)val_seg + '0');
                            cnt--;
                        }
                        // µēōÕŹ░Õ░ÅµĢ░ńé╣
                        putchar('.');
   2acf0:	83 ff cf 6d 	call 2a6e0 <putchar>
   2acf4:	80 00 00 00 	nop
   2acf8:	80 00 00 00 	nop
   2acfc:	80 00 00 00 	nop
   2ad00:	94 20 00 11 	movigh gr2 1 <_cla_int_entry_group0_0+0x1>
   2ad04:	94 20 04 45 	movigl gr2 44 <.L0 +0x3>
   2ad08:	19 55 40 08 ®░	addi gr21 gr21 1 <_cla_int_entry_group0_0+0x1>
   2ad0c:	a8 20 80 02 ®Ė	load32 gr2 gr2 0 <_cla_int_entry_group0_0>
   2ad10:	95 00 00 69 	moviglz gr16 6 <_core0_exp_start+0x1>
                        ret_num++;
                        // Õ╝ĆÕ¦ŗĶŠōÕć║Õ░ÅµĢ░ķā©Õłå
                        ArgFloVal *= 1000000;
   2ad14:	84 25 02 8a 	fsmul gr2 gr20 gr2
                        // printf("\r\n %f\r\n", ArgFloVal);
                        cnt      = 6;
                        val_temp = (int)ArgFloVal; // ÕÅ¢µĢ┤µĢ░ķā©Õłå
   2ad18:	91 10 80 90 	fcvtsf gr17 gr2
                        while (cnt)
   2ad1c:	94 04 00 02 	eqi gr16 0 <_cla_int_entry_group0_0>
   2ad20:	80 00 05 45 	jc 2adcc <.L0 +0x5ac>
   2ad24:	80 00 00 00 	nop
   2ad28:	80 00 00 00 	nop
                        {
                            val_seg = val_temp / m_pow_n(10, cnt - 1);
   2ad2c:	99 04 3f f8 	addi gr16 gr16 ffffffff <Flash0CtrlRegs+0xfef5ffff>
   2ad30:	95 20 00 a9 	moviglz gr18 a <_core0_exp_start+0x5>
   2ad34:	90 44 80 80 	movg2g gr4 gr18
   2ad38:	90 54 00 80 	movg2g gr5 gr16
   2ad3c:	80 00 0f 0d 	call 2af20 <m_pow_n>
   2ad40:	80 00 00 00 	nop
   2ad44:	80 00 00 00 	nop
   2ad48:	80 00 00 00 	nop
   2ad4c:	90 50 80 80 	movg2g gr5 gr2
   2ad50:	90 44 40 80 	movg2g gr4 gr17
   2ad54:	83 ff 72 0d 	call 29b98 <__udivsi3>
   2ad58:	80 00 00 00 	nop
   2ad5c:	80 00 00 00 	nop
   2ad60:	80 00 00 00 	nop
   2ad64:	91 30 80 80 	movg2g gr19 gr2
                            val_temp %= m_pow_n(10, cnt - 1);
   2ad68:	90 44 80 80 	movg2g gr4 gr18
   2ad6c:	90 54 00 80 	movg2g gr5 gr16
   2ad70:	80 00 0d 6d 	call 2af20 <m_pow_n>
   2ad74:	80 00 00 00 	nop
   2ad78:	80 00 00 00 	nop
   2ad7c:	80 00 00 00 	nop
   2ad80:	90 50 80 80 	movg2g gr5 gr2
   2ad84:	90 44 40 80 	movg2g gr4 gr17
   2ad88:	83 ff 7d ed 	call 29d48 <__umodsi3>
   2ad8c:	80 00 00 00 	nop
   2ad90:	80 00 00 00 	nop
   2ad94:	80 00 00 00 	nop
                            putchar((char)val_seg + '0');
   2ad98:	98 34 d8 06 	sli gr3 gr19 18 <_core1_exp_start+0x1>
   2ad9c:	94 43 00 01 	movigh gr4 3000 <.L0 +0x3>
   2ada0:	94 40 00 05 	movigl gr4 0 <_cla_int_entry_group0_0>
   2ada4:	84 30 c4 00 	add gr3 gr3 gr4
   2ada8:	98 40 d8 0a 	srai gr4 gr3 18 <_core1_exp_start+0x1>
                        cnt      = 6;
                        val_temp = (int)ArgFloVal; // ÕÅ¢µĢ┤µĢ░ķā©Õłå
                        while (cnt)
                        {
                            val_seg = val_temp / m_pow_n(10, cnt - 1);
                            val_temp %= m_pow_n(10, cnt - 1);
   2adac:	91 10 80 80 	movg2g gr17 gr2
                            putchar((char)val_seg + '0');
   2adb0:	83 ff c9 6d 	call 2a6e0 <putchar>
   2adb4:	80 00 00 00 	nop
   2adb8:	80 00 00 00 	nop
   2adbc:	80 00 00 00 	nop
                        // Õ╝ĆÕ¦ŗĶŠōÕć║Õ░ÅµĢ░ķā©Õłå
                        ArgFloVal *= 1000000;
                        // printf("\r\n %f\r\n", ArgFloVal);
                        cnt      = 6;
                        val_temp = (int)ArgFloVal; // ÕÅ¢µĢ┤µĢ░ķā©Õłå
                        while (cnt)
   2adc0:	83 ff fa c1 	jmp 2ad1c <.L0 +0x4fc>
   2adc4:	80 00 00 00 	nop
   2adc8:	80 00 00 00 	nop
                            val_seg = val_temp / m_pow_n(10, cnt - 1);
                            val_temp %= m_pow_n(10, cnt - 1);
                            putchar((char)val_seg + '0');
                            cnt--;
                        }
                        ret_num += 6;
   2adcc:	99 15 40 30 	addi gr17 gr21 6 <_core0_exp_start+0x1>
                        pStr++;
   2add0:	99 25 80 08 	addi gr18 gr22 1 <_cla_int_entry_group0_0+0x1>
                        continue;
   2add4:	83 ff ce 61 	jmp 2a7a4 <printf+0x44>
   2add8:	80 00 00 00 	nop
   2addc:	80 00 00 00 	nop
   2ade0:	94 40 02 09 	moviglz gr4 20 <_cla_int_entry_group0_2>
                    default: // % Õī╣ķģŹķöÖĶ»»’╝īµÜéĶŠōÕć║ń®║µĀ╝
                        putchar(' ');
   2ade4:	83 ff c7 cd 	call 2a6e0 <putchar>
   2ade8:	80 00 00 00 	nop
   2adec:	80 00 00 00 	nop
   2adf0:	80 00 00 00 	nop
                        ret_num++;
   2adf4:	99 14 40 08 	addi gr17 gr17 1 <_cla_int_entry_group0_0+0x1>
   2adf8:	91 25 80 80 	movg2g gr18 gr22
                        continue;
   2adfc:	83 ff cd 21 	jmp 2a7a4 <printf+0x44>
   2ae00:	80 00 00 00 	nop
   2ae04:	80 00 00 00 	nop

0002ae08 <.L0 >:
   2ae08:	a8 24 80 00 	load8 gr2 gr18 0 <_cla_int_entry_group0_0>
   2ae0c:	90 40 80 46 	cbw gr4 gr2
   2ae10:	83 ff c6 6d 	call 2a6e0 <putchar>
   2ae14:	80 00 00 00 	nop
   2ae18:	80 00 00 00 	nop
   2ae1c:	80 00 00 00 	nop
   2ae20:	99 14 40 08 	addi gr17 gr17 1 <_cla_int_entry_group0_0+0x1>
            default:
                putchar(*pStr);
                ret_num++;
                break;
        }
        pStr++;
   2ae24:	99 24 80 08 	addi gr18 gr18 1 <_cla_int_entry_group0_0+0x1>
    int cnt                 = 0;           // µĢ░µŹ«ķĢ┐Õ║”Ķ«ĪµĢ░
    int i                   = 0;

    va_list pArgs;        // Õ«Üõ╣ēva_listń▒╗Õ×ŗµīćķÆł’╝īńö©õ║ÄÕŁśÕé©ÕÅéµĢ░ńÜäÕ£░ÕØĆ
    va_start(pArgs, str); // ÕłØÕ¦ŗÕī¢pArgs
    while (*pStr != '\0')
   2ae28:	83 ff cb c1 	jmp 2a7a4 <printf+0x44>
   2ae2c:	80 00 00 00 	nop
   2ae30:	80 00 00 00 	nop
        }
        pStr++;
    }
    va_end(pArgs); // ń╗ōµØ¤ÕÅ¢ÕÅéµĢ░

    return ret_num;
   2ae34:	10 24 40 80 ®░	movg2g gr2 gr17
   2ae38:	a9 07 80 62 ®Ė	load32 gr16 gr30 3 <_cla_int_entry_group0_0+0x3>
   2ae3c:	a9 17 80 82 	load32 gr17 gr30 4 <_cla_int_entry_group0_0+0x4>
   2ae40:	a9 27 80 a2 	load32 gr18 gr30 5 <_core0_exp_start>
   2ae44:	a9 37 80 c2 	load32 gr19 gr30 6 <_core0_exp_start+0x1>
   2ae48:	a9 47 80 e2 	load32 gr20 gr30 7 <_core0_exp_start+0x2>
   2ae4c:	a9 57 81 02 	load32 gr21 gr30 8 <_core0_exp_start+0x3>
   2ae50:	a9 67 81 22 	load32 gr22 gr30 9 <_core0_exp_start+0x4>
   2ae54:	a9 f7 81 42 	load32 gr31 gr30 a <_core0_exp_start+0x5>
   2ae58:	99 e7 81 80 	addi gr30 gr30 30 <_cla_int_entry_group0_3>
   2ae5c:	80 00 00 04 	ret
   2ae60:	80 00 00 00 	nop
   2ae64:	80 00 00 00 	nop
   2ae68:	94 3c cc c1 	movigh gr3 ffffcccc <Flash0CtrlRegs+0xfef5cccc>
   2ae6c:	94 3c cc d5 	movigl gr3 ffffcccd <Flash0CtrlRegs+0xfef5cccd>
                        // Ķ«Īń«ŚArgIntValķĢ┐Õ║”
                        if (ArgIntVal)
                        {
                            while (val_seg)
                            {
                                cnt++;
   2ae70:	99 04 00 08 	addi gr16 gr16 1 <_cla_int_entry_group0_0+0x1>
                                val_seg /= 10;
   2ae74:	84 20 83 1d 	mulu64 gr2 gr2 gr3
   2ae78:	98 20 83 0e 	srli gr2 gr2 3 <_cla_int_entry_group0_0+0x3>
                        }
                        val_seg = ArgIntVal; // ĶĄŗÕĆ╝ń╗Ö val_segÕżäńÉåµĢ░µŹ«
                        // Ķ«Īń«ŚArgIntValķĢ┐Õ║”
                        if (ArgIntVal)
                        {
                            while (val_seg)
   2ae7c:	83 ff e3 81 	jmp 2aaf0 <.L0 +0x2d0>
   2ae80:	80 00 00 00 	nop
   2ae84:	80 00 00 00 	nop
   2ae88:	94 3c cc c1 	movigh gr3 ffffcccc <Flash0CtrlRegs+0xfef5cccc>
   2ae8c:	94 3c cc d5 	movigl gr3 ffffcccd <Flash0CtrlRegs+0xfef5cccd>
                        // Ķ«Īń«ŚµĢ┤µĢ░ķā©ÕłåķĢ┐Õ║”
                        if (val_seg)
                        {
                            while (val_seg)
                            {
                                cnt++;
   2ae90:	99 04 00 08 	addi gr16 gr16 1 <_cla_int_entry_group0_0+0x1>
                                val_seg /= 10;
   2ae94:	84 20 83 1d 	mulu64 gr2 gr2 gr3
   2ae98:	98 20 83 0e 	srli gr2 gr2 3 <_cla_int_entry_group0_0+0x3>
                        val_temp  = val_seg;                  // õĖ┤µŚČõ┐ØÕŁśµĢ┤µĢ░ķā©ÕłåµĢ░µŹ«
                        ArgFloVal = ArgFloVal - val_seg;      // ÕŠŚÕć║õĮÖõĖŗńÜäÕ░ÅµĢ░ķā©Õłå
                        // Ķ«Īń«ŚµĢ┤µĢ░ķā©ÕłåķĢ┐Õ║”
                        if (val_seg)
                        {
                            while (val_seg)
   2ae9c:	83 ff ec 21 	jmp 2ac24 <.L0 +0x404>
   2aea0:	80 00 00 00 	nop
   2aea4:	80 00 00 00 	nop

0002aea8 <puts>:
    while (!dbg_uart->SCICTL2.bit.TXRDY)
        ;
}

__attribute__((weak)) void puts(const char *str)
{
   2aea8:	99 e7 bf 80 	addi gr30 gr30 fffffff0 <Flash0CtrlRegs+0xfef5fff0>
   2aeac:	ed f7 80 62 	store32 gr31 gr30 3 <_cla_int_entry_group0_0+0x3>
   2aeb0:	ed 07 80 42 	store32 gr16 gr30 2 <_cla_int_entry_group0_0+0x2>
   2aeb4:	91 01 00 80 	movg2g gr16 gr4
    while (*str)
   2aeb8:	a8 24 00 00 	load8 gr2 gr16 0 <_cla_int_entry_group0_0>
   2aebc:	94 00 80 02 	eqi gr2 0 <_cla_int_entry_group0_0>
   2aec0:	80 00 01 85 	jc 2aef4 <puts+0x4c>
   2aec4:	80 00 00 00 	nop
   2aec8:	80 00 00 00 	nop
    {
        putchar(*str);
   2aecc:	a8 24 00 00 	load8 gr2 gr16 0 <_cla_int_entry_group0_0>
   2aed0:	90 40 80 46 	cbw gr4 gr2
   2aed4:	83 ff c0 4d 	call 2a6e0 <putchar>
   2aed8:	80 00 00 00 	nop
   2aedc:	80 00 00 00 	nop
   2aee0:	80 00 00 00 	nop
        str++;
   2aee4:	99 04 00 08 	addi gr16 gr16 1 <_cla_int_entry_group0_0+0x1>
        ;
}

__attribute__((weak)) void puts(const char *str)
{
    while (*str)
   2aee8:	83 ff fe 61 	jmp 2aeb8 <puts+0x10>
   2aeec:	80 00 00 00 	nop
   2aef0:	80 00 00 00 	nop
   2aef4:	94 40 00 a9 	moviglz gr4 a <_core0_exp_start+0x5>
    {
        putchar(*str);
        str++;
    }
    putchar('\n');
   2aef8:	83 ff bf 2d 	call 2a6e0 <putchar>
   2aefc:	80 00 00 00 	nop
   2af00:	80 00 00 00 	nop
   2af04:	80 00 00 00 	nop
}
   2af08:	a9 07 80 42 	load32 gr16 gr30 2 <_cla_int_entry_group0_0+0x2>
   2af0c:	a9 f7 80 62 	load32 gr31 gr30 3 <_cla_int_entry_group0_0+0x3>
   2af10:	99 e7 80 80 	addi gr30 gr30 10 <_cla_int_entry_group0_1>
   2af14:	80 00 00 04 	ret
   2af18:	80 00 00 00 	nop
   2af1c:	80 00 00 00 	nop

0002af20 <m_pow_n>:

// Ķ«Īń«Śm^n
__attribute__((weak)) unsigned long m_pow_n(unsigned long m, unsigned long n)
{
   2af20:	80 00 00 00 	nop
   2af24:	94 20 00 09 	moviglz gr2 0 <_cla_int_entry_group0_0>
   2af28:	94 30 00 19 	moviglz gr3 1 <_cla_int_entry_group0_0+0x1>
    unsigned long i = 0, ret = 1;
    if (n < 0)
   2af2c:	94 00 80 06 	neqi gr2 0 <_cla_int_entry_group0_0>
   2af30:	80 00 00 e5 	jc 2af50 <m_pow_n+0x30>
   2af34:	80 00 00 00 	nop
   2af38:	80 00 00 00 	nop
        return 0;
    for (i = 0; i < n; i++)
   2af3c:	90 00 85 0c 	geu gr2 gr5
   2af40:	80 00 00 c9 	jnc 2af5c <m_pow_n+0x3c>
   2af44:	80 00 00 00 	nop
   2af48:	80 00 00 00 	nop
   2af4c:	90 20 c0 80 	movg2g gr2 gr3
        ret *= m;
    return ret;
}
   2af50:	80 00 00 04 	ret
   2af54:	80 00 00 00 	nop
   2af58:	80 00 00 00 	nop
{
    unsigned long i = 0, ret = 1;
    if (n < 0)
        return 0;
    for (i = 0; i < n; i++)
        ret *= m;
   2af5c:	84 30 c4 0c 	mul32 gr3 gr3 gr4
__attribute__((weak)) unsigned long m_pow_n(unsigned long m, unsigned long n)
{
    unsigned long i = 0, ret = 1;
    if (n < 0)
        return 0;
    for (i = 0; i < n; i++)
   2af60:	98 20 80 08 	addi gr2 gr2 1 <_cla_int_entry_group0_0+0x1>
   2af64:	83 ff fe a1 	jmp 2af3c <m_pow_n+0x1c>
   2af68:	80 00 00 00 	nop
   2af6c:	80 00 00 00 	nop

0002af70 <Device_init>:
// known state by disabling the watchdog, setting up the SYSCLKOUT frequency,
// and enabling the clocks to the peripherals.
//
//*****************************************************************************
void Device_init(void)
{
   2af70:	99 e7 bf 80 	addi gr30 gr30 fffffff0 <Flash0CtrlRegs+0xfef5fff0>
   2af74:	ed f7 80 62 	store32 gr31 gr30 3 <_cla_int_entry_group0_0+0x3>
   2af78:	94 48 00 11 	movigh gr4 ffff8001 <Flash0CtrlRegs+0xfef58001>
   2af7c:	94 40 11 45 	movigl gr4 114 <.L0 +0x4>
#ifdef CPU1

    //
    // Set up PLL control and clock dividers
    //
    SysCtl_setClock(DEVICE_SETCLOCK_CFG);
   2af80:	80 00 1b 6d 	call 2b2f0 <SysCtl_setClock>
   2af84:	80 00 00 00 	nop
   2af88:	80 00 00 00 	nop
   2af8c:	80 00 00 00 	nop
   2af90:	94 40 00 09 	moviglz gr4 0 <_cla_int_entry_group0_0>

    //
    // Make sure the LSPCLK divider is set to the default (divide by 4)
    //
    SysCtl_setLowSpeedClock(SYSCTL_LSPCLK_PRESCALE_1);
   2af94:	80 00 01 0d 	call 2afb8 <SysCtl_setLowSpeedClock>
   2af98:	80 00 00 00 	nop
   2af9c:	80 00 00 00 	nop
   2afa0:	80 00 00 00 	nop

    //
    // Turn on all peripherals
    //
    // Device_enableAllPeripherals();
}
   2afa4:	a9 f7 80 62 	load32 gr31 gr30 3 <_cla_int_entry_group0_0+0x3>
   2afa8:	99 e7 80 80 	addi gr30 gr30 10 <_cla_int_entry_group0_1>
   2afac:	80 00 00 04 	ret
   2afb0:	80 00 00 00 	nop
   2afb4:	80 00 00 00 	nop

0002afb8 <SysCtl_setLowSpeedClock>:
//!
//! \return None.
//
//*****************************************************************************
static inline void SysCtl_setLowSpeedClock(SysCtl_LSPCLKPrescaler prescaler)
{
   2afb8:	80 00 00 00 	nop
    //
    // Write the divider selection to the appropriate register.
    //
    EALLOW;
   2afbc:	80 00 00 10 	eallow
   2afc0:	94 20 10 71 	movigh gr2 107 <cla_interrupt_defaulthandler+0x7>
   2afc4:	94 21 04 05 	movigl gr2 1040 <.L0 +0x1c>
    HWREG(CLKCFG_BASE + SYSCTL_O_LOSPCP)
        = (HWREG(CLKCFG_BASE + SYSCTL_O_LOSPCP) & ~(uint32_t)SYSCTL_LOSPCP_LSPCLKDIV_M)
   2afc8:	14 5f ff 8d ®░	moviglx gr5 fffffff8 <Flash0CtrlRegs+0xfef5fff8>
   2afcc:	a8 30 80 02 ®Ė	load32 gr3 gr2 0 <_cla_int_entry_group0_0>
   2afd0:	84 30 c5 04 	and gr3 gr3 gr5
          | (uint32_t)prescaler;
   2afd4:	84 30 c4 05 	or gr3 gr3 gr4
    //
    // Write the divider selection to the appropriate register.
    //
    EALLOW;
    HWREG(CLKCFG_BASE + SYSCTL_O_LOSPCP)
        = (HWREG(CLKCFG_BASE + SYSCTL_O_LOSPCP) & ~(uint32_t)SYSCTL_LOSPCP_LSPCLKDIV_M)
   2afd8:	ec 30 80 02 	store32 gr3 gr2 0 <_cla_int_entry_group0_0>
          | (uint32_t)prescaler;
    EDIS;
   2afdc:	80 00 00 14 	edis
}
   2afe0:	80 00 00 04 	ret
   2afe4:	80 00 00 00 	nop
   2afe8:	80 00 00 00 	nop

0002afec <device_copytrim>:
// 0x0: 32-bit valid, TRIM_VALID_KEY
// 0x4: 12-bit valid, INTOSC1TRIM
// 0x8: 12-bit valid, INTOSC2TRIM

__attribute__((section(".text.qxboot0debug.device_copytrim"))) void device_copytrim()
{
   2afec:	80 00 00 00 	nop
   2aff0:	94 23 02 01 	movigh gr2 3020 <.L0 +0x23>
   2aff4:	94 20 00 05 	movigl gr2 0 <_cla_int_entry_group0_0>
   2aff8:	14 35 a5 a1 ®░	movigh gr3 5a5a <.L0 +0x2c>
   2affc:	a8 20 80 02 ®Ė	load32 gr2 gr2 0 <_cla_int_entry_group0_0>
   2b000:	94 35 a5 a5 	movigl gr3 5a5a <.L0 +0x2c>
    uint32_t key = HWREG(FLASH0OTP1_BASE);
    if (key != TRIM_VALID_KEY)
   2b004:	90 00 83 01 	neq gr2 gr3
   2b008:	80 00 01 c5 	jc 2b044 <device_copytrim+0x58>
   2b00c:	80 00 00 00 	nop
   2b010:	80 00 00 00 	nop
   2b014:	94 23 02 01 	movigh gr2 3020 <.L0 +0x23>
   2b018:	94 20 00 45 	movigl gr2 4 <_cla_int_entry_group0_0+0x4>
   2b01c:	94 30 10 71 	movigh gr3 107 <cla_interrupt_defaulthandler+0x7>
   2b020:	94 33 00 05 	movigl gr3 3000 <.L0 +0x3>
   2b024:	94 43 02 01 	movigh gr4 3020 <.L0 +0x23>
    }

    // HWREG(TRIM_BASE + 0x24) = 0x55AA55AA; // unlock trim

    // copy trim data
    HWREG(ANALOGSUBSYS_BASE + 0x0) = HWREG(FLASH0OTP1_BASE + 0x04);
   2b028:	14 40 00 85 ®░	movigl gr4 8 <_core0_exp_start+0x3>
   2b02c:	a8 20 80 02 ®Ė	load32 gr2 gr2 0 <_cla_int_entry_group0_0>
   2b030:	ec 20 c0 02 	store32 gr2 gr3 0 <_cla_int_entry_group0_0>
    HWREG(ANALOGSUBSYS_BASE + 0x4) = HWREG(FLASH0OTP1_BASE + 0x08);
   2b034:	14 30 10 71 ®░	movigh gr3 107 <cla_interrupt_defaulthandler+0x7>
   2b038:	a8 21 00 02 ®Ė	load32 gr2 gr4 0 <_cla_int_entry_group0_0>
   2b03c:	94 33 00 45 	movigl gr3 3004 <.L0 +0x7>
   2b040:	ec 20 c0 02 	store32 gr2 gr3 0 <_cla_int_entry_group0_0>

    // HWREG(TRIM_BASE + 0x20) = 1;          // enable efuse
    // HWREG(TRIM_BASE + 0x24) = 0xAA55AA55; // lock trim
}
   2b044:	80 00 00 04 	ret
   2b048:	80 00 00 00 	nop
   2b04c:	80 00 00 00 	nop

0002b050 <CLA_setTriggerSource>:
//
// CLA_setTriggerSource()
//
//*****************************************************************************
void CLA_setTriggerSource(CLA_TaskNumber taskNumber, CLA_Trigger trigger)
{
   2b050:	80 00 00 00 	nop
   2b054:	94 20 01 89 	moviglz gr2 18 <_core1_exp_start+0x1>
    uint32_t shiftVal;

    //
    // Calculate the shift value for the specified task.
    //
    shiftVal = ((uint32_t)taskNumber * SYSCTL_CLA1TASKSRCSEL1_TASK2_S) % 32U;
   2b058:	98 31 03 06 	sli gr3 gr4 3 <_cla_int_entry_group0_0+0x3>
   2b05c:	84 20 c2 04 	and gr2 gr3 gr2

    //
    // Calculate the register address for the specified task.
    //
    if (taskNumber <= CLA_TASK_4)
   2b060:	94 01 00 97 	ltiu gr4 4 <_cla_int_entry_group0_0+0x4>
   2b064:	80 00 00 00 	nop
   2b068:	80 00 00 00 	nop
   2b06c:	80 00 00 00 	nop
   2b070:	80 00 00 00 	nop
   2b074:	94 30 10 71 	movigh gr3 107 <cla_interrupt_defaulthandler+0x7>
   2b078:	94 32 0d 85 	movigl gr3 20d8 <.L0 +0x18>
   2b07c:	94 40 10 71 	movigh gr4 107 <cla_interrupt_defaulthandler+0x7>
   2b080:	94 42 0d 45 	movigl gr4 20d4 <.L0 +0x14>
   2b084:	90 31 03 42 	select gr3 gr4 gr3
        // Tasks 5-8

        srcSelReg = (uint32_t)CPUSYS_BASE + SYSCTL_O_CLA1TASKSRCSEL2;
    }

    EALLOW;
   2b088:	80 00 00 10 	eallow
    //
    // Write trigger selection to the appropriate register.
    //
    // HWREG(srcSelReg) &= ~((uint32_t)SYSCTL_CLA1TASKSRCSEL1_TASK1_M << shiftVal);
    // HWREG(srcSelReg) = HWREG(srcSelReg) | ((uint32_t)trigger << shiftVal);
    HWREG(srcSelReg) = (uint32_t)trigger << shiftVal;
   2b08c:	84 21 42 09 	sl gr2 gr5 gr2
   2b090:	ec 20 c0 02 	store32 gr2 gr3 0 <_cla_int_entry_group0_0>

}
   2b094:	80 00 00 04 	ret
   2b098:	80 00 00 00 	nop
   2b09c:	80 00 00 00 	nop

0002b0a0 <GPIO_setDirectionMode>:
//
// GPIO_setDirectionMode
//
//*****************************************************************************
void GPIO_setDirectionMode(uint32_t pin, GPIO_Direction pinIO)
{
   2b0a0:	80 00 00 00 	nop
    //
    // Check the arguments.
    //
    ASSERT(GPIO_isPinValid(pin));

    gpioBaseAddr = (uint32_t *)GPIOCTRL_BASE + ((pin / 32U) * GPIO_CTRL_REGS_STEP);
   2b0a4:	98 31 05 0e 	srli gr3 gr4 5 <_core0_exp_start>
   2b0a8:	94 20 10 61 	movigh gr2 106 <cla_interrupt_defaulthandler+0x6>
   2b0ac:	94 2b 00 05 	movigl gr2 ffffb000 <Flash0CtrlRegs+0xfef5b000>
   2b0b0:	94 60 05 09 	moviglz gr6 50 <_cla_int_entry_group0_5>
   2b0b4:	84 20 c6 85 	mac32 gr2 gr3 gr6
   2b0b8:	94 30 01 f9 	moviglz gr3 1f <_core1_exp_start+0x8>
    pinMask      = (uint32_t)1U << (pin % 32U);
   2b0bc:	84 31 03 04 	and gr3 gr4 gr3
   2b0c0:	94 40 00 19 	moviglz gr4 1 <_cla_int_entry_group0_0+0x1>
   2b0c4:	84 31 03 09 	sl gr3 gr4 gr3

    EALLOW;
   2b0c8:	80 00 00 10 	eallow

    //
    // Set the data direction
    //
    if (pinIO == GPIO_DIR_MODE_OUT)
   2b0cc:	94 01 40 26 	neqi gr5 1 <_cla_int_entry_group0_0+0x1>
   2b0d0:	80 00 00 e5 	jc 2b0f0 <GPIO_setDirectionMode+0x50>
   2b0d4:	80 00 00 00 	nop
   2b0d8:	80 00 00 00 	nop
    {
        //
        // Output
        //
        gpioBaseAddr[GPIO_GPxDIR_INDEX] |= pinMask;
   2b0dc:	a8 40 80 a2 	load32 gr4 gr2 5 <_core0_exp_start>
   2b0e0:	84 31 03 05 	or gr3 gr4 gr3
   2b0e4:	80 00 00 a1 	jmp 2b0fc <GPIO_setDirectionMode+0x5c>
   2b0e8:	80 00 00 00 	nop
   2b0ec:	80 00 00 00 	nop
    else
    {
        //
        // Input
        //
        gpioBaseAddr[GPIO_GPxDIR_INDEX] &= ~pinMask;
   2b0f0:	10 30 c0 44 ®░	not gr3 gr3
   2b0f4:	a8 40 80 a2 ®Ė	load32 gr4 gr2 5 <_core0_exp_start>
   2b0f8:	84 31 03 04 	and gr3 gr4 gr3
   2b0fc:	ec 30 80 a2 	store32 gr3 gr2 5 <_core0_exp_start>
    }

    EDIS;
   2b100:	80 00 00 14 	edis
}
   2b104:	80 00 00 04 	ret
   2b108:	80 00 00 00 	nop
   2b10c:	80 00 00 00 	nop

0002b110 <GPIO_setPadConfig>:
//
// GPIO_setPadConfig
//
//*****************************************************************************
void GPIO_setPadConfig(uint32_t pin, uint32_t pinType)
{
   2b110:	80 00 00 00 	nop
    //
    // Check the arguments.
    //
    ASSERT(GPIO_isPinValid(pin));

    gpioBaseAddr = (uint32_t *)GPIOCTRL_BASE + ((pin / 32U) * GPIO_CTRL_REGS_STEP);
   2b114:	98 31 05 0e 	srli gr3 gr4 5 <_core0_exp_start>
   2b118:	94 20 10 61 	movigh gr2 106 <cla_interrupt_defaulthandler+0x6>
   2b11c:	94 2b 00 05 	movigl gr2 ffffb000 <Flash0CtrlRegs+0xfef5b000>
   2b120:	94 60 05 09 	moviglz gr6 50 <_cla_int_entry_group0_5>
   2b124:	84 20 c6 85 	mac32 gr2 gr3 gr6
   2b128:	94 30 01 f9 	moviglz gr3 1f <_core1_exp_start+0x8>
    pinMask      = (uint32_t)1U << (pin % 32U);
   2b12c:	84 31 03 04 	and gr3 gr4 gr3
   2b130:	94 40 00 19 	moviglz gr4 1 <_cla_int_entry_group0_0+0x1>
   2b134:	84 31 03 09 	sl gr3 gr4 gr3

    EALLOW;
   2b138:	80 00 00 10 	eallow
   2b13c:	94 40 00 49 	moviglz gr4 4 <_cla_int_entry_group0_0+0x4>

    //
    // Enable open drain if necessary
    //
    if ((pinType & GPIO_PIN_TYPE_OD) != 0U)
   2b140:	84 41 44 04 	and gr4 gr5 gr4
   2b144:	94 01 00 02 	eqi gr4 0 <_cla_int_entry_group0_0>
   2b148:	80 00 00 e5 	jc 2b168 <GPIO_setPadConfig+0x58>
   2b14c:	80 00 00 00 	nop
   2b150:	80 00 00 00 	nop
    {
        gpioBaseAddr[GPIO_GPxODR_INDEX] |= pinMask;
   2b154:	a8 40 81 02 	load32 gr4 gr2 8 <_core0_exp_start+0x3>
   2b158:	84 41 03 05 	or gr4 gr4 gr3
   2b15c:	80 00 00 a1 	jmp 2b174 <GPIO_setPadConfig+0x64>
   2b160:	80 00 00 00 	nop
   2b164:	80 00 00 00 	nop
    }
    else
    {
        gpioBaseAddr[GPIO_GPxODR_INDEX] &= ~pinMask;
   2b168:	10 60 c0 44 ®░	not gr6 gr3
   2b16c:	a8 40 81 02 ®Ė	load32 gr4 gr2 8 <_core0_exp_start+0x3>
   2b170:	84 41 06 04 	and gr4 gr4 gr6
   2b174:	ec 40 81 02 	store32 gr4 gr2 8 <_core0_exp_start+0x3>
   2b178:	94 40 00 19 	moviglz gr4 1 <_cla_int_entry_group0_0+0x1>
    }

    //
    // Enable pull-up if necessary
    //
    if ((pinType & GPIO_PIN_TYPE_PULLUP) != 0U)
   2b17c:	84 41 44 04 	and gr4 gr5 gr4
   2b180:	94 01 00 02 	eqi gr4 0 <_cla_int_entry_group0_0>
   2b184:	80 00 01 05 	jc 2b1a8 <GPIO_setPadConfig+0x98>
   2b188:	80 00 00 00 	nop
   2b18c:	80 00 00 00 	nop
    {
        gpioBaseAddr[GPIO_GPxPUD_INDEX] &= ~pinMask;
   2b190:	10 60 c0 44 ®░	not gr6 gr3
   2b194:	a8 40 80 c2 ®Ė	load32 gr4 gr2 6 <_core0_exp_start+0x1>
   2b198:	84 41 06 04 	and gr4 gr4 gr6
   2b19c:	80 00 00 81 	jmp 2b1b0 <GPIO_setPadConfig+0xa0>
   2b1a0:	80 00 00 00 	nop
   2b1a4:	80 00 00 00 	nop
    }
    else
    {
        gpioBaseAddr[GPIO_GPxPUD_INDEX] |= pinMask;
   2b1a8:	a8 40 80 c2 	load32 gr4 gr2 6 <_core0_exp_start+0x1>
   2b1ac:	84 41 03 05 	or gr4 gr4 gr3
   2b1b0:	ec 40 80 c2 	store32 gr4 gr2 6 <_core0_exp_start+0x1>
   2b1b4:	94 40 00 29 	moviglz gr4 2 <_cla_int_entry_group0_0+0x2>
    }

    //
    // Invert polarity if necessary
    //
    if ((pinType & GPIO_PIN_TYPE_INVERT) != 0U)
   2b1b8:	84 41 44 04 	and gr4 gr5 gr4
   2b1bc:	94 01 00 02 	eqi gr4 0 <_cla_int_entry_group0_0>
   2b1c0:	80 00 00 e5 	jc 2b1e0 <GPIO_setPadConfig+0xd0>
   2b1c4:	80 00 00 00 	nop
   2b1c8:	80 00 00 00 	nop
    {
        gpioBaseAddr[GPIO_GPxINV_INDEX] |= pinMask;
   2b1cc:	a8 40 80 e2 	load32 gr4 gr2 7 <_core0_exp_start+0x2>
   2b1d0:	84 31 03 05 	or gr3 gr4 gr3
   2b1d4:	80 00 00 a1 	jmp 2b1ec <GPIO_setPadConfig+0xdc>
   2b1d8:	80 00 00 00 	nop
   2b1dc:	80 00 00 00 	nop
    }
    else
    {
        gpioBaseAddr[GPIO_GPxINV_INDEX] &= ~pinMask;
   2b1e0:	10 30 c0 44 ®░	not gr3 gr3
   2b1e4:	a8 40 80 e2 ®Ė	load32 gr4 gr2 7 <_core0_exp_start+0x2>
   2b1e8:	84 31 03 04 	and gr3 gr4 gr3
   2b1ec:	ec 30 80 e2 	store32 gr3 gr2 7 <_core0_exp_start+0x2>
    }

    EDIS;
   2b1f0:	80 00 00 14 	edis
}
   2b1f4:	80 00 00 04 	ret
   2b1f8:	80 00 00 00 	nop
   2b1fc:	80 00 00 00 	nop

0002b200 <GPIO_setPinConfig>:
//
// GPIO_setPinConfig
//
//*****************************************************************************
void GPIO_setPinConfig(uint32_t pinConfig)
{
   2b200:	80 00 00 00 	nop
    uint32_t muxRegAddr;
    uint32_t pinMask, shiftAmt;

    muxRegAddr = (uint32_t)GPIOCTRL_BASE + (pinConfig >> 16);
   2b204:	98 21 10 0e 	srli gr2 gr4 10 <_cla_int_entry_group0_1>
   2b208:	94 30 10 61 	movigh gr3 106 <cla_interrupt_defaulthandler+0x6>
   2b20c:	94 3b 00 05 	movigl gr3 ffffb000 <Flash0CtrlRegs+0xfef5b000>
   2b210:	84 20 83 00 	add gr2 gr2 gr3
    shiftAmt   = ((pinConfig >> 8) & (uint32_t)0xFFU);
   2b214:	98 31 08 0e 	srli gr3 gr4 8 <_core0_exp_start+0x3>
   2b218:	94 50 0f f9 	moviglz gr5 ff <.L0 +0x6>
   2b21c:	84 30 c5 04 	and gr3 gr3 gr5
   2b220:	94 50 00 39 	moviglz gr5 3 <_cla_int_entry_group0_0+0x3>
    pinMask    = (uint32_t)0x3U << shiftAmt;
   2b224:	84 61 43 09 	sl gr6 gr5 gr3

    EALLOW;
   2b228:	80 00 00 10 	eallow

    //
    // Clear fields in MUX register first to avoid glitches
    //
    HWREG(muxRegAddr) &= ~pinMask;
   2b22c:	10 61 80 44 ®░	not gr6 gr6
   2b230:	a8 70 80 02 ®Ė	load32 gr7 gr2 0 <_cla_int_entry_group0_0>

    //
    // Write value into GMUX register
    //
    HWREG(muxRegAddr + GPIO_MUX_TO_GMUX) = (HWREG(muxRegAddr + GPIO_MUX_TO_GMUX) & ~pinMask)
                                           | (((pinConfig >> 2) & (uint32_t)0x3U) << shiftAmt);
   2b234:	98 81 02 0e 	srli gr8 gr4 2 <_cla_int_entry_group0_0+0x2>
   2b238:	84 82 05 04 	and gr8 gr8 gr5
   2b23c:	84 82 03 09 	sl gr8 gr8 gr3
    EALLOW;

    //
    // Clear fields in MUX register first to avoid glitches
    //
    HWREG(muxRegAddr) &= ~pinMask;
   2b240:	84 71 c6 04 	and gr7 gr7 gr6
   2b244:	ec 70 80 02 	store32 gr7 gr2 0 <_cla_int_entry_group0_0>

    //
    // Write value into GMUX register
    //
    HWREG(muxRegAddr + GPIO_MUX_TO_GMUX) = (HWREG(muxRegAddr + GPIO_MUX_TO_GMUX) & ~pinMask)
   2b248:	a8 70 80 e2 	load32 gr7 gr2 7 <_core0_exp_start+0x2>
   2b24c:	84 61 c6 04 	and gr6 gr7 gr6
                                           | (((pinConfig >> 2) & (uint32_t)0x3U) << shiftAmt);
   2b250:	84 61 88 05 	or gr6 gr6 gr8
    HWREG(muxRegAddr) &= ~pinMask;

    //
    // Write value into GMUX register
    //
    HWREG(muxRegAddr + GPIO_MUX_TO_GMUX) = (HWREG(muxRegAddr + GPIO_MUX_TO_GMUX) & ~pinMask)
   2b254:	ec 60 80 e2 	store32 gr6 gr2 7 <_core0_exp_start+0x2>
                                           | (((pinConfig >> 2) & (uint32_t)0x3U) << shiftAmt);

    //
    // Write value into MUX register
    //
    HWREG(muxRegAddr) |= ((pinConfig & (uint32_t)0x3U) << shiftAmt);
   2b258:	04 41 05 04 ®░	and gr4 gr4 gr5
   2b25c:	a8 60 80 02 ®Ė	load32 gr6 gr2 0 <_cla_int_entry_group0_0>
   2b260:	84 31 03 09 	sl gr3 gr4 gr3
   2b264:	84 31 83 05 	or gr3 gr6 gr3
   2b268:	ec 30 80 02 	store32 gr3 gr2 0 <_cla_int_entry_group0_0>
    EDIS;
   2b26c:	80 00 00 14 	edis
}
   2b270:	80 00 00 04 	ret
   2b274:	80 00 00 00 	nop
   2b278:	80 00 00 00 	nop

0002b27c <Interrupt_initVectorTable>:
//
// Interrupt_initVectorTable
//
//*****************************************************************************
void Interrupt_initVectorTable(void)
{
   2b27c:	80 00 00 00 	nop
   2b280:	94 20 00 09 	moviglz gr2 0 <_cla_int_entry_group0_0>
   2b284:	94 40 00 21 	movigh gr4 2 <_cla_int_entry_group0_0+0x2>
   2b288:	94 47 c0 05 	movigl gr4 7c00 <$line_table_start0+0xed>
   2b28c:	94 50 00 21 	movigh gr5 2 <_cla_int_entry_group0_0+0x2>
   2b290:	94 59 69 05 	movigl gr5 ffff9690 <Flash0CtrlRegs+0xfef59690>

0002b294 <.L0 >:
    //
    // We set all entries to default, although, some of them are not connected to interrupt sources
    //
    for (int i = 0; i < 256; ++i)
   2b294:	94 00 9f ea 	gti gr2 ff <.L0 +0x6>
   2b298:	80 00 01 25 	jc 2b2c0 <.L0 >
   2b29c:	80 00 00 00 	nop
   2b2a0:	80 00 00 00 	nop
    {
        HWREG((Uint32)(&PIEVECTTABLE_BASE) + (i << 2)) = (Uint32)(&Interrupt_defaultHandler);
   2b2a4:	98 30 82 06 	sli gr3 gr2 2 <_cla_int_entry_group0_0+0x2>
   2b2a8:	84 31 03 00 	add gr3 gr4 gr3
   2b2ac:	18 20 80 08 ®░	addi gr2 gr2 1 <_cla_int_entry_group0_0+0x1>
   2b2b0:	ec 50 c0 02 ®Ė	store32 gr5 gr3 0 <_cla_int_entry_group0_0>
void Interrupt_initVectorTable(void)
{
    //
    // We set all entries to default, although, some of them are not connected to interrupt sources
    //
    for (int i = 0; i < 256; ++i)
   2b2b4:	83 ff fe e1 	jmp 2b294 <.L0 >
   2b2b8:	80 00 00 00 	nop
   2b2bc:	80 00 00 00 	nop

0002b2c0 <.L0 >:
    {
        HWREG((Uint32)(&PIEVECTTABLE_BASE) + (i << 2)) = (Uint32)(&Interrupt_defaultHandler);
    }
}
   2b2c0:	80 00 00 04 	ret
   2b2c4:	80 00 00 00 	nop
   2b2c8:	80 00 00 00 	nop

0002b2cc <SysCtl_isMCDClockFailureDetected>:
//! \return Returns \b true if a failure is detected or \b false if a
//! failure isn't detected
//
//*****************************************************************************
static inline bool SysCtl_isMCDClockFailureDetected(void)
{
   2b2cc:	80 00 00 00 	nop
   2b2d0:	94 20 10 71 	movigh gr2 107 <cla_interrupt_defaulthandler+0x7>
   2b2d4:	94 21 04 45 	movigl gr2 1044 <.L0 +0x20>
    //
    //  Check the status bit to determine failure
    //
    return ((HWREGH(CLKCFG_BASE + SYSCTL_O_MCDCR) & SYSCTL_MCDCR_MCLKSTS) != 0U);
   2b2d8:	14 30 00 19 ®░	moviglz gr3 1 <_cla_int_entry_group0_0+0x1>
   2b2dc:	a8 20 80 01 ®Ė	load16 gr2 gr2 0 <_cla_int_entry_group0_0>
   2b2e0:	84 20 83 04 	and gr2 gr2 gr3
   2b2e4:	80 00 00 04 	ret
   2b2e8:	80 00 00 00 	nop
   2b2ec:	80 00 00 00 	nop

0002b2f0 <SysCtl_setClock>:
//
// SysCtl_setClock()
//
//*****************************************************************************
bool SysCtl_setClock(uint32_t config)
{
   2b2f0:	99 e7 bf 40 	addi gr30 gr30 ffffffe8 <Flash0CtrlRegs+0xfef5ffe8>
   2b2f4:	ed f7 80 a2 	store32 gr31 gr30 5 <_core0_exp_start>
   2b2f8:	ed 27 80 82 	store32 gr18 gr30 4 <_cla_int_entry_group0_0+0x4>
   2b2fc:	ed 17 80 62 	store32 gr17 gr30 3 <_cla_int_entry_group0_0+0x3>
   2b300:	ed 07 80 42 	store32 gr16 gr30 2 <_cla_int_entry_group0_0+0x2>
   2b304:	91 01 00 80 	movg2g gr16 gr4
   2b308:	95 10 00 09 	moviglz gr17 0 <_cla_int_entry_group0_0>
           || ((config & SYSCTL_PLL_CONFIG_M) == SYSCTL_PLL_DISABLE));

    //
    // Don't proceed to the PLL initialization if an MCD failure is detected.
    //
    if (SysCtl_isMCDClockFailureDetected())
   2b30c:	83 ff fd ed 	call 2b2cc <SysCtl_isMCDClockFailureDetected>
   2b310:	80 00 00 00 	nop
   2b314:	80 00 00 00 	nop
   2b318:	80 00 00 00 	nop
   2b31c:	94 00 80 06 	neqi gr2 0 <_cla_int_entry_group0_0>
   2b320:	80 00 19 e5 	jc 2b660 <SysCtl_setClock+0x370>
   2b324:	80 00 00 00 	nop
   2b328:	80 00 00 00 	nop
    else
    {
        //
        // Bypass PLL
        //
        EALLOW;
   2b32c:	80 00 00 10 	eallow
   2b330:	94 20 10 71 	movigh gr2 107 <cla_interrupt_defaulthandler+0x7>
   2b334:	94 21 01 45 	movigl gr2 1014 <.L0 +0x24>
        HWREGH(CLKCFG_BASE + SYSCTL_O_SYSPLLCTL1) &= ~SYSCTL_SYSPLLCTL1_PLLCLKEN;
   2b338:	14 4f ff d9 ®░	moviglz gr4 fffffffd <Flash0CtrlRegs+0xfef5fffd>
   2b33c:	a8 30 80 01 ®Ė	load16 gr3 gr2 0 <_cla_int_entry_group0_0>
   2b340:	84 30 c4 04 	and gr3 gr3 gr4
   2b344:	ec 30 80 01 	store16 gr3 gr2 0 <_cla_int_entry_group0_0>
        EDIS;
   2b348:	80 00 00 14 	edis
   2b34c:	94 40 01 79 	moviglz gr4 17 <_core1_exp_start>

        //
        // Delay of at least 120 OSCCLK cycles required post PLL bypass
        //
        SysCtl_delay(23U);
   2b350:	80 00 19 ad 	call 2b688 <SysCtl_delay>
   2b354:	80 00 00 00 	nop
   2b358:	80 00 00 00 	nop
   2b35c:	80 00 00 00 	nop
   2b360:	94 20 10 71 	movigh gr2 107 <cla_interrupt_defaulthandler+0x7>
   2b364:	94 21 00 85 	movigl gr2 1008 <.L0 +0x18>
   2b368:	94 30 00 31 	movigh gr3 3 <_cla_int_entry_group0_0+0x3>
   2b36c:	14 30 00 05 ®░	movigl gr3 0 <_cla_int_entry_group0_0>
   2b370:	a8 20 80 01 ®Ė	load16 gr2 gr2 0 <_cla_int_entry_group0_0>
        oscclksrcsel = HWREGH(CLKCFG_BASE + SYSCTL_O_CLKSRCCTL1)
                       & (uint16_t)SYSCTL_CLKSRCCTL1_OSCCLKSRCSEL_M;

        // xtalval = (HWREGH(CLKCFG_BASE + SYSCTL_O_XTALCR) & (uint16_t)SYSCTL_XTALCR_SE);

        oscSource = (config & SYSCTL_OSCSRC_M) >> SYSCTL_OSCSRC_S;
   2b374:	84 34 03 04 	and gr3 gr16 gr3
   2b378:	94 40 00 39 	moviglz gr4 3 <_cla_int_entry_group0_0+0x3>

        //
        // Derive the current and previous oscillator clock source values
        //
        oscclksrcsel = HWREGH(CLKCFG_BASE + SYSCTL_O_CLKSRCCTL1)
                       & (uint16_t)SYSCTL_CLKSRCCTL1_OSCCLKSRCSEL_M;
   2b37c:	84 20 84 04 	and gr2 gr2 gr4

        // xtalval = (HWREGH(CLKCFG_BASE + SYSCTL_O_XTALCR) & (uint16_t)SYSCTL_XTALCR_SE);

        oscSource = (config & SYSCTL_OSCSRC_M) >> SYSCTL_OSCSRC_S;
   2b380:	98 30 d0 0e 	srli gr3 gr3 10 <_cla_int_entry_group0_1>

        //
        // Check if the oscillator clock source has changed
        //
        // if ((oscclksrcsel | xtalval) != oscSource)
        if (oscclksrcsel != oscSource)
   2b384:	90 00 83 00 	eq gr2 gr3
   2b388:	80 00 03 65 	jc 2b3f8 <SysCtl_setClock+0x108>
   2b38c:	80 00 00 00 	nop
   2b390:	80 00 00 00 	nop
        {
            //
            // Turn off PLL
            //
            EALLOW;
   2b394:	80 00 00 10 	eallow
   2b398:	94 20 10 71 	movigh gr2 107 <cla_interrupt_defaulthandler+0x7>
   2b39c:	94 21 01 45 	movigl gr2 1014 <.L0 +0x24>
            HWREGH(CLKCFG_BASE + SYSCTL_O_SYSPLLCTL1) &= ~SYSCTL_SYSPLLCTL1_PLLEN;
   2b3a0:	14 4f ff e9 ®░	moviglz gr4 fffffffe <Flash0CtrlRegs+0xfef5fffe>
   2b3a4:	a8 30 80 01 ®Ė	load16 gr3 gr2 0 <_cla_int_entry_group0_0>
   2b3a8:	84 30 c4 04 	and gr3 gr3 gr4
   2b3ac:	ec 30 80 01 	store16 gr3 gr2 0 <_cla_int_entry_group0_0>
            EDIS;
   2b3b0:	80 00 00 14 	edis
   2b3b4:	94 40 00 c9 	moviglz gr4 c <_core0_exp_start+0x7>

            //
            // Delay of at least 66 OSCCLK cycles required between
            // powerdown to powerup of PLL
            //
            SysCtl_delay(12U);
   2b3b8:	80 00 16 6d 	call 2b688 <SysCtl_delay>
   2b3bc:	80 00 00 00 	nop
   2b3c0:	80 00 00 00 	nop
   2b3c4:	80 00 00 00 	nop
   2b3c8:	94 20 00 31 	movigh gr2 3 <_cla_int_entry_group0_0+0x3>
   2b3cc:	94 20 00 05 	movigl gr2 0 <_cla_int_entry_group0_0>

            //
            // Configure oscillator source
            //
            SysCtl_selectOscSource(config & SYSCTL_OSCSRC_M);
   2b3d0:	84 44 02 04 	and gr4 gr16 gr2
   2b3d4:	80 00 16 ed 	call 2b6b4 <SysCtl_selectOscSource>
   2b3d8:	80 00 00 00 	nop
   2b3dc:	80 00 00 00 	nop
   2b3e0:	80 00 00 00 	nop
   2b3e4:	94 40 00 b9 	moviglz gr4 b <_core0_exp_start+0x6>

            //
            // Delay of at least 60 OSCCLK cycles
            //
            SysCtl_delay(11U);
   2b3e8:	80 00 14 ed 	call 2b688 <SysCtl_delay>
   2b3ec:	80 00 00 00 	nop
   2b3f0:	80 00 00 00 	nop
   2b3f4:	80 00 00 00 	nop
   2b3f8:	94 2c 00 01 	movigh gr2 ffffc000 <Flash0CtrlRegs+0xfef5c000>
   2b3fc:	94 20 00 05 	movigl gr2 0 <_cla_int_entry_group0_0>
   2b400:	94 38 00 01 	movigh gr3 ffff8000 <Flash0CtrlRegs+0xfef58000>
   2b404:	94 30 00 05 	movigl gr3 0 <_cla_int_entry_group0_0>
        }

        //
        // Configure PLL if PLL usage is enabled or bypassed in config
        //
        if (((config & SYSCTL_PLL_CONFIG_M) == SYSCTL_PLL_ENABLE)
   2b408:	84 24 02 04 	and gr2 gr16 gr2
   2b40c:	90 00 83 00 	eq gr2 gr3
            || ((config & SYSCTL_PLL_CONFIG_M) == SYSCTL_PLL_BYPASS))
   2b410:	80 00 01 05 	jc 2b434 <SysCtl_setClock+0x144>
   2b414:	80 00 00 00 	nop
   2b418:	80 00 00 00 	nop
   2b41c:	94 34 00 01 	movigh gr3 4000 <.L0 +0x11>
   2b420:	94 30 00 05 	movigl gr3 0 <_cla_int_entry_group0_0>
   2b424:	90 00 83 01 	neq gr2 gr3
   2b428:	80 00 0b e5 	jc 2b5a8 <SysCtl_setClock+0x2b8>
   2b42c:	80 00 00 00 	nop
   2b430:	80 00 00 00 	nop
   2b434:	94 20 10 71 	movigh gr2 107 <cla_interrupt_defaulthandler+0x7>
   2b438:	94 21 01 85 	movigl gr2 1018 <.L0 +0x28>
   2b43c:	94 30 07 c1 	movigh gr3 7c <.L0 +0x5>
   2b440:	94 30 00 05 	movigl gr3 0 <_cla_int_entry_group0_0>
   2b444:	94 40 0f f9 	moviglz gr4 ff <.L0 +0x6>
   2b448:	94 50 f8 01 	movigh gr5 f80 <.L0 >
            pllMult |= (((config & SYSCTL_ODIV_M) >> SYSCTL_ODIV_S) << SYSCTL_SYSPLLMULT_ODIV_S);

            //
            // Get the PLL multipliers currently programmed
            //
            mult = ((HWREG(CLKCFG_BASE + SYSCTL_O_SYSPLLMULT) & SYSCTL_SYSPLLMULT_IMULT_M)
   2b44c:	14 50 00 05 ®░	movigl gr5 0 <_cla_int_entry_group0_0>
   2b450:	a8 60 80 02 ®Ė	load32 gr6 gr2 0 <_cla_int_entry_group0_0>
            // Get the PLL multiplier settings from config
            //
            pllMult = ((config & SYSCTL_IMULT_M) << SYSCTL_SYSPLLMULT_IMULT_S);

            pllMult
                |= (((config & SYSCTL_REFDIV_M) >> SYSCTL_REFDIV_S) << SYSCTL_SYSPLLMULT_REFDIV_S);
   2b454:	04 34 03 04 ®░	and gr3 gr16 gr3
   2b458:	a8 70 80 02 ®Ė	load32 gr7 gr2 0 <_cla_int_entry_group0_0>

            pllMult |= (((config & SYSCTL_ODIV_M) >> SYSCTL_ODIV_S) << SYSCTL_SYSPLLMULT_ODIV_S);
   2b45c:	84 54 05 04 	and gr5 gr16 gr5
   2b460:	94 81 f0 01 	movigh gr8 1f00 <.L0 +0xa>
            mult = ((HWREG(CLKCFG_BASE + SYSCTL_O_SYSPLLMULT) & SYSCTL_SYSPLLMULT_IMULT_M)
                    >> SYSCTL_SYSPLLMULT_IMULT_S);

            mult |= (HWREG(CLKCFG_BASE + SYSCTL_O_SYSPLLMULT) & SYSCTL_SYSPLLMULT_REFDIV_M);

            mult |= (HWREG(CLKCFG_BASE + SYSCTL_O_SYSPLLMULT) & SYSCTL_SYSPLLMULT_ODIV_M);
   2b464:	14 80 00 05 ®░	movigl gr8 0 <_cla_int_entry_group0_0>
   2b468:	a8 20 80 02 ®Ė	load32 gr2 gr2 0 <_cla_int_entry_group0_0>
            // Get the PLL multiplier settings from config
            //
            pllMult = ((config & SYSCTL_IMULT_M) << SYSCTL_SYSPLLMULT_IMULT_S);

            pllMult
                |= (((config & SYSCTL_REFDIV_M) >> SYSCTL_REFDIV_S) << SYSCTL_SYSPLLMULT_REFDIV_S);
   2b46c:	98 30 c6 06 	sli gr3 gr3 6 <_core0_exp_start+0x1>
   2b470:	94 90 10 71 	movigh gr9 107 <cla_interrupt_defaulthandler+0x7>
   2b474:	94 91 01 45 	movigl gr9 1014 <.L0 +0x24>

            pllMult |= (((config & SYSCTL_ODIV_M) >> SYSCTL_ODIV_S) << SYSCTL_SYSPLLMULT_ODIV_S);
   2b478:	18 51 47 0e ®░	srli gr5 gr5 7 <_core0_exp_start+0x2>
   2b47c:	a8 92 40 01 ®Ė	load16 gr9 gr9 0 <_cla_int_entry_group0_0>
   2b480:	94 a0 01 f1 	movigh gr10 1f <_core1_exp_start+0x8>
   2b484:	94 a0 00 05 	movigl gr10 0 <_cla_int_entry_group0_0>
   2b488:	95 10 00 19 	moviglz gr17 1 <_cla_int_entry_group0_0+0x1>
            || ((config & SYSCTL_PLL_CONFIG_M) == SYSCTL_PLL_BYPASS))
        {
            //
            // Get the PLL multiplier settings from config
            //
            pllMult = ((config & SYSCTL_IMULT_M) << SYSCTL_SYSPLLMULT_IMULT_S);
   2b48c:	84 b4 04 04 	and gr11 gr16 gr4

            pllMult
                |= (((config & SYSCTL_REFDIV_M) >> SYSCTL_REFDIV_S) << SYSCTL_SYSPLLMULT_REFDIV_S);
   2b490:	84 32 c3 05 	or gr3 gr11 gr3
            pllMult |= (((config & SYSCTL_ODIV_M) >> SYSCTL_ODIV_S) << SYSCTL_SYSPLLMULT_ODIV_S);

            //
            // Get the PLL multipliers currently programmed
            //
            mult = ((HWREG(CLKCFG_BASE + SYSCTL_O_SYSPLLMULT) & SYSCTL_SYSPLLMULT_IMULT_M)
   2b494:	84 41 84 04 	and gr4 gr6 gr4
                    >> SYSCTL_SYSPLLMULT_IMULT_S);

            mult |= (HWREG(CLKCFG_BASE + SYSCTL_O_SYSPLLMULT) & SYSCTL_SYSPLLMULT_REFDIV_M);
   2b498:	84 61 c8 04 	and gr6 gr7 gr8

            mult |= (HWREG(CLKCFG_BASE + SYSCTL_O_SYSPLLMULT) & SYSCTL_SYSPLLMULT_ODIV_M);
   2b49c:	84 20 8a 04 	and gr2 gr2 gr10
            // Get the PLL multipliers currently programmed
            //
            mult = ((HWREG(CLKCFG_BASE + SYSCTL_O_SYSPLLMULT) & SYSCTL_SYSPLLMULT_IMULT_M)
                    >> SYSCTL_SYSPLLMULT_IMULT_S);

            mult |= (HWREG(CLKCFG_BASE + SYSCTL_O_SYSPLLMULT) & SYSCTL_SYSPLLMULT_REFDIV_M);
   2b4a0:	84 41 06 05 	or gr4 gr4 gr6
            pllMult = ((config & SYSCTL_IMULT_M) << SYSCTL_SYSPLLMULT_IMULT_S);

            pllMult
                |= (((config & SYSCTL_REFDIV_M) >> SYSCTL_REFDIV_S) << SYSCTL_SYSPLLMULT_REFDIV_S);

            pllMult |= (((config & SYSCTL_ODIV_M) >> SYSCTL_ODIV_S) << SYSCTL_SYSPLLMULT_ODIV_S);
   2b4a4:	85 20 c5 05 	or gr18 gr3 gr5
            mult = ((HWREG(CLKCFG_BASE + SYSCTL_O_SYSPLLMULT) & SYSCTL_SYSPLLMULT_IMULT_M)
                    >> SYSCTL_SYSPLLMULT_IMULT_S);

            mult |= (HWREG(CLKCFG_BASE + SYSCTL_O_SYSPLLMULT) & SYSCTL_SYSPLLMULT_REFDIV_M);

            mult |= (HWREG(CLKCFG_BASE + SYSCTL_O_SYSPLLMULT) & SYSCTL_SYSPLLMULT_ODIV_M);
   2b4a8:	84 21 02 05 	or gr2 gr4 gr2

            //
            // Lock PLL only if the multipliers need an update or PLL needs
            // to be powered on / enabled
            //
            if ((mult != pllMult) || (pllen != 1U))
   2b4ac:	90 00 92 01 	neq gr2 gr18

            mult |= (HWREG(CLKCFG_BASE + SYSCTL_O_SYSPLLMULT) & SYSCTL_SYSPLLMULT_REFDIV_M);

            mult |= (HWREG(CLKCFG_BASE + SYSCTL_O_SYSPLLMULT) & SYSCTL_SYSPLLMULT_ODIV_M);

            pllen = (HWREGH(CLKCFG_BASE + SYSCTL_O_SYSPLLCTL1) & SYSCTL_SYSPLLCTL1_PLLEN);
   2b4b0:	84 22 51 04 	and gr2 gr9 gr17

            //
            // Lock PLL only if the multipliers need an update or PLL needs
            // to be powered on / enabled
            //
            if ((mult != pllMult) || (pllen != 1U))
   2b4b4:	80 00 00 c5 	jc 2b4d0 <SysCtl_setClock+0x1e0>
   2b4b8:	80 00 00 00 	nop
   2b4bc:	80 00 00 00 	nop
   2b4c0:	94 00 80 22 	eqi gr2 1 <_cla_int_entry_group0_0+0x1>
   2b4c4:	80 00 09 25 	jc 2b5ec <SysCtl_setClock+0x2fc>
   2b4c8:	80 00 00 00 	nop
   2b4cc:	80 00 00 00 	nop
            {
                //
                // Turn off PLL
                //
                EALLOW;
   2b4d0:	80 00 00 10 	eallow
   2b4d4:	95 10 10 71 	movigh gr17 107 <cla_interrupt_defaulthandler+0x7>
   2b4d8:	95 11 01 45 	movigl gr17 1014 <.L0 +0x24>
                HWREGH(CLKCFG_BASE + SYSCTL_O_SYSPLLCTL1) &= ~SYSCTL_SYSPLLCTL1_PLLEN;
   2b4dc:	14 3f ff e9 ®░	moviglz gr3 fffffffe <Flash0CtrlRegs+0xfef5fffe>
   2b4e0:	a8 24 40 01 ®Ė	load16 gr2 gr17 0 <_cla_int_entry_group0_0>
   2b4e4:	84 20 83 04 	and gr2 gr2 gr3
   2b4e8:	ec 24 40 01 	store16 gr2 gr17 0 <_cla_int_entry_group0_0>
                EDIS;
   2b4ec:	80 00 00 14 	edis
   2b4f0:	94 40 00 c9 	moviglz gr4 c <_core0_exp_start+0x7>

                //
                // Delay of at least 66 OSCCLK cycles required between
                // powerdown to powerup of PLL
                //
                SysCtl_delay(12U);
   2b4f4:	80 00 0c 8d 	call 2b688 <SysCtl_delay>
   2b4f8:	80 00 00 00 	nop
   2b4fc:	80 00 00 00 	nop
   2b500:	80 00 00 00 	nop

                //
                // Write multiplier, which automatically turns on the PLL
                //
                EALLOW;
   2b504:	80 00 00 10 	eallow
   2b508:	94 20 10 71 	movigh gr2 107 <cla_interrupt_defaulthandler+0x7>
   2b50c:	94 21 01 85 	movigl gr2 1018 <.L0 +0x28>
   2b510:	94 30 07 c1 	movigh gr3 7c <.L0 +0x5>
                HWREG(CLKCFG_BASE + SYSCTL_O_SYSPLLMULT) = pllMult;
   2b514:	14 30 00 05 ®░	movigl gr3 0 <_cla_int_entry_group0_0>
   2b518:	ed 20 80 02 ®Ė	store32 gr18 gr2 0 <_cla_int_entry_group0_0>

                //
                // Enable/ turn on PLL
                //
                HWREGH(CLKCFG_BASE + SYSCTL_O_SYSPLLCTL1) |= SYSCTL_SYSPLLCTL1_PLLEN;
   2b51c:	a8 24 40 01 	load16 gr2 gr17 0 <_cla_int_entry_group0_0>
   2b520:	94 20 00 03 	bst gr2 0 <_cla_int_entry_group0_0>
   2b524:	14 40 40 09 ®░	moviglz gr4 400 <Cla1Task6+0x40>
   2b528:	ec 24 40 01 ®Ė	store16 gr2 gr17 0 <_cla_int_entry_group0_0>
   2b52c:	94 20 10 71 	movigh gr2 107 <cla_interrupt_defaulthandler+0x7>
   2b530:	94 21 01 c5 	movigl gr2 101c <.L0 +0x2c>
   2b534:	04 34 03 04 ®░	and gr3 gr16 gr3
   2b538:	a8 50 80 01 ®Ė	load16 gr5 gr2 0 <_cla_int_entry_group0_0>
                // with a factor of REFDIV.
                // Lock time is 1024 OSCCLK * (REFDIV+1)
                //
                refdiv = ((config & SYSCTL_REFDIV_M) >> SYSCTL_REFDIV_S);

                timeout       = (1024U * (refdiv + 1U));
   2b53c:	98 20 c8 0e 	srli gr2 gr3 8 <_core0_exp_start+0x3>
   2b540:	84 20 84 00 	add gr2 gr2 gr4
   2b544:	94 30 00 19 	moviglz gr3 1 <_cla_int_entry_group0_0+0x1>
                pllLockStatus = HWREGH(CLKCFG_BASE + SYSCTL_O_SYSPLLSTS) & SYSCTL_SYSPLLSTS_LOCKS;
   2b548:	84 31 43 04 	and gr3 gr5 gr3
   2b54c:	94 4f ff f9 	moviglz gr4 ffffffff <Flash0CtrlRegs+0xfef5ffff>

                while ((pllLockStatus != 1U) && (timeout != 0U))
   2b550:	84 30 c4 04 	and gr3 gr3 gr4
   2b554:	94 00 c0 22 	eqi gr3 1 <_cla_int_entry_group0_0+0x1>
   2b558:	80 00 01 e5 	jc 2b598 <SysCtl_setClock+0x2a8>
   2b55c:	80 00 00 00 	nop
   2b560:	80 00 00 00 	nop
   2b564:	94 00 80 02 	eqi gr2 0 <_cla_int_entry_group0_0>
   2b568:	80 00 01 65 	jc 2b598 <SysCtl_setClock+0x2a8>
   2b56c:	80 00 00 00 	nop
   2b570:	80 00 00 00 	nop
   2b574:	94 30 10 71 	movigh gr3 107 <cla_interrupt_defaulthandler+0x7>
   2b578:	94 31 01 c5 	movigl gr3 101c <.L0 +0x2c>
                {
                    pllLockStatus
                        = HWREGH(CLKCFG_BASE + SYSCTL_O_SYSPLLSTS) & SYSCTL_SYSPLLSTS_LOCKS;
   2b57c:	14 40 00 19 ®░	moviglz gr4 1 <_cla_int_entry_group0_0+0x1>
   2b580:	a8 30 c0 01 ®Ė	load16 gr3 gr3 0 <_cla_int_entry_group0_0>
                    timeout--;
   2b584:	98 20 bf f8 	addi gr2 gr2 ffffffff <Flash0CtrlRegs+0xfef5ffff>
                pllLockStatus = HWREGH(CLKCFG_BASE + SYSCTL_O_SYSPLLSTS) & SYSCTL_SYSPLLSTS_LOCKS;

                while ((pllLockStatus != 1U) && (timeout != 0U))
                {
                    pllLockStatus
                        = HWREGH(CLKCFG_BASE + SYSCTL_O_SYSPLLSTS) & SYSCTL_SYSPLLSTS_LOCKS;
   2b588:	84 30 c4 04 	and gr3 gr3 gr4
                refdiv = ((config & SYSCTL_REFDIV_M) >> SYSCTL_REFDIV_S);

                timeout       = (1024U * (refdiv + 1U));
                pllLockStatus = HWREGH(CLKCFG_BASE + SYSCTL_O_SYSPLLSTS) & SYSCTL_SYSPLLSTS_LOCKS;

                while ((pllLockStatus != 1U) && (timeout != 0U))
   2b58c:	83 ff fd e1 	jmp 2b54c <SysCtl_setClock+0x25c>
   2b590:	80 00 00 00 	nop
   2b594:	80 00 00 00 	nop
                {
                    pllLockStatus
                        = HWREGH(CLKCFG_BASE + SYSCTL_O_SYSPLLSTS) & SYSCTL_SYSPLLSTS_LOCKS;
                    timeout--;
                }
                EDIS;
   2b598:	80 00 00 14 	edis
   2b59c:	80 00 02 41 	jmp 2b5e8 <SysCtl_setClock+0x2f8>
   2b5a0:	80 00 00 00 	nop
   2b5a4:	80 00 00 00 	nop
   2b5a8:	94 2c 00 01 	movigh gr2 ffffc000 <Flash0CtrlRegs+0xfef5c000>
   2b5ac:	94 20 00 05 	movigl gr2 0 <_cla_int_entry_group0_0>
                // are not updated
                //
                status = true;
            }
        }
        else if ((config & SYSCTL_PLL_CONFIG_M) == SYSCTL_PLL_DISABLE)
   2b5b0:	84 24 02 04 	and gr2 gr16 gr2
   2b5b4:	94 00 80 06 	neqi gr2 0 <_cla_int_entry_group0_0>
   2b5b8:	95 10 00 09 	moviglz gr17 0 <_cla_int_entry_group0_0>
   2b5bc:	80 00 01 65 	jc 2b5ec <SysCtl_setClock+0x2fc>
   2b5c0:	80 00 00 00 	nop
   2b5c4:	80 00 00 00 	nop
        {
            //
            // Turn off PLL when the PLL is disabled in config
            //
            EALLOW;
   2b5c8:	80 00 00 10 	eallow
   2b5cc:	94 20 10 71 	movigh gr2 107 <cla_interrupt_defaulthandler+0x7>
   2b5d0:	94 21 01 45 	movigl gr2 1014 <.L0 +0x24>
            HWREGH(CLKCFG_BASE + SYSCTL_O_SYSPLLCTL1) &= ~SYSCTL_SYSPLLCTL1_PLLEN;
   2b5d4:	14 4f ff e9 ®░	moviglz gr4 fffffffe <Flash0CtrlRegs+0xfef5fffe>
   2b5d8:	a8 30 80 01 ®Ė	load16 gr3 gr2 0 <_cla_int_entry_group0_0>
   2b5dc:	84 30 c4 04 	and gr3 gr3 gr4
   2b5e0:	ec 30 80 01 	store16 gr3 gr2 0 <_cla_int_entry_group0_0>
            SYSCTL_REGWRITE_DELAY;
            EDIS;
   2b5e4:	80 00 00 14 	edis
   2b5e8:	95 10 00 19 	moviglz gr17 1 <_cla_int_entry_group0_0+0x1>
   2b5ec:	94 20 00 19 	moviglz gr2 1 <_cla_int_entry_group0_0+0x1>

        //
        // If PLL locked successfully, configure the dividers
        // Or if PLL is bypassed, only configure the dividers
        //
        if (status)
   2b5f0:	84 24 42 04 	and gr2 gr17 gr2
   2b5f4:	94 00 80 02 	eqi gr2 0 <_cla_int_entry_group0_0>
   2b5f8:	80 00 03 25 	jc 2b660 <SysCtl_setClock+0x370>
   2b5fc:	80 00 00 00 	nop
   2b600:	80 00 00 00 	nop
   2b604:	94 27 f0 09 	moviglz gr2 7f00 <$line_table_start0+0x3ed>
        {
            //
            // Set divider to produce slower output frequency to limit current
            // increase.
            //
            divSel = (config & SYSCTL_SYSDIV_M) >> SYSCTL_SYSDIV_S;
   2b608:	84 24 02 04 	and gr2 gr16 gr2
   2b60c:	98 40 88 0e 	srli gr4 gr2 8 <_core0_exp_start+0x3>

            SysCtl_setPLLSysClk(divSel); // Sys Clk mast set before PLLCLKEN=1
   2b610:	80 00 0a ed 	call 2b770 <SysCtl_setPLLSysClk>
   2b614:	80 00 00 00 	nop
   2b618:	80 00 00 00 	nop
   2b61c:	80 00 00 00 	nop
   2b620:	94 2c 00 01 	movigh gr2 ffffc000 <Flash0CtrlRegs+0xfef5c000>
   2b624:	94 20 00 05 	movigl gr2 0 <_cla_int_entry_group0_0>
   2b628:	94 38 00 01 	movigh gr3 ffff8000 <Flash0CtrlRegs+0xfef58000>
   2b62c:	94 30 00 05 	movigl gr3 0 <_cla_int_entry_group0_0>

            //
            // Feed system clock from SYSPLL only if PLL usage is enabled
            //
            if ((config & SYSCTL_PLL_CONFIG_M) == SYSCTL_PLL_ENABLE)
   2b630:	84 24 02 04 	and gr2 gr16 gr2
   2b634:	90 00 83 01 	neq gr2 gr3
   2b638:	80 00 01 25 	jc 2b660 <SysCtl_setClock+0x370>
   2b63c:	80 00 00 00 	nop
   2b640:	80 00 00 00 	nop
            {

                //
                // Enable PLLSYSCLK is fed from system PLL clock
                //
                EALLOW;
   2b644:	80 00 00 10 	eallow
   2b648:	94 20 10 71 	movigh gr2 107 <cla_interrupt_defaulthandler+0x7>
   2b64c:	94 21 01 45 	movigl gr2 1014 <.L0 +0x24>
                HWREGH(CLKCFG_BASE + SYSCTL_O_SYSPLLCTL1) |= SYSCTL_SYSPLLCTL1_PLLCLKEN;
   2b650:	a8 30 80 01 	load16 gr3 gr2 0 <_cla_int_entry_group0_0>
   2b654:	94 30 02 03 	bst gr3 1 <_cla_int_entry_group0_0+0x1>
   2b658:	ec 30 80 01 	store16 gr3 gr2 0 <_cla_int_entry_group0_0>
                EDIS;
   2b65c:	80 00 00 14 	edis
   2b660:	94 20 00 19 	moviglz gr2 1 <_cla_int_entry_group0_0+0x1>
        {
            ESTOP0; // If the frequency is out of range, stop here.
        }
    }

    return (status);
   2b664:	04 24 42 04 ®░	and gr2 gr17 gr2
   2b668:	a9 07 80 42 ®Ė	load32 gr16 gr30 2 <_cla_int_entry_group0_0+0x2>
   2b66c:	a9 17 80 62 	load32 gr17 gr30 3 <_cla_int_entry_group0_0+0x3>
   2b670:	a9 27 80 82 	load32 gr18 gr30 4 <_cla_int_entry_group0_0+0x4>
   2b674:	a9 f7 80 a2 	load32 gr31 gr30 5 <_core0_exp_start>
   2b678:	99 e7 80 c0 	addi gr30 gr30 18 <_core1_exp_start+0x1>
   2b67c:	80 00 00 04 	ret
   2b680:	80 00 00 00 	nop
   2b684:	80 00 00 00 	nop

0002b688 <SysCtl_delay>:
//! \return None.
//
//*****************************************************************************
extern void qx_precise_delay(uint32_t count);
static inline void SysCtl_delay(uint32_t count)
{
   2b688:	99 e7 bf 80 	addi gr30 gr30 fffffff0 <Flash0CtrlRegs+0xfef5fff0>
    qx_precise_delay(count);
   2b68c:	ed f7 80 62 	store32 gr31 gr30 3 <_cla_int_entry_group0_0+0x3>
   2b690:	83 ff 09 2d 	call 297b8 <qx_precise_delay>
   2b694:	80 00 00 00 	nop
   2b698:	80 00 00 00 	nop
   2b69c:	80 00 00 00 	nop
}
   2b6a0:	a9 f7 80 62 	load32 gr31 gr30 3 <_cla_int_entry_group0_0+0x3>
   2b6a4:	99 e7 80 80 	addi gr30 gr30 10 <_cla_int_entry_group0_1>
   2b6a8:	80 00 00 04 	ret
   2b6ac:	80 00 00 00 	nop
   2b6b0:	80 00 00 00 	nop

0002b6b4 <SysCtl_selectOscSource>:
//
// SysCtl_selectOscSource()
//
//*****************************************************************************
void SysCtl_selectOscSource(uint32_t oscSource)
{
   2b6b4:	99 e7 bf 80 	addi gr30 gr30 fffffff0 <Flash0CtrlRegs+0xfef5fff0>
           || (oscSource == SYSCTL_OSCSRC_XTAL));

    //
    // Select the specified source.
    //
    EALLOW;
   2b6b8:	ed f7 80 62 	store32 gr31 gr30 3 <_cla_int_entry_group0_0+0x3>
   2b6bc:	80 00 00 10 	eallow
    switch (oscSource)
   2b6c0:	94 01 00 02 	eqi gr4 0 <_cla_int_entry_group0_0>
   2b6c4:	80 00 03 05 	jc 2b728 <SysCtl_selectOscSource+0x74>
   2b6c8:	80 00 00 00 	nop
   2b6cc:	80 00 00 00 	nop
   2b6d0:	94 20 00 11 	movigh gr2 1 <_cla_int_entry_group0_0+0x1>
   2b6d4:	94 20 00 05 	movigl gr2 0 <_cla_int_entry_group0_0>
   2b6d8:	90 01 02 00 	eq gr4 gr2
   2b6dc:	80 00 03 45 	jc 2b748 <SysCtl_selectOscSource+0x94>
   2b6e0:	80 00 00 00 	nop
   2b6e4:	80 00 00 00 	nop
   2b6e8:	94 20 00 21 	movigh gr2 2 <_cla_int_entry_group0_0+0x2>
   2b6ec:	94 20 00 05 	movigl gr2 0 <_cla_int_entry_group0_0>
   2b6f0:	90 01 02 00 	eq gr4 gr2
   2b6f4:	80 00 03 09 	jnc 2b758 <SysCtl_selectOscSource+0xa4>
   2b6f8:	80 00 00 00 	nop
   2b6fc:	80 00 00 00 	nop
   2b700:	94 20 10 71 	movigh gr2 107 <cla_interrupt_defaulthandler+0x7>
   2b704:	94 21 00 85 	movigl gr2 1008 <.L0 +0x18>
        case SYSCTL_OSCSRC_OSC1:
            //
            // Clk Src = INTOSC1
            //
            HWREGH(CLKCFG_BASE + SYSCTL_O_CLKSRCCTL1)
                = (HWREGH(CLKCFG_BASE + SYSCTL_O_CLKSRCCTL1) & ~SYSCTL_CLKSRCCTL1_OSCCLKSRCSEL_M)
   2b708:	14 4f ff c9 ®░	moviglz gr4 fffffffc <Flash0CtrlRegs+0xfef5fffc>
   2b70c:	a8 30 80 01 ®Ė	load16 gr3 gr2 0 <_cla_int_entry_group0_0>
   2b710:	84 30 c4 04 	and gr3 gr3 gr4
                  | (SYSCTL_OSCSRC_OSC1 >> SYSCTL_OSCSRC_S);
   2b714:	94 30 02 03 	bst gr3 1 <_cla_int_entry_group0_0+0x1>
   2b718:	ec 30 80 01 	store16 gr3 gr2 0 <_cla_int_entry_group0_0>
   2b71c:	80 00 01 c1 	jmp 2b758 <SysCtl_selectOscSource+0xa4>
   2b720:	80 00 00 00 	nop
   2b724:	80 00 00 00 	nop
   2b728:	94 20 10 71 	movigh gr2 107 <cla_interrupt_defaulthandler+0x7>
   2b72c:	94 21 00 85 	movigl gr2 1008 <.L0 +0x18>
    {
        case SYSCTL_OSCSRC_OSC2:
            //
            // Clk Src = INTOSC2
            //
            HWREGH(CLKCFG_BASE + SYSCTL_O_CLKSRCCTL1) &= ~SYSCTL_CLKSRCCTL1_OSCCLKSRCSEL_M;
   2b730:	14 4f ff c9 ®░	moviglz gr4 fffffffc <Flash0CtrlRegs+0xfef5fffc>
   2b734:	a8 30 80 01 ®Ė	load16 gr3 gr2 0 <_cla_int_entry_group0_0>
   2b738:	84 30 c4 04 	and gr3 gr3 gr4
   2b73c:	83 ff fe c1 	jmp 2b718 <SysCtl_selectOscSource+0x64>
   2b740:	80 00 00 00 	nop
   2b744:	80 00 00 00 	nop

        case SYSCTL_OSCSRC_XTAL:
            //
            // Select XTAL in crystal mode and wait for it to power up
            //
            SysCtl_selectXTAL();
   2b748:	80 00 02 ed 	call 2b7a8 <SysCtl_selectXTAL>
   2b74c:	80 00 00 00 	nop
   2b750:	80 00 00 00 	nop
   2b754:	80 00 00 00 	nop
            //
            // Do nothing. Not a valid oscSource value.
            //
            break;
    }
    EDIS;
   2b758:	80 00 00 14 	edis
}
   2b75c:	a9 f7 80 62 	load32 gr31 gr30 3 <_cla_int_entry_group0_0+0x3>
   2b760:	99 e7 80 80 	addi gr30 gr30 10 <_cla_int_entry_group0_1>
   2b764:	80 00 00 04 	ret
   2b768:	80 00 00 00 	nop
   2b76c:	80 00 00 00 	nop

0002b770 <SysCtl_setPLLSysClk>:
//! \note Please make sure to check if the PLL is locked and valid using the
//! SysCtl_isPLLValid() before setting the divider.
//
//*****************************************************************************
static inline void SysCtl_setPLLSysClk(uint16_t divider)
{
   2b770:	80 00 00 00 	nop
    //
    // Clears the divider then configures it.
    //
    EALLOW;
   2b774:	80 00 00 10 	eallow
   2b778:	94 20 00 19 	moviglz gr2 1 <_cla_int_entry_group0_0+0x1>
    HWREG(CLKCFG_BASE + SYSCTL_O_SYSCLKDIVSEL)
        = (divider / 2U) | ((divider % 2U) * SYSCTL_SYSCLKDIVSEL_PLLSYSCLKDIV_LSB);
   2b77c:	84 21 02 04 	and gr2 gr4 gr2
   2b780:	98 31 01 0e 	srli gr3 gr4 1 <_cla_int_entry_group0_0+0x1>
   2b784:	98 20 88 06 	sli gr2 gr2 8 <_core0_exp_start+0x3>
   2b788:	94 40 10 71 	movigh gr4 107 <cla_interrupt_defaulthandler+0x7>
   2b78c:	94 41 02 c5 	movigl gr4 102c <.L0 +0x8>
   2b790:	84 20 c2 05 	or gr2 gr3 gr2
   2b794:	ec 21 00 02 	store32 gr2 gr4 0 <_cla_int_entry_group0_0>
    SYSCTL_REGWRITE_DELAY;
    EDIS;
   2b798:	80 00 00 14 	edis
}
   2b79c:	80 00 00 04 	ret
   2b7a0:	80 00 00 00 	nop
   2b7a4:	80 00 00 00 	nop

0002b7a8 <SysCtl_selectXTAL>:
//
// SysCtl_selectXTAL()
//
//*****************************************************************************
void SysCtl_selectXTAL(void)
{
   2b7a8:	99 e7 bf 80 	addi gr30 gr30 fffffff0 <Flash0CtrlRegs+0xfef5fff0>
   2b7ac:	ed f7 80 62 	store32 gr31 gr30 3 <_cla_int_entry_group0_0+0x3>
    bool status        = false;
    uint16_t loopCount = 0U;

    EALLOW;
   2b7b0:	80 00 00 10 	eallow
   2b7b4:	94 20 10 71 	movigh gr2 107 <cla_interrupt_defaulthandler+0x7>
   2b7b8:	94 21 05 05 	movigl gr2 1050 <.L0 +0x2c>
   2b7bc:	94 30 00 79 	moviglz gr3 7 <_core0_exp_start+0x2>
   2b7c0:	94 40 10 71 	movigh gr4 107 <cla_interrupt_defaulthandler+0x7>

    //
    // Enable XOSC pads initialization and set X1, X2 high
    //
    HWREGH(CLKCFG_BASE + SYSCTL_O_XTALCR2)
        |= SYSCTL_XTALCR2_FEN | SYSCTL_XTALCR2_XIF | SYSCTL_XTALCR2_XOF;
   2b7c4:	14 41 04 c5 ®░	movigl gr4 104c <.L0 +0x28>
   2b7c8:	a8 50 80 01 ®Ė	load16 gr5 gr2 0 <_cla_int_entry_group0_0>
   2b7cc:	84 31 43 05 	or gr3 gr5 gr3
   2b7d0:	ec 30 80 01 	store16 gr3 gr2 0 <_cla_int_entry_group0_0>
    SYSCTL_XTAL_CHARGE_DELAY;

    //
    // Turn on XTAL and select crystal mode
    //
    HWREGH(CLKCFG_BASE + SYSCTL_O_XTALCR) &= ~SYSCTL_XTALCR_OSCOFF;
   2b7d4:	14 3f ff e9 ®░	moviglz gr3 fffffffe <Flash0CtrlRegs+0xfef5fffe>
   2b7d8:	a8 21 00 01 ®Ė	load16 gr2 gr4 0 <_cla_int_entry_group0_0>
   2b7dc:	84 20 83 04 	and gr2 gr2 gr3
   2b7e0:	ec 21 00 01 	store16 gr2 gr4 0 <_cla_int_entry_group0_0>
    SYSCTL_REGWRITE_DELAY;
    // HWREGH(CLKCFG_BASE + SYSCTL_O_XTALCR) &= ~SYSCTL_XTALCR_SE;
    // SYSCTL_REGWRITE_DELAY;
    EDIS;
   2b7e4:	80 00 00 14 	edis

    //
    // Wait for the X1 clock to saturate
    //
    status = SysCtl_pollX1Counter();
   2b7e8:	80 00 02 2d 	call 2b830 <SysCtl_pollX1Counter>
   2b7ec:	80 00 00 00 	nop
   2b7f0:	80 00 00 00 	nop
   2b7f4:	80 00 00 00 	nop

    //
    // Select XTAL as the oscillator source
    //
    EALLOW;
   2b7f8:	80 00 00 10 	eallow
   2b7fc:	94 20 10 71 	movigh gr2 107 <cla_interrupt_defaulthandler+0x7>
   2b800:	94 21 00 85 	movigl gr2 1008 <.L0 +0x18>
    HWREGH(CLKCFG_BASE + SYSCTL_O_CLKSRCCTL1)
        = ((HWREGH(CLKCFG_BASE + SYSCTL_O_CLKSRCCTL1) & (~SYSCTL_CLKSRCCTL1_OSCCLKSRCSEL_M))
   2b804:	14 4f ff c9 ®░	moviglz gr4 fffffffc <Flash0CtrlRegs+0xfef5fffc>
   2b808:	a8 30 80 01 ®Ė	load16 gr3 gr2 0 <_cla_int_entry_group0_0>
   2b80c:	84 30 c4 04 	and gr3 gr3 gr4
            | (SYSCTL_OSCSRC_XTAL >> SYSCTL_OSCSRC_S));
   2b810:	94 30 00 03 	bst gr3 0 <_cla_int_entry_group0_0>
    //
    // Select XTAL as the oscillator source
    //
    EALLOW;
    HWREGH(CLKCFG_BASE + SYSCTL_O_CLKSRCCTL1)
        = ((HWREGH(CLKCFG_BASE + SYSCTL_O_CLKSRCCTL1) & (~SYSCTL_CLKSRCCTL1_OSCCLKSRCSEL_M))
   2b814:	ec 30 80 01 	store16 gr3 gr2 0 <_cla_int_entry_group0_0>
            | (SYSCTL_OSCSRC_XTAL >> SYSCTL_OSCSRC_S));
    SYSCTL_CLKSRCCTL_DELAY;
    EDIS;
   2b818:	80 00 00 14 	edis
    // If code is stuck here, it means crystal has not started.
    // Replace crystal or update code below to take necessary actions if
    // crystal is bad
    // ESTOP0;
    // }
}
   2b81c:	a9 f7 80 62 	load32 gr31 gr30 3 <_cla_int_entry_group0_0+0x3>
   2b820:	99 e7 80 80 	addi gr30 gr30 10 <_cla_int_entry_group0_1>
   2b824:	80 00 00 04 	ret
   2b828:	80 00 00 00 	nop
   2b82c:	80 00 00 00 	nop

0002b830 <SysCtl_pollX1Counter>:
//
// SysCtl_pollX1Counter()
//
//*****************************************************************************
static bool SysCtl_pollX1Counter(void)
{
   2b830:	99 e7 bf 80 	addi gr30 gr30 fffffff0 <Flash0CtrlRegs+0xfef5fff0>
   2b834:	ed f7 80 62 	store32 gr31 gr30 3 <_cla_int_entry_group0_0+0x3>
   2b838:	94 40 7d 09 	moviglz gr4 7d0 <.L0 +0x14>
    //
    // Delay for 1 ms while the XTAL powers up
    //
    // 2000 loops, 5 cycles per loop + 9 cycles overhead = 10009 cycles
    //
    SysCtl_delay(2000);
   2b83c:	83 ff f2 4d 	call 2b688 <SysCtl_delay>
   2b840:	80 00 00 00 	nop
   2b844:	80 00 00 00 	nop
   2b848:	80 00 00 00 	nop
   2b84c:	94 20 00 09 	moviglz gr2 0 <_cla_int_entry_group0_0>
   2b850:	90 30 80 80 	movg2g gr3 gr2
   2b854:	94 40 10 71 	movigh gr4 107 <cla_interrupt_defaulthandler+0x7>
   2b858:	94 41 04 85 	movigl gr4 1048 <.L0 +0x24>
    do
    {
        //
        // Keep clearing the counter until it is no longer saturated
        //
        while (HWREG(CLKCFG_BASE + SYSCTL_O_X1CNT) > 0x1FFU)
   2b85c:	14 50 20 09 ®░	moviglz gr5 200 <$line_table_start0+0x9>
   2b860:	a8 41 00 02 ®Ė	load32 gr4 gr4 0 <_cla_int_entry_group0_0>
   2b864:	90 01 05 0b 	ltu gr4 gr5
   2b868:	94 40 00 09 	moviglz gr4 0 <_cla_int_entry_group0_0>
   2b86c:	80 00 01 45 	jc 2b898 <SysCtl_pollX1Counter+0x68>
   2b870:	80 00 00 00 	nop
   2b874:	80 00 00 00 	nop
   2b878:	94 40 10 71 	movigh gr4 107 <cla_interrupt_defaulthandler+0x7>
   2b87c:	94 41 04 85 	movigl gr4 1048 <.L0 +0x24>
        {
            HWREG(CLKCFG_BASE + SYSCTL_O_X1CNT) |= SYSCTL_X1CNT_CLR;
   2b880:	a8 51 00 02 	load32 gr5 gr4 0 <_cla_int_entry_group0_0>
   2b884:	94 50 20 03 	bst gr5 fffffff0 <Flash0CtrlRegs+0xfef5fff0>
   2b888:	ec 51 00 02 	store32 gr5 gr4 0 <_cla_int_entry_group0_0>
    do
    {
        //
        // Keep clearing the counter until it is no longer saturated
        //
        while (HWREG(CLKCFG_BASE + SYSCTL_O_X1CNT) > 0x1FFU)
   2b88c:	83 ff fe 21 	jmp 2b854 <SysCtl_pollX1Counter+0x24>
   2b890:	80 00 00 00 	nop
   2b894:	80 00 00 00 	nop
   2b898:	94 50 10 71 	movigh gr5 107 <cla_interrupt_defaulthandler+0x7>
   2b89c:	94 51 04 85 	movigl gr5 1048 <.L0 +0x24>
        }

        //
        // Wait for the X1 clock to saturate
        //
        while (HWREGH(CLKCFG_BASE + SYSCTL_O_X1CNT) != SYSCTL_X1CNT_X1CNT_M)
   2b8a0:	14 60 7f f9 ®░	moviglz gr6 7ff <.L0 +0xd>
   2b8a4:	a8 51 40 01 ®Ė	load16 gr5 gr5 0 <_cla_int_entry_group0_0>
   2b8a8:	90 01 46 00 	eq gr5 gr6
   2b8ac:	80 00 01 c5 	jc 2b8e8 <SysCtl_pollX1Counter+0xb8>
   2b8b0:	80 00 00 00 	nop
   2b8b4:	80 00 00 00 	nop
        {
            //
            // If your application is stuck in this loop, please check if the
            // input clock source is valid.
            //
            localCounter++;
   2b8b8:	98 41 00 08 	addi gr4 gr4 1 <_cla_int_entry_group0_0+0x1>
   2b8bc:	94 50 02 61 	movigh gr5 26 <.L0 >
   2b8c0:	94 52 5a 15 	movigl gr5 25a1 <.L0 +0x13>
            if (localCounter > 2500000U)
   2b8c4:	90 01 05 0b 	ltu gr4 gr5
   2b8c8:	83 ff fe 65 	jc 2b898 <SysCtl_pollX1Counter+0x68>
   2b8cc:	80 00 00 00 	nop
   2b8d0:	80 00 00 00 	nop
   2b8d4:	94 4f ff f9 	moviglz gr4 ffffffff <Flash0CtrlRegs+0xfef5ffff>
            {
                if (loopCount == 3U)
   2b8d8:	84 40 c4 04 	and gr4 gr3 gr4
   2b8dc:	94 01 00 62 	eqi gr4 3 <_cla_int_entry_group0_0+0x3>
   2b8e0:	94 40 00 09 	moviglz gr4 0 <_cla_int_entry_group0_0>
   2b8e4:	90 21 02 42 	select gr2 gr4 gr2
   2b8e8:	94 4f ff f9 	moviglz gr4 ffffffff <Flash0CtrlRegs+0xfef5ffff>
                }
                break;
            }
        }

        if (loopCount == 3U && (HWREGH(CLKCFG_BASE + SYSCTL_O_X1CNT) == SYSCTL_X1CNT_X1CNT_M))
   2b8ec:	84 40 c4 04 	and gr4 gr3 gr4
   2b8f0:	94 01 00 66 	neqi gr4 3 <_cla_int_entry_group0_0+0x3>
   2b8f4:	80 00 01 25 	jc 2b91c <SysCtl_pollX1Counter+0xec>
   2b8f8:	80 00 00 00 	nop
   2b8fc:	80 00 00 00 	nop
   2b900:	94 40 10 71 	movigh gr4 107 <cla_interrupt_defaulthandler+0x7>
   2b904:	94 41 04 85 	movigl gr4 1048 <.L0 +0x24>
   2b908:	14 50 7f f9 ®░	moviglz gr5 7ff <.L0 +0xd>
   2b90c:	a8 41 00 01 ®Ė	load16 gr4 gr4 0 <_cla_int_entry_group0_0>
   2b910:	94 60 00 19 	moviglz gr6 1 <_cla_int_entry_group0_0+0x1>
   2b914:	90 01 05 00 	eq gr4 gr5
   2b918:	90 21 82 42 	select gr2 gr6 gr2
            status = true;
        }
        //
        // Increment the counter
        //
        loopCount++;
   2b91c:	98 30 c0 08 	addi gr3 gr3 1 <_cla_int_entry_group0_0+0x1>
   2b920:	94 4f ff f9 	moviglz gr4 ffffffff <Flash0CtrlRegs+0xfef5ffff>
   2b924:	84 40 c4 04 	and gr4 gr3 gr4
        localCounter = 0U;
    } while (loopCount < 4U);
   2b928:	94 01 00 97 	ltiu gr4 4 <_cla_int_entry_group0_0+0x4>
   2b92c:	83 ff f9 25 	jc 2b854 <SysCtl_pollX1Counter+0x24>
   2b930:	80 00 00 00 	nop
   2b934:	80 00 00 00 	nop
   2b938:	94 30 00 19 	moviglz gr3 1 <_cla_int_entry_group0_0+0x1>

    return status;
   2b93c:	04 20 83 04 ®░	and gr2 gr2 gr3
   2b940:	a9 f7 80 62 ®Ė	load32 gr31 gr30 3 <_cla_int_entry_group0_0+0x3>
   2b944:	99 e7 80 80 	addi gr30 gr30 10 <_cla_int_entry_group0_1>
   2b948:	80 00 00 04 	ret
   2b94c:	80 00 00 00 	nop
   2b950:	80 00 00 00 	nop

0002b954 <main>:
// õĖ║ÕŖĀÕ┐½õ╗┐ń£¤ķĆ¤Õ║”’╝īµēōÕŹ░õĖ▓ÕÅŻµ│óńē╣ńÄćÕ£©ÕēŹõ╗┐ńÄ»ÕóāõĖŁķ╗śĶ«żķģŹńĮ«õĖ║ÕĮōÕēŹń│╗ń╗¤µŚČķÆ¤µö»µīüńÜäµ£Ćķ½śķĆ¤Õ║”
// FPGA ÕÆīĶŖ»ńēćÕø×ńēćõ╗┐ń£¤µŚČķ£ĆĶ”üÕ╝ĆÕÉ» FPGA_TEST Õ«Å, µŁżµŚČõĖ▓ÕÅŻµēōÕŹ░ķĆ¤Õ║”õĖ║ StdOutInit ÕćĮµĢ░ÕÅéµĢ░ķģŹńĮ«ńÜäķĆ¤Õ║”
// ķ╗śĶ«żõĖŹÕ╝ĆÕÉ»µĀĖ2ńÜäµŚČķÆ¤, Õ”éµ×£ķ£ĆĶ”üÕ╝ĆÕÉ»µĀĖ2µŚČķÆ¤ķ£ĆĶ”üÕ£©CPU1ńÜäµĄŗĶ»Ģńö©õŠŗķćīķćŖµöŠCPU2ńÜäÕżŹõĮŹõ┐ĪÕÅĘ

int main(void)
{
   2b954:	99 e7 bf 80 	addi gr30 gr30 fffffff0 <Flash0CtrlRegs+0xfef5fff0>
    chipAutotestCaseStart();                   // ńö©õ║ÄĶć¬ÕŖ©Õī¢µĄŗĶ»ĢµŚČńÜäÕłØÕ¦ŗÕī¢
   2b958:	ed f7 80 62 	store32 gr31 gr30 3 <_cla_int_entry_group0_0+0x3>
   2b95c:	83 ff 5c cd 	call 2a4f8 <chipAutotestCaseStart>
   2b960:	80 00 00 00 	nop
   2b964:	80 00 00 00 	nop
   2b968:	80 00 00 00 	nop
    sim_env_flag = CpuTimer0Regs.TCR.bit.FREE; // ÕĆ¤ńö©TIMER.FREEķ╗śĶ«żÕĆ╝µØźÕī║ÕłåÕēŹõ╗┐ÕÆīń£¤Õ«×ńÜäĶŖ»ńēćńÄ»Õóā
   2b96c:	94 20 07 f1 	movigh gr2 7f <.L0 +0x8>
   2b970:	94 20 30 05 	movigl gr2 300 <.L0 +0x3c>
   2b974:	14 30 00 19 ®░	moviglz gr3 1 <_cla_int_entry_group0_0+0x1>
   2b978:	a8 20 80 81 ®Ė	load16 gr2 gr2 4 <_cla_int_entry_group0_0+0x4>
   2b97c:	94 40 00 11 	movigh gr4 1 <_cla_int_entry_group0_0+0x1>
   2b980:	94 40 4f 05 	movigl gr4 4f0 <.L0 >
   2b984:	98 20 8b 0e 	srli gr2 gr2 b <_core0_exp_start+0x6>
