file name:elf32-tradlittlemips

F28P6x_driver_core0.out:     file format elf32-tradlittlemips


Disassembly of section .text.qxbootdebug:

00280000 <.L0 >:
  280000:	94 30 10 01 	movigh gr3 100 <cla_interrupt_defaulthandler>
  280004:	94 31 20 05 	movigl gr3 1200 <.L0 +0x1c>
  280008:	a8 40 c0 02 	load32 gr4 gr3 0 <_cla_int_entry_group0_0>
  28000c:	94 40 00 03 	bst gr4 0 <_cla_int_entry_group0_0>
  280010:	ec 40 c0 02 	store32 gr4 gr3 0 <_cla_int_entry_group0_0>
  280014:	94 20 10 71 	movigh gr2 107 <cla_interrupt_defaulthandler+0x7>
  280018:	94 22 00 05 	movigl gr2 2000 <.L0 +0x24>
  28001c:	94 40 00 01 	movigh gr4 0 <_cla_int_entry_group0_0>
  280020:	94 40 00 55 	movigl gr4 5 <_core0_exp_start>
  280024:	ec 40 86 a2 	store32 gr4 gr2 35 <_cla_int_entry_group0_3+0x5>
  280028:	94 40 00 05 	movigl gr4 0 <_cla_int_entry_group0_0>
  28002c:	ec 40 86 c2 	store32 gr4 gr2 36 <_cla_int_entry_group0_3+0x6>
  280030:	95 e0 00 21 	movigh gr30 2 <_cla_int_entry_group0_0+0x2>
  280034:	95 e7 c0 05 	movigl gr30 7c00 <$line_table_start0+0xed>
  280038:	82 d5 7d 8d 	call 2afec <device_copytrim>
  28003c:	80 00 00 00 	nop
  280040:	80 00 00 00 	nop
  280044:	94 20 10 71 	movigh gr2 107 <cla_interrupt_defaulthandler+0x7>
  280048:	94 20 00 05 	movigl gr2 0 <_cla_int_entry_group0_0>
  28004c:	94 30 00 01 	movigh gr3 0 <_cla_int_entry_group0_0>
  280050:	94 30 00 35 	movigl gr3 3 <_cla_int_entry_group0_0+0x3>
  280054:	ec 30 88 c2 	store32 gr3 gr2 46 <.L0 +0x5>
  280058:	94 30 0f 01 	movigh gr3 f0 <_cla_int_entry_group0_15>
  28005c:	94 30 00 05 	movigl gr3 0 <_cla_int_entry_group0_0>
  280060:	ec 30 89 42 	store32 gr3 gr2 4a <.L0 +0x9>
  280064:	94 30 00 f1 	movigh gr3 f <_core0_exp_start+0xa>
  280068:	94 3f ff f5 	movigl gr3 ffffffff <Flash0CtrlRegs+0xfef5ffff>
  28006c:	ec 30 89 02 	store32 gr3 gr2 48 <.L0 +0x7>
  280070:	ec 30 89 22 	store32 gr3 gr2 49 <.L0 +0x8>
  280074:	94 20 10 71 	movigh gr2 107 <cla_interrupt_defaulthandler+0x7>
  280078:	94 22 0d c5 	movigl gr2 20dc <.L0 +0x1c>
  28007c:	94 30 00 19 	moviglz gr3 1 <_cla_int_entry_group0_0+0x1>
  280080:	ec 30 80 02 	store32 gr3 gr2 0 <_cla_int_entry_group0_0>
  280084:	94 22 09 c5 	movigl gr2 209c <.L0 +0x1d>
  280088:	ec 30 80 02 	store32 gr3 gr2 0 <_cla_int_entry_group0_0>
  28008c:	82 d4 1b 81 	jmp 28400 <_dsp_start>
  280090:	80 00 00 00 	nop
  280094:	80 00 00 00 	nop
  280098:	80 00 00 00 	nop
  28009c:	80 00 00 00 	nop

Disassembly of section .text:

00028000 <_int_entry_group0_0>:
   28000:	94 00 00 21 	movigh gr0 2 <_cla_int_entry_group0_0+0x2>
   28004:	94 07 c0 05 	movigl gr0 7c00 <$line_table_start0+0xed>
   28008:	a8 00 00 02 	load32 gr0 gr0 0 <_cla_int_entry_group0_0>
   2800c:	80 00 00 03 	jmpr gr0

00028010 <_int_entry_group0_1>:
   28010:	94 00 00 21 	movigh gr0 2 <_cla_int_entry_group0_0+0x2>
   28014:	94 07 c0 05 	movigl gr0 7c00 <$line_table_start0+0xed>
   28018:	a8 00 00 22 	load32 gr0 gr0 1 <_cla_int_entry_group0_0+0x1>
   2801c:	80 00 00 03 	jmpr gr0

00028020 <_int_entry_group0_2>:
   28020:	94 00 00 21 	movigh gr0 2 <_cla_int_entry_group0_0+0x2>
   28024:	94 07 c0 05 	movigl gr0 7c00 <$line_table_start0+0xed>
   28028:	a8 00 00 42 	load32 gr0 gr0 2 <_cla_int_entry_group0_0+0x2>
   2802c:	80 00 00 03 	jmpr gr0

00028030 <_int_entry_group0_3>:
   28030:	94 00 00 21 	movigh gr0 2 <_cla_int_entry_group0_0+0x2>
   28034:	94 07 c0 05 	movigl gr0 7c00 <$line_table_start0+0xed>
   28038:	a8 00 00 62 	load32 gr0 gr0 3 <_cla_int_entry_group0_0+0x3>
   2803c:	80 00 00 03 	jmpr gr0

00028040 <_int_entry_group0_4>:
   28040:	94 00 00 21 	movigh gr0 2 <_cla_int_entry_group0_0+0x2>
   28044:	94 07 c0 05 	movigl gr0 7c00 <$line_table_start0+0xed>
   28048:	a8 00 00 82 	load32 gr0 gr0 4 <_cla_int_entry_group0_0+0x4>
   2804c:	80 00 00 03 	jmpr gr0

00028050 <_int_entry_group0_5>:
   28050:	94 00 00 21 	movigh gr0 2 <_cla_int_entry_group0_0+0x2>
   28054:	94 07 c0 05 	movigl gr0 7c00 <$line_table_start0+0xed>
   28058:	a8 00 00 a2 	load32 gr0 gr0 5 <_core0_exp_start>
   2805c:	80 00 00 03 	jmpr gr0

00028060 <_int_entry_group0_6>:
   28060:	94 00 00 21 	movigh gr0 2 <_cla_int_entry_group0_0+0x2>
   28064:	94 07 c0 05 	movigl gr0 7c00 <$line_table_start0+0xed>
   28068:	a8 00 00 c2 	load32 gr0 gr0 6 <_core0_exp_start+0x1>
   2806c:	80 00 00 03 	jmpr gr0

00028070 <_int_entry_group0_7>:
   28070:	94 00 00 21 	movigh gr0 2 <_cla_int_entry_group0_0+0x2>
   28074:	94 07 c0 05 	movigl gr0 7c00 <$line_table_start0+0xed>
   28078:	a8 00 00 e2 	load32 gr0 gr0 7 <_core0_exp_start+0x2>
   2807c:	80 00 00 03 	jmpr gr0

00028080 <_int_entry_group0_8>:
   28080:	94 00 00 21 	movigh gr0 2 <_cla_int_entry_group0_0+0x2>
   28084:	94 07 c0 05 	movigl gr0 7c00 <$line_table_start0+0xed>
   28088:	a8 00 01 02 	load32 gr0 gr0 8 <_core0_exp_start+0x3>
   2808c:	80 00 00 03 	jmpr gr0

00028090 <_int_entry_group0_9>:
   28090:	94 00 00 21 	movigh gr0 2 <_cla_int_entry_group0_0+0x2>
   28094:	94 07 c0 05 	movigl gr0 7c00 <$line_table_start0+0xed>
   28098:	a8 00 01 22 	load32 gr0 gr0 9 <_core0_exp_start+0x4>
   2809c:	80 00 00 03 	jmpr gr0

000280a0 <_int_entry_group0_10>:
   280a0:	94 00 00 21 	movigh gr0 2 <_cla_int_entry_group0_0+0x2>
   280a4:	94 07 c0 05 	movigl gr0 7c00 <$line_table_start0+0xed>
   280a8:	a8 00 01 42 	load32 gr0 gr0 a <_core0_exp_start+0x5>
   280ac:	80 00 00 03 	jmpr gr0

000280b0 <_int_entry_group0_11>:
   280b0:	94 00 00 21 	movigh gr0 2 <_cla_int_entry_group0_0+0x2>
   280b4:	94 07 c0 05 	movigl gr0 7c00 <$line_table_start0+0xed>
   280b8:	a8 00 01 62 	load32 gr0 gr0 b <_core0_exp_start+0x6>
   280bc:	80 00 00 03 	jmpr gr0

000280c0 <_int_entry_group0_12>:
   280c0:	94 00 00 21 	movigh gr0 2 <_cla_int_entry_group0_0+0x2>
   280c4:	94 07 c0 05 	movigl gr0 7c00 <$line_table_start0+0xed>
   280c8:	a8 00 01 82 	load32 gr0 gr0 c <_core0_exp_start+0x7>
   280cc:	80 00 00 03 	jmpr gr0

000280d0 <_int_entry_group0_13>:
   280d0:	94 00 00 21 	movigh gr0 2 <_cla_int_entry_group0_0+0x2>
   280d4:	94 07 c0 05 	movigl gr0 7c00 <$line_table_start0+0xed>
   280d8:	a8 00 01 a2 	load32 gr0 gr0 d <_core0_exp_start+0x8>
   280dc:	80 00 00 03 	jmpr gr0

000280e0 <_int_entry_group0_14>:
   280e0:	94 00 00 21 	movigh gr0 2 <_cla_int_entry_group0_0+0x2>
   280e4:	94 07 c0 05 	movigl gr0 7c00 <$line_table_start0+0xed>
   280e8:	a8 00 01 c2 	load32 gr0 gr0 e <_core0_exp_start+0x9>
   280ec:	80 00 00 03 	jmpr gr0

000280f0 <_int_entry_group0_15>:
   280f0:	94 00 00 21 	movigh gr0 2 <_cla_int_entry_group0_0+0x2>
   280f4:	94 07 c0 05 	movigl gr0 7c00 <$line_table_start0+0xed>
   280f8:	a8 00 01 e2 	load32 gr0 gr0 f <_core0_exp_start+0xa>
   280fc:	80 00 00 03 	jmpr gr0

00028100 <_int_entry_group1_0>:
   28100:	94 00 00 21 	movigh gr0 2 <_cla_int_entry_group0_0+0x2>
   28104:	94 07 c0 05 	movigl gr0 7c00 <$line_table_start0+0xed>
   28108:	a8 00 02 02 	load32 gr0 gr0 10 <_cla_int_entry_group0_1>
   2810c:	80 00 00 03 	jmpr gr0

00028110 <_int_entry_group1_1>:
   28110:	94 00 00 21 	movigh gr0 2 <_cla_int_entry_group0_0+0x2>
   28114:	94 07 c0 05 	movigl gr0 7c00 <$line_table_start0+0xed>
   28118:	a8 00 02 22 	load32 gr0 gr0 11 <_cla_int_entry_group0_1+0x1>
   2811c:	80 00 00 03 	jmpr gr0

00028120 <_int_entry_group1_2>:
   28120:	94 00 00 21 	movigh gr0 2 <_cla_int_entry_group0_0+0x2>
   28124:	94 07 c0 05 	movigl gr0 7c00 <$line_table_start0+0xed>
   28128:	a8 00 02 42 	load32 gr0 gr0 12 <_cla_int_entry_group0_1+0x2>
   2812c:	80 00 00 03 	jmpr gr0

00028130 <_int_entry_group1_3>:
   28130:	94 00 00 21 	movigh gr0 2 <_cla_int_entry_group0_0+0x2>
   28134:	94 07 c0 05 	movigl gr0 7c00 <$line_table_start0+0xed>
   28138:	a8 00 02 62 	load32 gr0 gr0 13 <_cla_int_entry_group0_1+0x3>
   2813c:	80 00 00 03 	jmpr gr0

00028140 <_int_entry_group1_4>:
   28140:	94 00 00 21 	movigh gr0 2 <_cla_int_entry_group0_0+0x2>
   28144:	94 07 c0 05 	movigl gr0 7c00 <$line_table_start0+0xed>
   28148:	a8 00 02 82 	load32 gr0 gr0 14 <_cla_int_entry_group0_1+0x4>
   2814c:	80 00 00 03 	jmpr gr0

00028150 <_int_entry_group1_5>:
   28150:	94 00 00 21 	movigh gr0 2 <_cla_int_entry_group0_0+0x2>
   28154:	94 07 c0 05 	movigl gr0 7c00 <$line_table_start0+0xed>
   28158:	a8 00 02 a2 	load32 gr0 gr0 15 <_cla_int_entry_group0_1+0x5>
   2815c:	80 00 00 03 	jmpr gr0

00028160 <_int_entry_group1_6>:
   28160:	94 00 00 21 	movigh gr0 2 <_cla_int_entry_group0_0+0x2>
   28164:	94 07 c0 05 	movigl gr0 7c00 <$line_table_start0+0xed>
   28168:	a8 00 02 c2 	load32 gr0 gr0 16 <_cla_int_entry_group0_1+0x6>
   2816c:	80 00 00 03 	jmpr gr0

00028170 <_int_entry_group1_7>:
   28170:	94 00 00 21 	movigh gr0 2 <_cla_int_entry_group0_0+0x2>
   28174:	94 07 c0 05 	movigl gr0 7c00 <$line_table_start0+0xed>
   28178:	a8 00 02 e2 	load32 gr0 gr0 17 <_core1_exp_start>
   2817c:	80 00 00 03 	jmpr gr0

00028180 <_int_entry_group1_8>:
   28180:	94 00 00 21 	movigh gr0 2 <_cla_int_entry_group0_0+0x2>
   28184:	94 07 c0 05 	movigl gr0 7c00 <$line_table_start0+0xed>
   28188:	a8 00 03 02 	load32 gr0 gr0 18 <_core1_exp_start+0x1>
   2818c:	80 00 00 03 	jmpr gr0

00028190 <_int_entry_group1_9>:
   28190:	94 00 00 21 	movigh gr0 2 <_cla_int_entry_group0_0+0x2>
   28194:	94 07 c0 05 	movigl gr0 7c00 <$line_table_start0+0xed>
   28198:	a8 00 03 22 	load32 gr0 gr0 19 <_core1_exp_start+0x2>
   2819c:	80 00 00 03 	jmpr gr0

000281a0 <_int_entry_group1_10>:
   281a0:	94 00 00 21 	movigh gr0 2 <_cla_int_entry_group0_0+0x2>
   281a4:	94 07 c0 05 	movigl gr0 7c00 <$line_table_start0+0xed>
   281a8:	a8 00 03 42 	load32 gr0 gr0 1a <_core1_exp_start+0x3>
   281ac:	80 00 00 03 	jmpr gr0

000281b0 <_int_entry_group1_11>:
   281b0:	94 00 00 21 	movigh gr0 2 <_cla_int_entry_group0_0+0x2>
   281b4:	94 07 c0 05 	movigl gr0 7c00 <$line_table_start0+0xed>
   281b8:	a8 00 03 62 	load32 gr0 gr0 1b <_core1_exp_start+0x4>
   281bc:	80 00 00 03 	jmpr gr0

000281c0 <_int_entry_group1_12>:
   281c0:	94 00 00 21 	movigh gr0 2 <_cla_int_entry_group0_0+0x2>
   281c4:	94 07 c0 05 	movigl gr0 7c00 <$line_table_start0+0xed>
   281c8:	a8 00 03 82 	load32 gr0 gr0 1c <_core1_exp_start+0x5>
   281cc:	80 00 00 03 	jmpr gr0

000281d0 <_int_entry_group1_13>:
   281d0:	94 00 00 21 	movigh gr0 2 <_cla_int_entry_group0_0+0x2>
   281d4:	94 07 c0 05 	movigl gr0 7c00 <$line_table_start0+0xed>
   281d8:	a8 00 03 a2 	load32 gr0 gr0 1d <_core1_exp_start+0x6>
   281dc:	80 00 00 03 	jmpr gr0

000281e0 <_int_entry_group1_14>:
   281e0:	94 00 00 21 	movigh gr0 2 <_cla_int_entry_group0_0+0x2>
   281e4:	94 07 c0 05 	movigl gr0 7c00 <$line_table_start0+0xed>
   281e8:	a8 00 03 c2 	load32 gr0 gr0 1e <_core1_exp_start+0x7>
   281ec:	80 00 00 03 	jmpr gr0

000281f0 <_int_entry_group1_15>:
   281f0:	94 00 00 21 	movigh gr0 2 <_cla_int_entry_group0_0+0x2>
   281f4:	94 07 c0 05 	movigl gr0 7c00 <$line_table_start0+0xed>
   281f8:	a8 00 03 e2 	load32 gr0 gr0 1f <_core1_exp_start+0x8>
   281fc:	80 00 00 03 	jmpr gr0

00028200 <_int_entry_group2_0>:
   28200:	94 00 00 21 	movigh gr0 2 <_cla_int_entry_group0_0+0x2>
   28204:	94 07 c0 05 	movigl gr0 7c00 <$line_table_start0+0xed>
   28208:	a8 00 04 02 	load32 gr0 gr0 20 <_cla_int_entry_group0_2>
   2820c:	80 00 00 03 	jmpr gr0

00028210 <_int_entry_group2_1>:
   28210:	94 00 00 21 	movigh gr0 2 <_cla_int_entry_group0_0+0x2>
   28214:	94 07 c0 05 	movigl gr0 7c00 <$line_table_start0+0xed>
   28218:	a8 00 04 22 	load32 gr0 gr0 21 <_cla_int_entry_group0_2+0x1>
   2821c:	80 00 00 03 	jmpr gr0

00028220 <_int_entry_group2_2>:
   28220:	94 00 00 21 	movigh gr0 2 <_cla_int_entry_group0_0+0x2>
   28224:	94 07 c0 05 	movigl gr0 7c00 <$line_table_start0+0xed>
   28228:	a8 00 04 42 	load32 gr0 gr0 22 <_cla_int_entry_group0_2+0x2>
   2822c:	80 00 00 03 	jmpr gr0

00028230 <_int_entry_group2_3>:
   28230:	94 00 00 21 	movigh gr0 2 <_cla_int_entry_group0_0+0x2>
   28234:	94 07 c0 05 	movigl gr0 7c00 <$line_table_start0+0xed>
   28238:	a8 00 04 62 	load32 gr0 gr0 23 <_cla_int_entry_group0_2+0x3>
   2823c:	80 00 00 03 	jmpr gr0

00028240 <_int_entry_group2_4>:
   28240:	94 00 00 21 	movigh gr0 2 <_cla_int_entry_group0_0+0x2>
   28244:	94 07 c0 05 	movigl gr0 7c00 <$line_table_start0+0xed>
   28248:	a8 00 04 82 	load32 gr0 gr0 24 <_cla_int_entry_group0_2+0x4>
   2824c:	80 00 00 03 	jmpr gr0

00028250 <_int_entry_group2_5>:
   28250:	94 00 00 21 	movigh gr0 2 <_cla_int_entry_group0_0+0x2>
   28254:	94 07 c0 05 	movigl gr0 7c00 <$line_table_start0+0xed>
   28258:	a8 00 04 a2 	load32 gr0 gr0 25 <_cla_int_entry_group0_2+0x5>
   2825c:	80 00 00 03 	jmpr gr0

00028260 <_int_entry_group2_6>:
   28260:	94 00 00 21 	movigh gr0 2 <_cla_int_entry_group0_0+0x2>
   28264:	94 07 c0 05 	movigl gr0 7c00 <$line_table_start0+0xed>
   28268:	a8 00 04 c2 	load32 gr0 gr0 26 <.L0 >
   2826c:	80 00 00 03 	jmpr gr0

00028270 <_int_entry_group2_7>:
   28270:	94 00 00 21 	movigh gr0 2 <_cla_int_entry_group0_0+0x2>
   28274:	94 07 c0 05 	movigl gr0 7c00 <$line_table_start0+0xed>
   28278:	a8 00 04 e2 	load32 gr0 gr0 27 <.L0 +0x1>
   2827c:	80 00 00 03 	jmpr gr0

00028280 <_int_entry_group2_8>:
   28280:	94 00 00 21 	movigh gr0 2 <_cla_int_entry_group0_0+0x2>
   28284:	94 07 c0 05 	movigl gr0 7c00 <$line_table_start0+0xed>
   28288:	a8 00 05 02 	load32 gr0 gr0 28 <.L0 +0x2>
   2828c:	80 00 00 03 	jmpr gr0

00028290 <_int_entry_group2_9>:
   28290:	94 00 00 21 	movigh gr0 2 <_cla_int_entry_group0_0+0x2>
   28294:	94 07 c0 05 	movigl gr0 7c00 <$line_table_start0+0xed>
   28298:	a8 00 05 22 	load32 gr0 gr0 29 <.L0 +0x3>
   2829c:	80 00 00 03 	jmpr gr0

000282a0 <_int_entry_group2_10>:
   282a0:	94 00 00 21 	movigh gr0 2 <_cla_int_entry_group0_0+0x2>
   282a4:	94 07 c0 05 	movigl gr0 7c00 <$line_table_start0+0xed>
   282a8:	a8 00 05 42 	load32 gr0 gr0 2a <.L0 +0x4>
   282ac:	80 00 00 03 	jmpr gr0

000282b0 <_int_entry_group2_11>:
   282b0:	94 00 00 21 	movigh gr0 2 <_cla_int_entry_group0_0+0x2>
   282b4:	94 07 c0 05 	movigl gr0 7c00 <$line_table_start0+0xed>
   282b8:	a8 00 05 62 	load32 gr0 gr0 2b <.L0 +0x5>
   282bc:	80 00 00 03 	jmpr gr0

000282c0 <_int_entry_group2_12>:
   282c0:	94 00 00 21 	movigh gr0 2 <_cla_int_entry_group0_0+0x2>
   282c4:	94 07 c0 05 	movigl gr0 7c00 <$line_table_start0+0xed>
   282c8:	a8 00 05 82 	load32 gr0 gr0 2c <.L0 +0x6>
   282cc:	80 00 00 03 	jmpr gr0

000282d0 <_int_entry_group2_13>:
   282d0:	94 00 00 21 	movigh gr0 2 <_cla_int_entry_group0_0+0x2>
   282d4:	94 07 c0 05 	movigl gr0 7c00 <$line_table_start0+0xed>
   282d8:	a8 00 05 a2 	load32 gr0 gr0 2d <.L0 +0x7>
   282dc:	80 00 00 03 	jmpr gr0

000282e0 <_int_entry_group2_14>:
   282e0:	94 00 00 21 	movigh gr0 2 <_cla_int_entry_group0_0+0x2>
   282e4:	94 07 c0 05 	movigl gr0 7c00 <$line_table_start0+0xed>
   282e8:	a8 00 05 c2 	load32 gr0 gr0 2e <.L0 +0x8>
   282ec:	80 00 00 03 	jmpr gr0

000282f0 <_int_entry_group2_15>:
   282f0:	94 00 00 21 	movigh gr0 2 <_cla_int_entry_group0_0+0x2>
   282f4:	94 07 c0 05 	movigl gr0 7c00 <$line_table_start0+0xed>
   282f8:	a8 00 05 e2 	load32 gr0 gr0 2f <.L0 +0x9>
   282fc:	80 00 00 03 	jmpr gr0

00028300 <_int_entry_group3_0>:
   28300:	94 00 00 21 	movigh gr0 2 <_cla_int_entry_group0_0+0x2>
   28304:	94 07 c0 05 	movigl gr0 7c00 <$line_table_start0+0xed>
   28308:	a8 00 06 02 	load32 gr0 gr0 30 <_cla_int_entry_group0_3>
   2830c:	80 00 00 03 	jmpr gr0

00028310 <_int_entry_group3_1>:
   28310:	94 00 00 21 	movigh gr0 2 <_cla_int_entry_group0_0+0x2>
   28314:	94 07 c0 05 	movigl gr0 7c00 <$line_table_start0+0xed>
   28318:	a8 00 06 22 	load32 gr0 gr0 31 <_cla_int_entry_group0_3+0x1>
   2831c:	80 00 00 03 	jmpr gr0

00028320 <_int_entry_group3_2>:
   28320:	94 00 00 21 	movigh gr0 2 <_cla_int_entry_group0_0+0x2>
   28324:	94 07 c0 05 	movigl gr0 7c00 <$line_table_start0+0xed>
   28328:	a8 00 06 42 	load32 gr0 gr0 32 <_cla_int_entry_group0_3+0x2>
   2832c:	80 00 00 03 	jmpr gr0

00028330 <_int_entry_group3_3>:
   28330:	94 00 00 21 	movigh gr0 2 <_cla_int_entry_group0_0+0x2>
   28334:	94 07 c0 05 	movigl gr0 7c00 <$line_table_start0+0xed>
   28338:	a8 00 06 62 	load32 gr0 gr0 33 <_cla_int_entry_group0_3+0x3>
   2833c:	80 00 00 03 	jmpr gr0

00028340 <_int_entry_group3_4>:
   28340:	94 00 00 21 	movigh gr0 2 <_cla_int_entry_group0_0+0x2>
   28344:	94 07 c0 05 	movigl gr0 7c00 <$line_table_start0+0xed>
   28348:	a8 00 06 82 	load32 gr0 gr0 34 <_cla_int_entry_group0_3+0x4>
   2834c:	80 00 00 03 	jmpr gr0

00028350 <_int_entry_group3_5>:
   28350:	94 00 00 21 	movigh gr0 2 <_cla_int_entry_group0_0+0x2>
   28354:	94 07 c0 05 	movigl gr0 7c00 <$line_table_start0+0xed>
   28358:	a8 00 06 a2 	load32 gr0 gr0 35 <_cla_int_entry_group0_3+0x5>
   2835c:	80 00 00 03 	jmpr gr0

00028360 <_int_entry_group3_6>:
   28360:	94 00 00 21 	movigh gr0 2 <_cla_int_entry_group0_0+0x2>
   28364:	94 07 c0 05 	movigl gr0 7c00 <$line_table_start0+0xed>
   28368:	a8 00 06 c2 	load32 gr0 gr0 36 <_cla_int_entry_group0_3+0x6>
   2836c:	80 00 00 03 	jmpr gr0

00028370 <_int_entry_group3_7>:
   28370:	94 00 00 21 	movigh gr0 2 <_cla_int_entry_group0_0+0x2>
   28374:	94 07 c0 05 	movigl gr0 7c00 <$line_table_start0+0xed>
   28378:	a8 00 06 e2 	load32 gr0 gr0 37 <_cla_int_entry_group0_3+0x7>
   2837c:	80 00 00 03 	jmpr gr0

00028380 <_int_entry_group3_8>:
   28380:	94 00 00 21 	movigh gr0 2 <_cla_int_entry_group0_0+0x2>
   28384:	94 07 c0 05 	movigl gr0 7c00 <$line_table_start0+0xed>
   28388:	a8 00 07 02 	load32 gr0 gr0 38 <.L0 >
   2838c:	80 00 00 03 	jmpr gr0

00028390 <_int_entry_group3_9>:
   28390:	94 00 00 21 	movigh gr0 2 <_cla_int_entry_group0_0+0x2>
   28394:	94 07 c0 05 	movigl gr0 7c00 <$line_table_start0+0xed>
   28398:	a8 00 07 22 	load32 gr0 gr0 39 <.L0 +0x1>
   2839c:	80 00 00 03 	jmpr gr0

000283a0 <_int_entry_group3_10>:
   283a0:	94 00 00 21 	movigh gr0 2 <_cla_int_entry_group0_0+0x2>
   283a4:	94 07 c0 05 	movigl gr0 7c00 <$line_table_start0+0xed>
   283a8:	a8 00 07 42 	load32 gr0 gr0 3a <.L0 +0x2>
   283ac:	80 00 00 03 	jmpr gr0

000283b0 <_int_entry_group3_11>:
   283b0:	94 00 00 21 	movigh gr0 2 <_cla_int_entry_group0_0+0x2>
   283b4:	94 07 c0 05 	movigl gr0 7c00 <$line_table_start0+0xed>
   283b8:	a8 00 07 62 	load32 gr0 gr0 3b <.L0 +0x3>
   283bc:	80 00 00 03 	jmpr gr0

000283c0 <_int_entry_group3_12>:
   283c0:	94 00 00 21 	movigh gr0 2 <_cla_int_entry_group0_0+0x2>
   283c4:	94 07 c0 05 	movigl gr0 7c00 <$line_table_start0+0xed>
   283c8:	a8 00 07 82 	load32 gr0 gr0 3c <.L0 +0x4>
   283cc:	80 00 00 03 	jmpr gr0

000283d0 <_int_entry_group3_13>:
   283d0:	94 00 00 21 	movigh gr0 2 <_cla_int_entry_group0_0+0x2>
   283d4:	94 07 c0 05 	movigl gr0 7c00 <$line_table_start0+0xed>
   283d8:	a8 00 07 a2 	load32 gr0 gr0 3d <.L0 +0x5>
   283dc:	80 00 00 03 	jmpr gr0

000283e0 <_int_entry_group3_14>:
   283e0:	94 00 00 21 	movigh gr0 2 <_cla_int_entry_group0_0+0x2>
   283e4:	94 07 c0 05 	movigl gr0 7c00 <$line_table_start0+0xed>
   283e8:	a8 00 07 c2 	load32 gr0 gr0 3e <.L0 +0x6>
   283ec:	80 00 00 03 	jmpr gr0

000283f0 <_int_entry_group3_15>:
   283f0:	94 00 00 21 	movigh gr0 2 <_cla_int_entry_group0_0+0x2>
   283f4:	94 07 c0 05 	movigl gr0 7c00 <$line_table_start0+0xed>
   283f8:	a8 00 07 e2 	load32 gr0 gr0 3f <.L0 +0x7>
   283fc:	80 00 00 03 	jmpr gr0

00028400 <_dsp_start>:
   28400:	80 00 00 00 	nop
   28404:	80 00 00 00 	nop
   28408:	80 00 9b 61 	jmp 29778 <_dsp_call_main>
   2840c:	80 00 00 00 	nop
   28410:	80 00 00 00 	nop
   28414:	80 00 00 00 	nop
   28418:	80 00 00 00 	nop
   2841c:	80 00 00 00 	nop
   28420:	80 00 00 00 	nop
   28424:	80 00 00 00 	nop
   28428:	80 00 00 00 	nop
   2842c:	80 00 00 00 	nop
   28430:	80 00 00 00 	nop
   28434:	80 00 00 00 	nop
   28438:	80 00 00 00 	nop
   2843c:	80 00 00 00 	nop
   28440:	80 00 00 00 	nop
   28444:	80 00 00 00 	nop
   28448:	80 00 00 00 	nop
   2844c:	80 00 00 00 	nop
   28450:	80 00 00 00 	nop
   28454:	80 00 00 00 	nop
   28458:	80 00 00 00 	nop
   2845c:	80 00 00 00 	nop
   28460:	80 00 00 00 	nop
   28464:	80 00 00 00 	nop
   28468:	80 00 00 00 	nop
   2846c:	80 00 00 00 	nop
   28470:	80 00 00 00 	nop
   28474:	80 00 00 00 	nop
   28478:	80 00 00 00 	nop
   2847c:	80 00 00 00 	nop
   28480:	80 00 00 00 	nop
   28484:	80 00 00 00 	nop
   28488:	80 00 00 00 	nop
   2848c:	80 00 00 00 	nop
   28490:	80 00 00 00 	nop
   28494:	80 00 00 00 	nop
   28498:	80 00 00 00 	nop
   2849c:	80 00 00 00 	nop
   284a0:	80 00 00 00 	nop
   284a4:	80 00 00 00 	nop
   284a8:	80 00 00 00 	nop
   284ac:	80 00 00 00 	nop
   284b0:	80 00 00 00 	nop
   284b4:	80 00 00 00 	nop
   284b8:	80 00 00 00 	nop
   284bc:	80 00 00 00 	nop
   284c0:	80 00 00 00 	nop
   284c4:	80 00 00 00 	nop
   284c8:	80 00 00 00 	nop
   284cc:	80 00 00 00 	nop
   284d0:	80 00 00 00 	nop
   284d4:	80 00 00 00 	nop
   284d8:	80 00 00 00 	nop
   284dc:	80 00 00 00 	nop
   284e0:	80 00 00 00 	nop
   284e4:	80 00 00 00 	nop
   284e8:	80 00 00 00 	nop
   284ec:	80 00 00 00 	nop
   284f0:	80 00 00 00 	nop
   284f4:	80 00 00 00 	nop
   284f8:	80 00 00 00 	nop
   284fc:	80 00 00 00 	nop

00028500 <_int_entry_group4_0>:
   28500:	94 00 00 21 	movigh gr0 2 <_cla_int_entry_group0_0+0x2>
   28504:	94 07 c0 05 	movigl gr0 7c00 <$line_table_start0+0xed>
   28508:	a8 00 08 02 	load32 gr0 gr0 40 <_cla_int_entry_group0_4>
   2850c:	80 00 00 03 	jmpr gr0

00028510 <_int_entry_group4_1>:
   28510:	94 00 00 21 	movigh gr0 2 <_cla_int_entry_group0_0+0x2>
   28514:	94 07 c0 05 	movigl gr0 7c00 <$line_table_start0+0xed>
   28518:	a8 00 08 22 	load32 gr0 gr0 41 <.L0 >
   2851c:	80 00 00 03 	jmpr gr0

00028520 <_int_entry_group4_2>:
   28520:	94 00 00 21 	movigh gr0 2 <_cla_int_entry_group0_0+0x2>
   28524:	94 07 c0 05 	movigl gr0 7c00 <$line_table_start0+0xed>
   28528:	a8 00 08 42 	load32 gr0 gr0 42 <.L0 +0x1>
   2852c:	80 00 00 03 	jmpr gr0

00028530 <_int_entry_group4_3>:
   28530:	94 00 00 21 	movigh gr0 2 <_cla_int_entry_group0_0+0x2>
   28534:	94 07 c0 05 	movigl gr0 7c00 <$line_table_start0+0xed>
   28538:	a8 00 08 62 	load32 gr0 gr0 43 <.L0 +0x2>
   2853c:	80 00 00 03 	jmpr gr0

00028540 <_int_entry_group4_4>:
   28540:	94 00 00 21 	movigh gr0 2 <_cla_int_entry_group0_0+0x2>
   28544:	94 07 c0 05 	movigl gr0 7c00 <$line_table_start0+0xed>
   28548:	a8 00 08 82 	load32 gr0 gr0 44 <.L0 +0x3>
   2854c:	80 00 00 03 	jmpr gr0

00028550 <_int_entry_group4_5>:
   28550:	94 00 00 21 	movigh gr0 2 <_cla_int_entry_group0_0+0x2>
   28554:	94 07 c0 05 	movigl gr0 7c00 <$line_table_start0+0xed>
   28558:	a8 00 08 a2 	load32 gr0 gr0 45 <.L0 +0x4>
   2855c:	80 00 00 03 	jmpr gr0

00028560 <_int_entry_group4_6>:
   28560:	94 00 00 21 	movigh gr0 2 <_cla_int_entry_group0_0+0x2>
   28564:	94 07 c0 05 	movigl gr0 7c00 <$line_table_start0+0xed>
   28568:	a8 00 08 c2 	load32 gr0 gr0 46 <.L0 +0x5>
   2856c:	80 00 00 03 	jmpr gr0

00028570 <_int_entry_group4_7>:
   28570:	94 00 00 21 	movigh gr0 2 <_cla_int_entry_group0_0+0x2>
   28574:	94 07 c0 05 	movigl gr0 7c00 <$line_table_start0+0xed>
   28578:	a8 00 08 e2 	load32 gr0 gr0 47 <.L0 +0x6>
   2857c:	80 00 00 03 	jmpr gr0

00028580 <_int_entry_group4_8>:
   28580:	94 00 00 21 	movigh gr0 2 <_cla_int_entry_group0_0+0x2>
   28584:	94 07 c0 05 	movigl gr0 7c00 <$line_table_start0+0xed>
   28588:	a8 00 09 02 	load32 gr0 gr0 48 <.L0 +0x7>
   2858c:	80 00 00 03 	jmpr gr0

00028590 <_int_entry_group4_9>:
   28590:	94 00 00 21 	movigh gr0 2 <_cla_int_entry_group0_0+0x2>
   28594:	94 07 c0 05 	movigl gr0 7c00 <$line_table_start0+0xed>
   28598:	a8 00 09 22 	load32 gr0 gr0 49 <.L0 +0x8>
   2859c:	80 00 00 03 	jmpr gr0

000285a0 <_int_entry_group4_10>:
   285a0:	94 00 00 21 	movigh gr0 2 <_cla_int_entry_group0_0+0x2>
   285a4:	94 07 c0 05 	movigl gr0 7c00 <$line_table_start0+0xed>
   285a8:	a8 00 09 42 	load32 gr0 gr0 4a <.L0 +0x9>
   285ac:	80 00 00 03 	jmpr gr0

000285b0 <_int_entry_group4_11>:
   285b0:	94 00 00 21 	movigh gr0 2 <_cla_int_entry_group0_0+0x2>
   285b4:	94 07 c0 05 	movigl gr0 7c00 <$line_table_start0+0xed>
   285b8:	a8 00 09 62 	load32 gr0 gr0 4b <.L0 +0xa>
   285bc:	80 00 00 03 	jmpr gr0

000285c0 <_int_entry_group4_12>:
   285c0:	94 00 00 21 	movigh gr0 2 <_cla_int_entry_group0_0+0x2>
   285c4:	94 07 c0 05 	movigl gr0 7c00 <$line_table_start0+0xed>
   285c8:	a8 00 09 82 	load32 gr0 gr0 4c <.L0 +0xb>
   285cc:	80 00 00 03 	jmpr gr0

000285d0 <_int_entry_group4_13>:
   285d0:	94 00 00 21 	movigh gr0 2 <_cla_int_entry_group0_0+0x2>
   285d4:	94 07 c0 05 	movigl gr0 7c00 <$line_table_start0+0xed>
   285d8:	a8 00 09 a2 	load32 gr0 gr0 4d <.L0 +0xc>
   285dc:	80 00 00 03 	jmpr gr0

000285e0 <_int_entry_group4_14>:
   285e0:	94 00 00 21 	movigh gr0 2 <_cla_int_entry_group0_0+0x2>
   285e4:	94 07 c0 05 	movigl gr0 7c00 <$line_table_start0+0xed>
   285e8:	a8 00 09 c2 	load32 gr0 gr0 4e <.L0 +0xd>
   285ec:	80 00 00 03 	jmpr gr0

000285f0 <_int_entry_group4_15>:
   285f0:	94 00 00 21 	movigh gr0 2 <_cla_int_entry_group0_0+0x2>
   285f4:	94 07 c0 05 	movigl gr0 7c00 <$line_table_start0+0xed>
   285f8:	a8 00 09 e2 	load32 gr0 gr0 4f <.L0 +0xe>
   285fc:	80 00 00 03 	jmpr gr0

00028600 <_int_entry_group5_0>:
   28600:	94 00 00 21 	movigh gr0 2 <_cla_int_entry_group0_0+0x2>
   28604:	94 07 c0 05 	movigl gr0 7c00 <$line_table_start0+0xed>
   28608:	a8 00 0a 02 	load32 gr0 gr0 50 <_cla_int_entry_group0_5>
   2860c:	80 00 00 03 	jmpr gr0

00028610 <_int_entry_group5_1>:
   28610:	94 00 00 21 	movigh gr0 2 <_cla_int_entry_group0_0+0x2>
   28614:	94 07 c0 05 	movigl gr0 7c00 <$line_table_start0+0xed>
   28618:	a8 00 0a 22 	load32 gr0 gr0 51 <_cla_int_entry_group0_5+0x1>
   2861c:	80 00 00 03 	jmpr gr0

00028620 <_int_entry_group5_2>:
   28620:	94 00 00 21 	movigh gr0 2 <_cla_int_entry_group0_0+0x2>
   28624:	94 07 c0 05 	movigl gr0 7c00 <$line_table_start0+0xed>
   28628:	a8 00 0a 42 	load32 gr0 gr0 52 <_cla_int_entry_group0_5+0x2>
   2862c:	80 00 00 03 	jmpr gr0

00028630 <_int_entry_group5_3>:
   28630:	94 00 00 21 	movigh gr0 2 <_cla_int_entry_group0_0+0x2>
   28634:	94 07 c0 05 	movigl gr0 7c00 <$line_table_start0+0xed>
   28638:	a8 00 0a 62 	load32 gr0 gr0 53 <_cla_int_entry_group0_5+0x3>
   2863c:	80 00 00 03 	jmpr gr0

00028640 <_int_entry_group5_4>:
   28640:	94 00 00 21 	movigh gr0 2 <_cla_int_entry_group0_0+0x2>
   28644:	94 07 c0 05 	movigl gr0 7c00 <$line_table_start0+0xed>
   28648:	a8 00 0a 82 	load32 gr0 gr0 54 <_cla_int_entry_group0_5+0x4>
   2864c:	80 00 00 03 	jmpr gr0

00028650 <_int_entry_group5_5>:
   28650:	94 00 00 21 	movigh gr0 2 <_cla_int_entry_group0_0+0x2>
   28654:	94 07 c0 05 	movigl gr0 7c00 <$line_table_start0+0xed>
   28658:	a8 00 0a a2 	load32 gr0 gr0 55 <_cla_int_entry_group0_5+0x5>
   2865c:	80 00 00 03 	jmpr gr0

00028660 <_int_entry_group5_6>:
   28660:	94 00 00 21 	movigh gr0 2 <_cla_int_entry_group0_0+0x2>
   28664:	94 07 c0 05 	movigl gr0 7c00 <$line_table_start0+0xed>
   28668:	a8 00 0a c2 	load32 gr0 gr0 56 <_cla_int_entry_group0_5+0x6>
   2866c:	80 00 00 03 	jmpr gr0

00028670 <_int_entry_group5_7>:
   28670:	94 00 00 21 	movigh gr0 2 <_cla_int_entry_group0_0+0x2>
   28674:	94 07 c0 05 	movigl gr0 7c00 <$line_table_start0+0xed>
   28678:	a8 00 0a e2 	load32 gr0 gr0 57 <_cla_int_entry_group0_5+0x7>
   2867c:	80 00 00 03 	jmpr gr0

00028680 <_int_entry_group5_8>:
   28680:	94 00 00 21 	movigh gr0 2 <_cla_int_entry_group0_0+0x2>
   28684:	94 07 c0 05 	movigl gr0 7c00 <$line_table_start0+0xed>
   28688:	a8 00 0b 02 	load32 gr0 gr0 58 <_cla_int_entry_group0_5+0x8>
   2868c:	80 00 00 03 	jmpr gr0

00028690 <_int_entry_group5_9>:
   28690:	94 00 00 21 	movigh gr0 2 <_cla_int_entry_group0_0+0x2>
   28694:	94 07 c0 05 	movigl gr0 7c00 <$line_table_start0+0xed>
   28698:	a8 00 0b 22 	load32 gr0 gr0 59 <_cla_int_entry_group0_5+0x9>
   2869c:	80 00 00 03 	jmpr gr0

000286a0 <_int_entry_group5_10>:
   286a0:	94 00 00 21 	movigh gr0 2 <_cla_int_entry_group0_0+0x2>
   286a4:	94 07 c0 05 	movigl gr0 7c00 <$line_table_start0+0xed>
   286a8:	a8 00 0b 42 	load32 gr0 gr0 5a <_cla_int_entry_group0_5+0xa>
   286ac:	80 00 00 03 	jmpr gr0

000286b0 <_int_entry_group5_11>:
   286b0:	94 00 00 21 	movigh gr0 2 <_cla_int_entry_group0_0+0x2>
   286b4:	94 07 c0 05 	movigl gr0 7c00 <$line_table_start0+0xed>
   286b8:	a8 00 0b 62 	load32 gr0 gr0 5b <_cla_int_entry_group0_5+0xb>
   286bc:	80 00 00 03 	jmpr gr0

000286c0 <_int_entry_group5_12>:
   286c0:	94 00 00 21 	movigh gr0 2 <_cla_int_entry_group0_0+0x2>
   286c4:	94 07 c0 05 	movigl gr0 7c00 <$line_table_start0+0xed>
   286c8:	a8 00 0b 82 	load32 gr0 gr0 5c <.L0 >
   286cc:	80 00 00 03 	jmpr gr0

000286d0 <_int_entry_group5_13>:
   286d0:	94 00 00 21 	movigh gr0 2 <_cla_int_entry_group0_0+0x2>
   286d4:	94 07 c0 05 	movigl gr0 7c00 <$line_table_start0+0xed>
   286d8:	a8 00 0b a2 	load32 gr0 gr0 5d <.L0 +0x1>
   286dc:	80 00 00 03 	jmpr gr0

000286e0 <_int_entry_group5_14>:
   286e0:	94 00 00 21 	movigh gr0 2 <_cla_int_entry_group0_0+0x2>
   286e4:	94 07 c0 05 	movigl gr0 7c00 <$line_table_start0+0xed>
   286e8:	a8 00 0b c2 	load32 gr0 gr0 5e <.L0 +0x2>
   286ec:	80 00 00 03 	jmpr gr0

000286f0 <_int_entry_group5_15>:
   286f0:	94 00 00 21 	movigh gr0 2 <_cla_int_entry_group0_0+0x2>
   286f4:	94 07 c0 05 	movigl gr0 7c00 <$line_table_start0+0xed>
   286f8:	a8 00 0b e2 	load32 gr0 gr0 5f <.L0 +0x3>
   286fc:	80 00 00 03 	jmpr gr0

00028700 <_int_entry_group6_0>:
   28700:	94 00 00 21 	movigh gr0 2 <_cla_int_entry_group0_0+0x2>
   28704:	94 07 c0 05 	movigl gr0 7c00 <$line_table_start0+0xed>
   28708:	a8 00 0c 02 	load32 gr0 gr0 60 <_cla_int_entry_group0_6>
   2870c:	80 00 00 03 	jmpr gr0

00028710 <_int_entry_group6_1>:
   28710:	94 00 00 21 	movigh gr0 2 <_cla_int_entry_group0_0+0x2>
   28714:	94 07 c0 05 	movigl gr0 7c00 <$line_table_start0+0xed>
   28718:	a8 00 0c 22 	load32 gr0 gr0 61 <_cla_int_entry_group0_6+0x1>
   2871c:	80 00 00 03 	jmpr gr0

00028720 <_int_entry_group6_2>:
   28720:	94 00 00 21 	movigh gr0 2 <_cla_int_entry_group0_0+0x2>
   28724:	94 07 c0 05 	movigl gr0 7c00 <$line_table_start0+0xed>
   28728:	a8 00 0c 42 	load32 gr0 gr0 62 <_cla_int_entry_group0_6+0x2>
   2872c:	80 00 00 03 	jmpr gr0

00028730 <_int_entry_group6_3>:
   28730:	94 00 00 21 	movigh gr0 2 <_cla_int_entry_group0_0+0x2>
   28734:	94 07 c0 05 	movigl gr0 7c00 <$line_table_start0+0xed>
   28738:	a8 00 0c 62 	load32 gr0 gr0 63 <_cla_int_entry_group0_6+0x3>
   2873c:	80 00 00 03 	jmpr gr0

00028740 <_int_entry_group6_4>:
   28740:	94 00 00 21 	movigh gr0 2 <_cla_int_entry_group0_0+0x2>
   28744:	94 07 c0 05 	movigl gr0 7c00 <$line_table_start0+0xed>
   28748:	a8 00 0c 82 	load32 gr0 gr0 64 <_cla_int_entry_group0_6+0x4>
   2874c:	80 00 00 03 	jmpr gr0

00028750 <_int_entry_group6_5>:
   28750:	94 00 00 21 	movigh gr0 2 <_cla_int_entry_group0_0+0x2>
   28754:	94 07 c0 05 	movigl gr0 7c00 <$line_table_start0+0xed>
   28758:	a8 00 0c a2 	load32 gr0 gr0 65 <_cla_int_entry_group0_6+0x5>
   2875c:	80 00 00 03 	jmpr gr0

00028760 <_int_entry_group6_6>:
   28760:	94 00 00 21 	movigh gr0 2 <_cla_int_entry_group0_0+0x2>
   28764:	94 07 c0 05 	movigl gr0 7c00 <$line_table_start0+0xed>
   28768:	a8 00 0c c2 	load32 gr0 gr0 66 <_cla_int_entry_group0_6+0x6>
   2876c:	80 00 00 03 	jmpr gr0

00028770 <_int_entry_group6_7>:
   28770:	94 00 00 21 	movigh gr0 2 <_cla_int_entry_group0_0+0x2>
   28774:	94 07 c0 05 	movigl gr0 7c00 <$line_table_start0+0xed>
   28778:	a8 00 0c e2 	load32 gr0 gr0 67 <_cla_int_entry_group0_6+0x7>
   2877c:	80 00 00 03 	jmpr gr0

00028780 <_int_entry_group6_8>:
   28780:	94 00 00 21 	movigh gr0 2 <_cla_int_entry_group0_0+0x2>
   28784:	94 07 c0 05 	movigl gr0 7c00 <$line_table_start0+0xed>
   28788:	a8 00 0d 02 	load32 gr0 gr0 68 <_cla_int_entry_group0_6+0x8>
   2878c:	80 00 00 03 	jmpr gr0

00028790 <_int_entry_group6_9>:
   28790:	94 00 00 21 	movigh gr0 2 <_cla_int_entry_group0_0+0x2>
   28794:	94 07 c0 05 	movigl gr0 7c00 <$line_table_start0+0xed>
   28798:	a8 00 0d 22 	load32 gr0 gr0 69 <_cla_int_entry_group0_6+0x9>
   2879c:	80 00 00 03 	jmpr gr0

000287a0 <_int_entry_group6_10>:
   287a0:	94 00 00 21 	movigh gr0 2 <_cla_int_entry_group0_0+0x2>
   287a4:	94 07 c0 05 	movigl gr0 7c00 <$line_table_start0+0xed>
   287a8:	a8 00 0d 42 	load32 gr0 gr0 6a <_cla_int_entry_group0_6+0xa>
   287ac:	80 00 00 03 	jmpr gr0

000287b0 <_int_entry_group6_11>:
   287b0:	94 00 00 21 	movigh gr0 2 <_cla_int_entry_group0_0+0x2>
   287b4:	94 07 c0 05 	movigl gr0 7c00 <$line_table_start0+0xed>
   287b8:	a8 00 0d 62 	load32 gr0 gr0 6b <_cla_int_entry_group0_6+0xb>
   287bc:	80 00 00 03 	jmpr gr0

000287c0 <_int_entry_group6_12>:
   287c0:	94 00 00 21 	movigh gr0 2 <_cla_int_entry_group0_0+0x2>
   287c4:	94 07 c0 05 	movigl gr0 7c00 <$line_table_start0+0xed>
   287c8:	a8 00 0d 82 	load32 gr0 gr0 6c <_cla_int_entry_group0_6+0xc>
   287cc:	80 00 00 03 	jmpr gr0

000287d0 <_int_entry_group6_13>:
   287d0:	94 00 00 21 	movigh gr0 2 <_cla_int_entry_group0_0+0x2>
   287d4:	94 07 c0 05 	movigl gr0 7c00 <$line_table_start0+0xed>
   287d8:	a8 00 0d a2 	load32 gr0 gr0 6d <_cla_int_entry_group0_6+0xd>
   287dc:	80 00 00 03 	jmpr gr0

000287e0 <_int_entry_group6_14>:
   287e0:	94 00 00 21 	movigh gr0 2 <_cla_int_entry_group0_0+0x2>
   287e4:	94 07 c0 05 	movigl gr0 7c00 <$line_table_start0+0xed>
   287e8:	a8 00 0d c2 	load32 gr0 gr0 6e <_cla_int_entry_group0_6+0xe>
   287ec:	80 00 00 03 	jmpr gr0

000287f0 <_int_entry_group6_15>:
   287f0:	94 00 00 21 	movigh gr0 2 <_cla_int_entry_group0_0+0x2>
   287f4:	94 07 c0 05 	movigl gr0 7c00 <$line_table_start0+0xed>
   287f8:	a8 00 0d e2 	load32 gr0 gr0 6f <_cla_int_entry_group0_6+0xf>
   287fc:	80 00 00 03 	jmpr gr0

00028800 <_int_entry_group7_0>:
   28800:	94 00 00 21 	movigh gr0 2 <_cla_int_entry_group0_0+0x2>
   28804:	94 07 c0 05 	movigl gr0 7c00 <$line_table_start0+0xed>
   28808:	a8 00 0e 02 	load32 gr0 gr0 70 <_cla_int_entry_group0_7>
   2880c:	80 00 00 03 	jmpr gr0

00028810 <_int_entry_group7_1>:
   28810:	94 00 00 21 	movigh gr0 2 <_cla_int_entry_group0_0+0x2>
   28814:	94 07 c0 05 	movigl gr0 7c00 <$line_table_start0+0xed>
   28818:	a8 00 0e 22 	load32 gr0 gr0 71 <_cla_int_entry_group0_7+0x1>
   2881c:	80 00 00 03 	jmpr gr0

00028820 <_int_entry_group7_2>:
   28820:	94 00 00 21 	movigh gr0 2 <_cla_int_entry_group0_0+0x2>
   28824:	94 07 c0 05 	movigl gr0 7c00 <$line_table_start0+0xed>
   28828:	a8 00 0e 42 	load32 gr0 gr0 72 <_cla_int_entry_group0_7+0x2>
   2882c:	80 00 00 03 	jmpr gr0

00028830 <_int_entry_group7_3>:
   28830:	94 00 00 21 	movigh gr0 2 <_cla_int_entry_group0_0+0x2>
   28834:	94 07 c0 05 	movigl gr0 7c00 <$line_table_start0+0xed>
   28838:	a8 00 0e 62 	load32 gr0 gr0 73 <_cla_int_entry_group0_7+0x3>
   2883c:	80 00 00 03 	jmpr gr0

00028840 <_int_entry_group7_4>:
   28840:	94 00 00 21 	movigh gr0 2 <_cla_int_entry_group0_0+0x2>
   28844:	94 07 c0 05 	movigl gr0 7c00 <$line_table_start0+0xed>
   28848:	a8 00 0e 82 	load32 gr0 gr0 74 <_cla_int_entry_group0_7+0x4>
   2884c:	80 00 00 03 	jmpr gr0

00028850 <_int_entry_group7_5>:
   28850:	94 00 00 21 	movigh gr0 2 <_cla_int_entry_group0_0+0x2>
   28854:	94 07 c0 05 	movigl gr0 7c00 <$line_table_start0+0xed>
   28858:	a8 00 0e a2 	load32 gr0 gr0 75 <_cla_int_entry_group0_7+0x5>
   2885c:	80 00 00 03 	jmpr gr0

00028860 <_int_entry_group7_6>:
   28860:	94 00 00 21 	movigh gr0 2 <_cla_int_entry_group0_0+0x2>
   28864:	94 07 c0 05 	movigl gr0 7c00 <$line_table_start0+0xed>
   28868:	a8 00 0e c2 	load32 gr0 gr0 76 <_cla_int_entry_group0_7+0x6>
   2886c:	80 00 00 03 	jmpr gr0

00028870 <_int_entry_group7_7>:
   28870:	94 00 00 21 	movigh gr0 2 <_cla_int_entry_group0_0+0x2>
   28874:	94 07 c0 05 	movigl gr0 7c00 <$line_table_start0+0xed>
   28878:	a8 00 0e e2 	load32 gr0 gr0 77 <.L0 >
   2887c:	80 00 00 03 	jmpr gr0

00028880 <_int_entry_group7_8>:
   28880:	94 00 00 21 	movigh gr0 2 <_cla_int_entry_group0_0+0x2>
   28884:	94 07 c0 05 	movigl gr0 7c00 <$line_table_start0+0xed>
   28888:	a8 00 0f 02 	load32 gr0 gr0 78 <.L0 +0x1>
   2888c:	80 00 00 03 	jmpr gr0

00028890 <_int_entry_group7_9>:
   28890:	94 00 00 21 	movigh gr0 2 <_cla_int_entry_group0_0+0x2>
   28894:	94 07 c0 05 	movigl gr0 7c00 <$line_table_start0+0xed>
   28898:	a8 00 0f 22 	load32 gr0 gr0 79 <.L0 +0x2>
   2889c:	80 00 00 03 	jmpr gr0

000288a0 <_int_entry_group7_10>:
   288a0:	94 00 00 21 	movigh gr0 2 <_cla_int_entry_group0_0+0x2>
   288a4:	94 07 c0 05 	movigl gr0 7c00 <$line_table_start0+0xed>
   288a8:	a8 00 0f 42 	load32 gr0 gr0 7a <.L0 +0x3>
   288ac:	80 00 00 03 	jmpr gr0

000288b0 <_int_entry_group7_11>:
   288b0:	94 00 00 21 	movigh gr0 2 <_cla_int_entry_group0_0+0x2>
   288b4:	94 07 c0 05 	movigl gr0 7c00 <$line_table_start0+0xed>
   288b8:	a8 00 0f 62 	load32 gr0 gr0 7b <.L0 +0x4>
   288bc:	80 00 00 03 	jmpr gr0

000288c0 <_int_entry_group7_12>:
   288c0:	94 00 00 21 	movigh gr0 2 <_cla_int_entry_group0_0+0x2>
   288c4:	94 07 c0 05 	movigl gr0 7c00 <$line_table_start0+0xed>
   288c8:	a8 00 0f 82 	load32 gr0 gr0 7c <.L0 +0x5>
   288cc:	80 00 00 03 	jmpr gr0

000288d0 <_int_entry_group7_13>:
   288d0:	94 00 00 21 	movigh gr0 2 <_cla_int_entry_group0_0+0x2>
   288d4:	94 07 c0 05 	movigl gr0 7c00 <$line_table_start0+0xed>
   288d8:	a8 00 0f a2 	load32 gr0 gr0 7d <.L0 +0x6>
   288dc:	80 00 00 03 	jmpr gr0

000288e0 <_int_entry_group7_14>:
   288e0:	94 00 00 21 	movigh gr0 2 <_cla_int_entry_group0_0+0x2>
   288e4:	94 07 c0 05 	movigl gr0 7c00 <$line_table_start0+0xed>
   288e8:	a8 00 0f c2 	load32 gr0 gr0 7e <.L0 +0x7>
   288ec:	80 00 00 03 	jmpr gr0

000288f0 <_int_entry_group7_15>:
   288f0:	94 00 00 21 	movigh gr0 2 <_cla_int_entry_group0_0+0x2>
   288f4:	94 07 c0 05 	movigl gr0 7c00 <$line_table_start0+0xed>
   288f8:	a8 00 0f e2 	load32 gr0 gr0 7f <.L0 +0x8>
   288fc:	80 00 00 03 	jmpr gr0

00028900 <_int_entry_group8_0>:
   28900:	94 00 00 21 	movigh gr0 2 <_cla_int_entry_group0_0+0x2>
   28904:	94 07 c0 05 	movigl gr0 7c00 <$line_table_start0+0xed>
   28908:	a8 00 10 02 	load32 gr0 gr0 80 <_cla_int_entry_group0_8>
   2890c:	80 00 00 03 	jmpr gr0

00028910 <_int_entry_group8_1>:
   28910:	94 00 00 21 	movigh gr0 2 <_cla_int_entry_group0_0+0x2>
   28914:	94 07 c0 05 	movigl gr0 7c00 <$line_table_start0+0xed>
   28918:	a8 00 10 22 	load32 gr0 gr0 81 <_cla_int_entry_group0_8+0x1>
   2891c:	80 00 00 03 	jmpr gr0

00028920 <_int_entry_group8_2>:
   28920:	94 00 00 21 	movigh gr0 2 <_cla_int_entry_group0_0+0x2>
   28924:	94 07 c0 05 	movigl gr0 7c00 <$line_table_start0+0xed>
   28928:	a8 00 10 42 	load32 gr0 gr0 82 <_cla_int_entry_group0_8+0x2>
   2892c:	80 00 00 03 	jmpr gr0

00028930 <_int_entry_group8_3>:
   28930:	94 00 00 21 	movigh gr0 2 <_cla_int_entry_group0_0+0x2>
   28934:	94 07 c0 05 	movigl gr0 7c00 <$line_table_start0+0xed>
   28938:	a8 00 10 62 	load32 gr0 gr0 83 <_cla_int_entry_group0_8+0x3>
   2893c:	80 00 00 03 	jmpr gr0

00028940 <_int_entry_group8_4>:
   28940:	94 00 00 21 	movigh gr0 2 <_cla_int_entry_group0_0+0x2>
   28944:	94 07 c0 05 	movigl gr0 7c00 <$line_table_start0+0xed>
   28948:	a8 00 10 82 	load32 gr0 gr0 84 <_cla_int_entry_group0_8+0x4>
   2894c:	80 00 00 03 	jmpr gr0

00028950 <_int_entry_group8_5>:
   28950:	94 00 00 21 	movigh gr0 2 <_cla_int_entry_group0_0+0x2>
   28954:	94 07 c0 05 	movigl gr0 7c00 <$line_table_start0+0xed>
   28958:	a8 00 10 a2 	load32 gr0 gr0 85 <_cla_int_entry_group0_8+0x5>
   2895c:	80 00 00 03 	jmpr gr0

00028960 <_int_entry_group8_6>:
   28960:	94 00 00 21 	movigh gr0 2 <_cla_int_entry_group0_0+0x2>
   28964:	94 07 c0 05 	movigl gr0 7c00 <$line_table_start0+0xed>
   28968:	a8 00 10 c2 	load32 gr0 gr0 86 <_cla_int_entry_group0_8+0x6>
   2896c:	80 00 00 03 	jmpr gr0

00028970 <_int_entry_group8_7>:
   28970:	94 00 00 21 	movigh gr0 2 <_cla_int_entry_group0_0+0x2>
   28974:	94 07 c0 05 	movigl gr0 7c00 <$line_table_start0+0xed>
   28978:	a8 00 10 e2 	load32 gr0 gr0 87 <_cla_int_entry_group0_8+0x7>
   2897c:	80 00 00 03 	jmpr gr0

00028980 <_int_entry_group8_8>:
   28980:	94 00 00 21 	movigh gr0 2 <_cla_int_entry_group0_0+0x2>
   28984:	94 07 c0 05 	movigl gr0 7c00 <$line_table_start0+0xed>
   28988:	a8 00 11 02 	load32 gr0 gr0 88 <.L0 >
   2898c:	80 00 00 03 	jmpr gr0

00028990 <_int_entry_group8_9>:
   28990:	94 00 00 21 	movigh gr0 2 <_cla_int_entry_group0_0+0x2>
   28994:	94 07 c0 05 	movigl gr0 7c00 <$line_table_start0+0xed>
   28998:	a8 00 11 22 	load32 gr0 gr0 89 <.L0 +0x1>
   2899c:	80 00 00 03 	jmpr gr0

000289a0 <_int_entry_group8_10>:
   289a0:	94 00 00 21 	movigh gr0 2 <_cla_int_entry_group0_0+0x2>
   289a4:	94 07 c0 05 	movigl gr0 7c00 <$line_table_start0+0xed>
   289a8:	a8 00 11 42 	load32 gr0 gr0 8a <.L0 +0x2>
   289ac:	80 00 00 03 	jmpr gr0

000289b0 <_int_entry_group8_11>:
   289b0:	94 00 00 21 	movigh gr0 2 <_cla_int_entry_group0_0+0x2>
   289b4:	94 07 c0 05 	movigl gr0 7c00 <$line_table_start0+0xed>
   289b8:	a8 00 11 62 	load32 gr0 gr0 8b <.L0 +0x3>
   289bc:	80 00 00 03 	jmpr gr0

000289c0 <_int_entry_group8_12>:
   289c0:	94 00 00 21 	movigh gr0 2 <_cla_int_entry_group0_0+0x2>
   289c4:	94 07 c0 05 	movigl gr0 7c00 <$line_table_start0+0xed>
   289c8:	a8 00 11 82 	load32 gr0 gr0 8c <.L0 +0x4>
   289cc:	80 00 00 03 	jmpr gr0

000289d0 <_int_entry_group8_13>:
   289d0:	94 00 00 21 	movigh gr0 2 <_cla_int_entry_group0_0+0x2>
   289d4:	94 07 c0 05 	movigl gr0 7c00 <$line_table_start0+0xed>
   289d8:	a8 00 11 a2 	load32 gr0 gr0 8d <.L0 +0x5>
   289dc:	80 00 00 03 	jmpr gr0

000289e0 <_int_entry_group8_14>:
   289e0:	94 00 00 21 	movigh gr0 2 <_cla_int_entry_group0_0+0x2>
   289e4:	94 07 c0 05 	movigl gr0 7c00 <$line_table_start0+0xed>
   289e8:	a8 00 11 c2 	load32 gr0 gr0 8e <.L0 +0x6>
   289ec:	80 00 00 03 	jmpr gr0

000289f0 <_int_entry_group8_15>:
   289f0:	94 00 00 21 	movigh gr0 2 <_cla_int_entry_group0_0+0x2>
   289f4:	94 07 c0 05 	movigl gr0 7c00 <$line_table_start0+0xed>
   289f8:	a8 00 11 e2 	load32 gr0 gr0 8f <.L0 +0x7>
   289fc:	80 00 00 03 	jmpr gr0

00028a00 <_int_entry_group9_0>:
   28a00:	94 00 00 21 	movigh gr0 2 <_cla_int_entry_group0_0+0x2>
   28a04:	94 07 c0 05 	movigl gr0 7c00 <$line_table_start0+0xed>
   28a08:	a8 00 12 02 	load32 gr0 gr0 90 <_cla_int_entry_group0_9>
   28a0c:	80 00 00 03 	jmpr gr0

00028a10 <_int_entry_group9_1>:
   28a10:	94 00 00 21 	movigh gr0 2 <_cla_int_entry_group0_0+0x2>
   28a14:	94 07 c0 05 	movigl gr0 7c00 <$line_table_start0+0xed>
   28a18:	a8 00 12 22 	load32 gr0 gr0 91 <_cla_int_entry_group0_9+0x1>
   28a1c:	80 00 00 03 	jmpr gr0

00028a20 <_int_entry_group9_2>:
   28a20:	94 00 00 21 	movigh gr0 2 <_cla_int_entry_group0_0+0x2>
   28a24:	94 07 c0 05 	movigl gr0 7c00 <$line_table_start0+0xed>
   28a28:	a8 00 12 42 	load32 gr0 gr0 92 <.L0 >
   28a2c:	80 00 00 03 	jmpr gr0

00028a30 <_int_entry_group9_3>:
   28a30:	94 00 00 21 	movigh gr0 2 <_cla_int_entry_group0_0+0x2>
   28a34:	94 07 c0 05 	movigl gr0 7c00 <$line_table_start0+0xed>
   28a38:	a8 00 12 62 	load32 gr0 gr0 93 <.L0 +0x1>
   28a3c:	80 00 00 03 	jmpr gr0

00028a40 <_int_entry_group9_4>:
   28a40:	94 00 00 21 	movigh gr0 2 <_cla_int_entry_group0_0+0x2>
   28a44:	94 07 c0 05 	movigl gr0 7c00 <$line_table_start0+0xed>
   28a48:	a8 00 12 82 	load32 gr0 gr0 94 <.L0 +0x2>
   28a4c:	80 00 00 03 	jmpr gr0

00028a50 <_int_entry_group9_5>:
   28a50:	94 00 00 21 	movigh gr0 2 <_cla_int_entry_group0_0+0x2>
   28a54:	94 07 c0 05 	movigl gr0 7c00 <$line_table_start0+0xed>
   28a58:	a8 00 12 a2 	load32 gr0 gr0 95 <.L0 +0x3>
   28a5c:	80 00 00 03 	jmpr gr0

00028a60 <_int_entry_group9_6>:
   28a60:	94 00 00 21 	movigh gr0 2 <_cla_int_entry_group0_0+0x2>
   28a64:	94 07 c0 05 	movigl gr0 7c00 <$line_table_start0+0xed>
   28a68:	a8 00 12 c2 	load32 gr0 gr0 96 <.L0 +0x4>
   28a6c:	80 00 00 03 	jmpr gr0

00028a70 <_int_entry_group9_7>:
   28a70:	94 00 00 21 	movigh gr0 2 <_cla_int_entry_group0_0+0x2>
   28a74:	94 07 c0 05 	movigl gr0 7c00 <$line_table_start0+0xed>
   28a78:	a8 00 12 e2 	load32 gr0 gr0 97 <.L0 +0x5>
   28a7c:	80 00 00 03 	jmpr gr0

00028a80 <_int_entry_group9_8>:
   28a80:	94 00 00 21 	movigh gr0 2 <_cla_int_entry_group0_0+0x2>
   28a84:	94 07 c0 05 	movigl gr0 7c00 <$line_table_start0+0xed>
   28a88:	a8 00 13 02 	load32 gr0 gr0 98 <.L0 >
   28a8c:	80 00 00 03 	jmpr gr0

00028a90 <_int_entry_group9_9>:
   28a90:	94 00 00 21 	movigh gr0 2 <_cla_int_entry_group0_0+0x2>
   28a94:	94 07 c0 05 	movigl gr0 7c00 <$line_table_start0+0xed>
   28a98:	a8 00 13 22 	load32 gr0 gr0 99 <.L0 +0x1>
   28a9c:	80 00 00 03 	jmpr gr0

00028aa0 <_int_entry_group9_10>:
   28aa0:	94 00 00 21 	movigh gr0 2 <_cla_int_entry_group0_0+0x2>
   28aa4:	94 07 c0 05 	movigl gr0 7c00 <$line_table_start0+0xed>
   28aa8:	a8 00 13 42 	load32 gr0 gr0 9a <.L0 +0x2>
   28aac:	80 00 00 03 	jmpr gr0

00028ab0 <_int_entry_group9_11>:
   28ab0:	94 00 00 21 	movigh gr0 2 <_cla_int_entry_group0_0+0x2>
   28ab4:	94 07 c0 05 	movigl gr0 7c00 <$line_table_start0+0xed>
   28ab8:	a8 00 13 62 	load32 gr0 gr0 9b <.L0 +0x3>
   28abc:	80 00 00 03 	jmpr gr0

00028ac0 <_int_entry_group9_12>:
   28ac0:	94 00 00 21 	movigh gr0 2 <_cla_int_entry_group0_0+0x2>
   28ac4:	94 07 c0 05 	movigl gr0 7c00 <$line_table_start0+0xed>
   28ac8:	a8 00 13 82 	load32 gr0 gr0 9c <.L0 +0x4>
   28acc:	80 00 00 03 	jmpr gr0

00028ad0 <_int_entry_group9_13>:
   28ad0:	94 00 00 21 	movigh gr0 2 <_cla_int_entry_group0_0+0x2>
   28ad4:	94 07 c0 05 	movigl gr0 7c00 <$line_table_start0+0xed>
   28ad8:	a8 00 13 a2 	load32 gr0 gr0 9d <.L0 +0x5>
   28adc:	80 00 00 03 	jmpr gr0

00028ae0 <_int_entry_group9_14>:
   28ae0:	94 00 00 21 	movigh gr0 2 <_cla_int_entry_group0_0+0x2>
   28ae4:	94 07 c0 05 	movigl gr0 7c00 <$line_table_start0+0xed>
   28ae8:	a8 00 13 c2 	load32 gr0 gr0 9e <.L0 +0x6>
   28aec:	80 00 00 03 	jmpr gr0

00028af0 <_int_entry_group9_15>:
   28af0:	94 00 00 21 	movigh gr0 2 <_cla_int_entry_group0_0+0x2>
   28af4:	94 07 c0 05 	movigl gr0 7c00 <$line_table_start0+0xed>
   28af8:	a8 00 13 e2 	load32 gr0 gr0 9f <.L0 +0x7>
   28afc:	80 00 00 03 	jmpr gr0

00028b00 <_int_entry_group10_0>:
   28b00:	94 00 00 21 	movigh gr0 2 <_cla_int_entry_group0_0+0x2>
   28b04:	94 07 c0 05 	movigl gr0 7c00 <$line_table_start0+0xed>
   28b08:	a8 00 14 02 	load32 gr0 gr0 a0 <_cla_int_entry_group0_10>
   28b0c:	80 00 00 03 	jmpr gr0

00028b10 <_int_entry_group10_1>:
   28b10:	94 00 00 21 	movigh gr0 2 <_cla_int_entry_group0_0+0x2>
   28b14:	94 07 c0 05 	movigl gr0 7c00 <$line_table_start0+0xed>
   28b18:	a8 00 14 22 	load32 gr0 gr0 a1 <_cla_int_entry_group0_10+0x1>
   28b1c:	80 00 00 03 	jmpr gr0

00028b20 <_int_entry_group10_2>:
   28b20:	94 00 00 21 	movigh gr0 2 <_cla_int_entry_group0_0+0x2>
   28b24:	94 07 c0 05 	movigl gr0 7c00 <$line_table_start0+0xed>
   28b28:	a8 00 14 42 	load32 gr0 gr0 a2 <_cla_int_entry_group0_10+0x2>
   28b2c:	80 00 00 03 	jmpr gr0

00028b30 <_int_entry_group10_3>:
   28b30:	94 00 00 21 	movigh gr0 2 <_cla_int_entry_group0_0+0x2>
   28b34:	94 07 c0 05 	movigl gr0 7c00 <$line_table_start0+0xed>
   28b38:	a8 00 14 62 	load32 gr0 gr0 a3 <_cla_int_entry_group0_10+0x3>
   28b3c:	80 00 00 03 	jmpr gr0

00028b40 <_int_entry_group10_4>:
   28b40:	94 00 00 21 	movigh gr0 2 <_cla_int_entry_group0_0+0x2>
   28b44:	94 07 c0 05 	movigl gr0 7c00 <$line_table_start0+0xed>
   28b48:	a8 00 14 82 	load32 gr0 gr0 a4 <_cla_int_entry_group0_10+0x4>
   28b4c:	80 00 00 03 	jmpr gr0

00028b50 <_int_entry_group10_5>:
   28b50:	94 00 00 21 	movigh gr0 2 <_cla_int_entry_group0_0+0x2>
   28b54:	94 07 c0 05 	movigl gr0 7c00 <$line_table_start0+0xed>
   28b58:	a8 00 14 a2 	load32 gr0 gr0 a5 <_cla_int_entry_group0_10+0x5>
   28b5c:	80 00 00 03 	jmpr gr0

00028b60 <_int_entry_group10_6>:
   28b60:	94 00 00 21 	movigh gr0 2 <_cla_int_entry_group0_0+0x2>
   28b64:	94 07 c0 05 	movigl gr0 7c00 <$line_table_start0+0xed>
   28b68:	a8 00 14 c2 	load32 gr0 gr0 a6 <_cla_int_entry_group0_10+0x6>
   28b6c:	80 00 00 03 	jmpr gr0

00028b70 <_int_entry_group10_7>:
   28b70:	94 00 00 21 	movigh gr0 2 <_cla_int_entry_group0_0+0x2>
   28b74:	94 07 c0 05 	movigl gr0 7c00 <$line_table_start0+0xed>
   28b78:	a8 00 14 e2 	load32 gr0 gr0 a7 <_cla_int_entry_group0_10+0x7>
   28b7c:	80 00 00 03 	jmpr gr0

00028b80 <_int_entry_group10_8>:
   28b80:	94 00 00 21 	movigh gr0 2 <_cla_int_entry_group0_0+0x2>
   28b84:	94 07 c0 05 	movigl gr0 7c00 <$line_table_start0+0xed>
   28b88:	a8 00 15 02 	load32 gr0 gr0 a8 <_cla_int_entry_group0_10+0x8>
   28b8c:	80 00 00 03 	jmpr gr0

00028b90 <_int_entry_group10_9>:
   28b90:	94 00 00 21 	movigh gr0 2 <_cla_int_entry_group0_0+0x2>
   28b94:	94 07 c0 05 	movigl gr0 7c00 <$line_table_start0+0xed>
   28b98:	a8 00 15 22 	load32 gr0 gr0 a9 <_cla_int_entry_group0_10+0x9>
   28b9c:	80 00 00 03 	jmpr gr0

00028ba0 <_int_entry_group10_10>:
   28ba0:	94 00 00 21 	movigh gr0 2 <_cla_int_entry_group0_0+0x2>
   28ba4:	94 07 c0 05 	movigl gr0 7c00 <$line_table_start0+0xed>
   28ba8:	a8 00 15 42 	load32 gr0 gr0 aa <_cla_int_entry_group0_10+0xa>
   28bac:	80 00 00 03 	jmpr gr0

00028bb0 <_int_entry_group10_11>:
   28bb0:	94 00 00 21 	movigh gr0 2 <_cla_int_entry_group0_0+0x2>
   28bb4:	94 07 c0 05 	movigl gr0 7c00 <$line_table_start0+0xed>
   28bb8:	a8 00 15 62 	load32 gr0 gr0 ab <_cla_int_entry_group0_10+0xb>
   28bbc:	80 00 00 03 	jmpr gr0

00028bc0 <_int_entry_group10_12>:
   28bc0:	94 00 00 21 	movigh gr0 2 <_cla_int_entry_group0_0+0x2>
   28bc4:	94 07 c0 05 	movigl gr0 7c00 <$line_table_start0+0xed>
   28bc8:	a8 00 15 82 	load32 gr0 gr0 ac <_cla_int_entry_group0_10+0xc>
   28bcc:	80 00 00 03 	jmpr gr0

00028bd0 <_int_entry_group10_13>:
   28bd0:	94 00 00 21 	movigh gr0 2 <_cla_int_entry_group0_0+0x2>
   28bd4:	94 07 c0 05 	movigl gr0 7c00 <$line_table_start0+0xed>
   28bd8:	a8 00 15 a2 	load32 gr0 gr0 ad <_cla_int_entry_group0_10+0xd>
   28bdc:	80 00 00 03 	jmpr gr0

00028be0 <_int_entry_group10_14>:
   28be0:	94 00 00 21 	movigh gr0 2 <_cla_int_entry_group0_0+0x2>
   28be4:	94 07 c0 05 	movigl gr0 7c00 <$line_table_start0+0xed>
   28be8:	a8 00 15 c2 	load32 gr0 gr0 ae <_cla_int_entry_group0_10+0xe>
   28bec:	80 00 00 03 	jmpr gr0

00028bf0 <_int_entry_group10_15>:
   28bf0:	94 00 00 21 	movigh gr0 2 <_cla_int_entry_group0_0+0x2>
   28bf4:	94 07 c0 05 	movigl gr0 7c00 <$line_table_start0+0xed>
   28bf8:	a8 00 15 e2 	load32 gr0 gr0 af <_cla_int_entry_group0_10+0xf>
   28bfc:	80 00 00 03 	jmpr gr0

00028c00 <_int_entry_group11_0>:
   28c00:	94 00 00 21 	movigh gr0 2 <_cla_int_entry_group0_0+0x2>
   28c04:	94 07 c0 05 	movigl gr0 7c00 <$line_table_start0+0xed>
   28c08:	a8 00 16 02 	load32 gr0 gr0 b0 <_cla_int_entry_group0_11>
   28c0c:	80 00 00 03 	jmpr gr0

00028c10 <_int_entry_group11_1>:
   28c10:	94 00 00 21 	movigh gr0 2 <_cla_int_entry_group0_0+0x2>
   28c14:	94 07 c0 05 	movigl gr0 7c00 <$line_table_start0+0xed>
   28c18:	a8 00 16 22 	load32 gr0 gr0 b1 <_cla_int_entry_group0_11+0x1>
   28c1c:	80 00 00 03 	jmpr gr0

00028c20 <_int_entry_group11_2>:
   28c20:	94 00 00 21 	movigh gr0 2 <_cla_int_entry_group0_0+0x2>
   28c24:	94 07 c0 05 	movigl gr0 7c00 <$line_table_start0+0xed>
   28c28:	a8 00 16 42 	load32 gr0 gr0 b2 <_cla_int_entry_group0_11+0x2>
   28c2c:	80 00 00 03 	jmpr gr0

00028c30 <_int_entry_group11_3>:
   28c30:	94 00 00 21 	movigh gr0 2 <_cla_int_entry_group0_0+0x2>
   28c34:	94 07 c0 05 	movigl gr0 7c00 <$line_table_start0+0xed>
   28c38:	a8 00 16 62 	load32 gr0 gr0 b3 <_cla_int_entry_group0_11+0x3>
   28c3c:	80 00 00 03 	jmpr gr0

00028c40 <_int_entry_group11_4>:
   28c40:	94 00 00 21 	movigh gr0 2 <_cla_int_entry_group0_0+0x2>
   28c44:	94 07 c0 05 	movigl gr0 7c00 <$line_table_start0+0xed>
   28c48:	a8 00 16 82 	load32 gr0 gr0 b4 <_cla_int_entry_group0_11+0x4>
   28c4c:	80 00 00 03 	jmpr gr0

00028c50 <_int_entry_group11_5>:
   28c50:	94 00 00 21 	movigh gr0 2 <_cla_int_entry_group0_0+0x2>
   28c54:	94 07 c0 05 	movigl gr0 7c00 <$line_table_start0+0xed>
   28c58:	a8 00 16 a2 	load32 gr0 gr0 b5 <_cla_int_entry_group0_11+0x5>
   28c5c:	80 00 00 03 	jmpr gr0

00028c60 <_int_entry_group11_6>:
   28c60:	94 00 00 21 	movigh gr0 2 <_cla_int_entry_group0_0+0x2>
   28c64:	94 07 c0 05 	movigl gr0 7c00 <$line_table_start0+0xed>
   28c68:	a8 00 16 c2 	load32 gr0 gr0 b6 <_cla_int_entry_group0_11+0x6>
   28c6c:	80 00 00 03 	jmpr gr0

00028c70 <_int_entry_group11_7>:
   28c70:	94 00 00 21 	movigh gr0 2 <_cla_int_entry_group0_0+0x2>
   28c74:	94 07 c0 05 	movigl gr0 7c00 <$line_table_start0+0xed>
   28c78:	a8 00 16 e2 	load32 gr0 gr0 b7 <_cla_int_entry_group0_11+0x7>
   28c7c:	80 00 00 03 	jmpr gr0

00028c80 <_int_entry_group11_8>:
   28c80:	94 00 00 21 	movigh gr0 2 <_cla_int_entry_group0_0+0x2>
   28c84:	94 07 c0 05 	movigl gr0 7c00 <$line_table_start0+0xed>
   28c88:	a8 00 17 02 	load32 gr0 gr0 b8 <.L0 >
   28c8c:	80 00 00 03 	jmpr gr0

00028c90 <_int_entry_group11_9>:
   28c90:	94 00 00 21 	movigh gr0 2 <_cla_int_entry_group0_0+0x2>
   28c94:	94 07 c0 05 	movigl gr0 7c00 <$line_table_start0+0xed>
   28c98:	a8 00 17 22 	load32 gr0 gr0 b9 <.L0 +0x1>
   28c9c:	80 00 00 03 	jmpr gr0

00028ca0 <_int_entry_group11_10>:
   28ca0:	94 00 00 21 	movigh gr0 2 <_cla_int_entry_group0_0+0x2>
   28ca4:	94 07 c0 05 	movigl gr0 7c00 <$line_table_start0+0xed>
   28ca8:	a8 00 17 42 	load32 gr0 gr0 ba <.L0 +0x2>
   28cac:	80 00 00 03 	jmpr gr0

00028cb0 <_int_entry_group11_11>:
   28cb0:	94 00 00 21 	movigh gr0 2 <_cla_int_entry_group0_0+0x2>
   28cb4:	94 07 c0 05 	movigl gr0 7c00 <$line_table_start0+0xed>
   28cb8:	a8 00 17 62 	load32 gr0 gr0 bb <.L0 +0x3>
   28cbc:	80 00 00 03 	jmpr gr0

00028cc0 <_int_entry_group11_12>:
   28cc0:	94 00 00 21 	movigh gr0 2 <_cla_int_entry_group0_0+0x2>
   28cc4:	94 07 c0 05 	movigl gr0 7c00 <$line_table_start0+0xed>
   28cc8:	a8 00 17 82 	load32 gr0 gr0 bc <.L0 +0x4>
   28ccc:	80 00 00 03 	jmpr gr0

00028cd0 <_int_entry_group11_13>:
   28cd0:	94 00 00 21 	movigh gr0 2 <_cla_int_entry_group0_0+0x2>
   28cd4:	94 07 c0 05 	movigl gr0 7c00 <$line_table_start0+0xed>
   28cd8:	a8 00 17 a2 	load32 gr0 gr0 bd <.L0 +0x5>
   28cdc:	80 00 00 03 	jmpr gr0

00028ce0 <_int_entry_group11_14>:
   28ce0:	94 00 00 21 	movigh gr0 2 <_cla_int_entry_group0_0+0x2>
   28ce4:	94 07 c0 05 	movigl gr0 7c00 <$line_table_start0+0xed>
   28ce8:	a8 00 17 c2 	load32 gr0 gr0 be <.L0 +0x6>
   28cec:	80 00 00 03 	jmpr gr0

00028cf0 <_int_entry_group11_15>:
   28cf0:	94 00 00 21 	movigh gr0 2 <_cla_int_entry_group0_0+0x2>
   28cf4:	94 07 c0 05 	movigl gr0 7c00 <$line_table_start0+0xed>
   28cf8:	a8 00 17 e2 	load32 gr0 gr0 bf <.L0 +0x7>
   28cfc:	80 00 00 03 	jmpr gr0

00028d00 <_int_entry_group12_0>:
   28d00:	94 00 00 21 	movigh gr0 2 <_cla_int_entry_group0_0+0x2>
   28d04:	94 07 c0 05 	movigl gr0 7c00 <$line_table_start0+0xed>
   28d08:	a8 00 18 02 	load32 gr0 gr0 c0 <_cla_int_entry_group0_12>
   28d0c:	80 00 00 03 	jmpr gr0

00028d10 <_int_entry_group12_1>:
   28d10:	94 00 00 21 	movigh gr0 2 <_cla_int_entry_group0_0+0x2>
   28d14:	94 07 c0 05 	movigl gr0 7c00 <$line_table_start0+0xed>
   28d18:	a8 00 18 22 	load32 gr0 gr0 c1 <_cla_int_entry_group0_12+0x1>
   28d1c:	80 00 00 03 	jmpr gr0

00028d20 <_int_entry_group12_2>:
   28d20:	94 00 00 21 	movigh gr0 2 <_cla_int_entry_group0_0+0x2>
   28d24:	94 07 c0 05 	movigl gr0 7c00 <$line_table_start0+0xed>
   28d28:	a8 00 18 42 	load32 gr0 gr0 c2 <_cla_int_entry_group0_12+0x2>
   28d2c:	80 00 00 03 	jmpr gr0

00028d30 <_int_entry_group12_3>:
   28d30:	94 00 00 21 	movigh gr0 2 <_cla_int_entry_group0_0+0x2>
   28d34:	94 07 c0 05 	movigl gr0 7c00 <$line_table_start0+0xed>
   28d38:	a8 00 18 62 	load32 gr0 gr0 c3 <_cla_int_entry_group0_12+0x3>
   28d3c:	80 00 00 03 	jmpr gr0

00028d40 <_int_entry_group12_4>:
   28d40:	94 00 00 21 	movigh gr0 2 <_cla_int_entry_group0_0+0x2>
   28d44:	94 07 c0 05 	movigl gr0 7c00 <$line_table_start0+0xed>
   28d48:	a8 00 18 82 	load32 gr0 gr0 c4 <_cla_int_entry_group0_12+0x4>
   28d4c:	80 00 00 03 	jmpr gr0

00028d50 <_int_entry_group12_5>:
   28d50:	94 00 00 21 	movigh gr0 2 <_cla_int_entry_group0_0+0x2>
   28d54:	94 07 c0 05 	movigl gr0 7c00 <$line_table_start0+0xed>
   28d58:	a8 00 18 a2 	load32 gr0 gr0 c5 <_cla_int_entry_group0_12+0x5>
   28d5c:	80 00 00 03 	jmpr gr0

00028d60 <_int_entry_group12_6>:
   28d60:	94 00 00 21 	movigh gr0 2 <_cla_int_entry_group0_0+0x2>
   28d64:	94 07 c0 05 	movigl gr0 7c00 <$line_table_start0+0xed>
   28d68:	a8 00 18 c2 	load32 gr0 gr0 c6 <_cla_int_entry_group0_12+0x6>
   28d6c:	80 00 00 03 	jmpr gr0

00028d70 <_int_entry_group12_7>:
   28d70:	94 00 00 21 	movigh gr0 2 <_cla_int_entry_group0_0+0x2>
   28d74:	94 07 c0 05 	movigl gr0 7c00 <$line_table_start0+0xed>
   28d78:	a8 00 18 e2 	load32 gr0 gr0 c7 <_cla_int_entry_group0_12+0x7>
   28d7c:	80 00 00 03 	jmpr gr0

00028d80 <_int_entry_group12_8>:
   28d80:	94 00 00 21 	movigh gr0 2 <_cla_int_entry_group0_0+0x2>
   28d84:	94 07 c0 05 	movigl gr0 7c00 <$line_table_start0+0xed>
   28d88:	a8 00 19 02 	load32 gr0 gr0 c8 <_cla_int_entry_group0_12+0x8>
   28d8c:	80 00 00 03 	jmpr gr0

00028d90 <_int_entry_group12_9>:
   28d90:	94 00 00 21 	movigh gr0 2 <_cla_int_entry_group0_0+0x2>
   28d94:	94 07 c0 05 	movigl gr0 7c00 <$line_table_start0+0xed>
   28d98:	a8 00 19 22 	load32 gr0 gr0 c9 <_cla_int_entry_group0_12+0x9>
   28d9c:	80 00 00 03 	jmpr gr0

00028da0 <_int_entry_group12_10>:
   28da0:	94 00 00 21 	movigh gr0 2 <_cla_int_entry_group0_0+0x2>
   28da4:	94 07 c0 05 	movigl gr0 7c00 <$line_table_start0+0xed>
   28da8:	a8 00 19 42 	load32 gr0 gr0 ca <_cla_int_entry_group0_12+0xa>
   28dac:	80 00 00 03 	jmpr gr0

00028db0 <_int_entry_group12_11>:
   28db0:	94 00 00 21 	movigh gr0 2 <_cla_int_entry_group0_0+0x2>
   28db4:	94 07 c0 05 	movigl gr0 7c00 <$line_table_start0+0xed>
   28db8:	a8 00 19 62 	load32 gr0 gr0 cb <_cla_int_entry_group0_12+0xb>
   28dbc:	80 00 00 03 	jmpr gr0

00028dc0 <_int_entry_group12_12>:
   28dc0:	94 00 00 21 	movigh gr0 2 <_cla_int_entry_group0_0+0x2>
   28dc4:	94 07 c0 05 	movigl gr0 7c00 <$line_table_start0+0xed>
   28dc8:	a8 00 19 82 	load32 gr0 gr0 cc <_cla_int_entry_group0_12+0xc>
   28dcc:	80 00 00 03 	jmpr gr0

00028dd0 <_int_entry_group12_13>:
   28dd0:	94 00 00 21 	movigh gr0 2 <_cla_int_entry_group0_0+0x2>
   28dd4:	94 07 c0 05 	movigl gr0 7c00 <$line_table_start0+0xed>
   28dd8:	a8 00 19 a2 	load32 gr0 gr0 cd <_cla_int_entry_group0_12+0xd>
   28ddc:	80 00 00 03 	jmpr gr0

00028de0 <_int_entry_group12_14>:
   28de0:	94 00 00 21 	movigh gr0 2 <_cla_int_entry_group0_0+0x2>
   28de4:	94 07 c0 05 	movigl gr0 7c00 <$line_table_start0+0xed>
   28de8:	a8 00 19 c2 	load32 gr0 gr0 ce <_cla_int_entry_group0_12+0xe>
   28dec:	80 00 00 03 	jmpr gr0

00028df0 <_int_entry_group12_15>:
   28df0:	94 00 00 21 	movigh gr0 2 <_cla_int_entry_group0_0+0x2>
   28df4:	94 07 c0 05 	movigl gr0 7c00 <$line_table_start0+0xed>
   28df8:	a8 00 19 e2 	load32 gr0 gr0 cf <_cla_int_entry_group0_12+0xf>
   28dfc:	80 00 00 03 	jmpr gr0

00028e00 <_int_entry_group13_0>:
   28e00:	94 00 00 21 	movigh gr0 2 <_cla_int_entry_group0_0+0x2>
   28e04:	94 07 c0 05 	movigl gr0 7c00 <$line_table_start0+0xed>
   28e08:	a8 00 1a 02 	load32 gr0 gr0 d0 <_cla_int_entry_group0_13>
   28e0c:	80 00 00 03 	jmpr gr0

00028e10 <_int_entry_group14_0>:
   28e10:	94 00 00 21 	movigh gr0 2 <_cla_int_entry_group0_0+0x2>
   28e14:	94 07 c0 05 	movigl gr0 7c00 <$line_table_start0+0xed>
   28e18:	a8 00 1c 02 	load32 gr0 gr0 e0 <_cla_int_entry_group0_14>
   28e1c:	80 00 00 03 	jmpr gr0

00028e20 <_int_entry_group15_0>:
   28e20:	94 00 00 21 	movigh gr0 2 <_cla_int_entry_group0_0+0x2>
   28e24:	94 07 c0 05 	movigl gr0 7c00 <$line_table_start0+0xed>
   28e28:	a8 00 1e 02 	load32 gr0 gr0 f0 <_cla_int_entry_group0_15>
   28e2c:	80 00 00 03 	jmpr gr0

00028e30 <_lb_padding_nops>:
   28e30:	80 00 00 00 	nop
   28e34:	80 00 00 00 	nop
   28e38:	80 00 00 00 	nop
   28e3c:	80 00 00 00 	nop

00028e40 <interrupt_defaulthandler>:
   28e40:	83 ff ff e1 	jmp 28e40 <interrupt_defaulthandler>
   28e44:	80 00 00 00 	nop
   28e48:	80 00 00 00 	nop
   28e4c:	80 00 00 00 	nop

00028e50 <claint1ISR>:
    printf("%f\n", cla_f8data);
#endif
}

__interrupt void claint1ISR()
{
   28e50:	ec 17 bd 02 	store32 gr1 gr30 ffffffe8 <Flash0CtrlRegs+0xfef5ffe8>
   28e54:	80 00 00 00 	nop
   28e58:	80 00 00 00 	nop
   28e5c:	80 00 00 00 	nop
   28e60:	80 00 00 00 	nop
   28e64:	80 00 00 00 	nop
   28e68:	80 10 00 0f 	movc2g gr1
   28e6c:	ec 17 bc e2 	store32 gr1 gr30 ffffffe7 <Flash0CtrlRegs+0xfef5ffe7>
   28e70:	99 e7 bc 80 	addi gr30 gr30 ffffff90 <Flash0CtrlRegs+0xfef5ff90>
    cla1_ISR();
   28e74:	ec 07 83 62 	store32 gr0 gr30 1b <_core1_exp_start+0x4>
   28e78:	ec 17 83 42 	store32 gr1 gr30 1a <_core1_exp_start+0x3>
   28e7c:	ec 27 83 22 	store32 gr2 gr30 19 <_core1_exp_start+0x2>
   28e80:	ec 37 83 02 	store32 gr3 gr30 18 <_core1_exp_start+0x1>
   28e84:	ec 47 82 e2 	store32 gr4 gr30 17 <_core1_exp_start>
   28e88:	ec 57 82 c2 	store32 gr5 gr30 16 <_cla_int_entry_group0_1+0x6>
   28e8c:	ec 67 82 a2 	store32 gr6 gr30 15 <_cla_int_entry_group0_1+0x5>
   28e90:	ec 77 82 82 	store32 gr7 gr30 14 <_cla_int_entry_group0_1+0x4>
   28e94:	ec 87 82 62 	store32 gr8 gr30 13 <_cla_int_entry_group0_1+0x3>
   28e98:	ec 97 82 42 	store32 gr9 gr30 12 <_cla_int_entry_group0_1+0x2>
   28e9c:	ec a7 82 22 	store32 gr10 gr30 11 <_cla_int_entry_group0_1+0x1>
   28ea0:	ec b7 82 02 	store32 gr11 gr30 10 <_cla_int_entry_group0_1>
   28ea4:	ec c7 81 e2 	store32 gr12 gr30 f <_core0_exp_start+0xa>
   28ea8:	ec d7 81 c2 	store32 gr13 gr30 e <_core0_exp_start+0x9>
   28eac:	ec e7 81 a2 	store32 gr14 gr30 d <_core0_exp_start+0x8>
   28eb0:	ec f7 81 82 	store32 gr15 gr30 c <_core0_exp_start+0x7>
   28eb4:	ed 87 81 62 	store32 gr24 gr30 b <_core0_exp_start+0x6>
   28eb8:	ed 97 81 42 	store32 gr25 gr30 a <_core0_exp_start+0x5>
   28ebc:	ed c7 81 22 	store32 gr28 gr30 9 <_core0_exp_start+0x4>
   28ec0:	ed f7 81 02 	store32 gr31 gr30 8 <_core0_exp_start+0x3>
   28ec4:	ed e7 80 e2 	store32 gr30 gr30 7 <_core0_exp_start+0x2>
   28ec8:	ed a7 80 c2 	store32 gr26 gr30 6 <_core0_exp_start+0x1>
   28ecc:	ed b7 80 a2 	store32 gr27 gr30 5 <_core0_exp_start>
   28ed0:	80 00 a0 6d 	call 2a2e0 <cla1_ISR>
   28ed4:	80 00 00 00 	nop
   28ed8:	80 00 00 00 	nop
   28edc:	80 00 00 00 	nop
}
   28ee0:	a9 b7 80 a2 	load32 gr27 gr30 5 <_core0_exp_start>
   28ee4:	a9 a7 80 c2 	load32 gr26 gr30 6 <_core0_exp_start+0x1>
   28ee8:	a9 e7 80 e2 	load32 gr30 gr30 7 <_core0_exp_start+0x2>
   28eec:	a9 f7 81 02 	load32 gr31 gr30 8 <_core0_exp_start+0x3>
   28ef0:	a9 c7 81 22 	load32 gr28 gr30 9 <_core0_exp_start+0x4>
   28ef4:	a9 97 81 42 	load32 gr25 gr30 a <_core0_exp_start+0x5>
   28ef8:	a9 87 81 62 	load32 gr24 gr30 b <_core0_exp_start+0x6>
   28efc:	a8 f7 81 82 	load32 gr15 gr30 c <_core0_exp_start+0x7>
   28f00:	a8 e7 81 a2 	load32 gr14 gr30 d <_core0_exp_start+0x8>
   28f04:	a8 d7 81 c2 	load32 gr13 gr30 e <_core0_exp_start+0x9>
   28f08:	a8 c7 81 e2 	load32 gr12 gr30 f <_core0_exp_start+0xa>
   28f0c:	a8 b7 82 02 	load32 gr11 gr30 10 <_cla_int_entry_group0_1>
   28f10:	a8 a7 82 22 	load32 gr10 gr30 11 <_cla_int_entry_group0_1+0x1>
   28f14:	a8 97 82 42 	load32 gr9 gr30 12 <_cla_int_entry_group0_1+0x2>
   28f18:	a8 87 82 62 	load32 gr8 gr30 13 <_cla_int_entry_group0_1+0x3>
   28f1c:	a8 77 82 82 	load32 gr7 gr30 14 <_cla_int_entry_group0_1+0x4>
   28f20:	a8 67 82 a2 	load32 gr6 gr30 15 <_cla_int_entry_group0_1+0x5>
   28f24:	a8 57 82 c2 	load32 gr5 gr30 16 <_cla_int_entry_group0_1+0x6>
   28f28:	a8 47 82 e2 	load32 gr4 gr30 17 <_core1_exp_start>
   28f2c:	a8 37 83 02 	load32 gr3 gr30 18 <_core1_exp_start+0x1>
   28f30:	a8 27 83 22 	load32 gr2 gr30 19 <_core1_exp_start+0x2>
   28f34:	a8 17 83 42 	load32 gr1 gr30 1a <_core1_exp_start+0x3>
   28f38:	a8 07 83 62 	load32 gr0 gr30 1b <_core1_exp_start+0x4>
   28f3c:	99 e7 83 80 	addi gr30 gr30 70 <_cla_int_entry_group0_7>
   28f40:	a8 17 bc e2 	load32 gr1 gr30 ffffffe7 <Flash0CtrlRegs+0xfef5ffe7>
   28f44:	80 00 40 0b 	movg2c gr1
   28f48:	a8 17 bd 02 	load32 gr1 gr30 ffffffe8 <Flash0CtrlRegs+0xfef5ffe8>
   28f4c:	80 00 00 08 	rtt
   28f50:	80 00 00 00 	nop
   28f54:	80 00 00 00 	nop

00028f58 <claint2ISR>:

__interrupt void claint2ISR()
{
   28f58:	ec 17 bd 02 	store32 gr1 gr30 ffffffe8 <Flash0CtrlRegs+0xfef5ffe8>
   28f5c:	80 00 00 00 	nop
   28f60:	80 00 00 00 	nop
   28f64:	80 00 00 00 	nop
   28f68:	80 00 00 00 	nop
   28f6c:	80 00 00 00 	nop
   28f70:	80 10 00 0f 	movc2g gr1
   28f74:	ec 17 bc e2 	store32 gr1 gr30 ffffffe7 <Flash0CtrlRegs+0xfef5ffe7>
   28f78:	99 e7 bc 80 	addi gr30 gr30 ffffff90 <Flash0CtrlRegs+0xfef5ff90>
    cla2_ISR();
   28f7c:	ec 07 83 62 	store32 gr0 gr30 1b <_core1_exp_start+0x4>
   28f80:	ec 17 83 42 	store32 gr1 gr30 1a <_core1_exp_start+0x3>
   28f84:	ec 27 83 22 	store32 gr2 gr30 19 <_core1_exp_start+0x2>
   28f88:	ec 37 83 02 	store32 gr3 gr30 18 <_core1_exp_start+0x1>
   28f8c:	ec 47 82 e2 	store32 gr4 gr30 17 <_core1_exp_start>
   28f90:	ec 57 82 c2 	store32 gr5 gr30 16 <_cla_int_entry_group0_1+0x6>
   28f94:	ec 67 82 a2 	store32 gr6 gr30 15 <_cla_int_entry_group0_1+0x5>
   28f98:	ec 77 82 82 	store32 gr7 gr30 14 <_cla_int_entry_group0_1+0x4>
   28f9c:	ec 87 82 62 	store32 gr8 gr30 13 <_cla_int_entry_group0_1+0x3>
   28fa0:	ec 97 82 42 	store32 gr9 gr30 12 <_cla_int_entry_group0_1+0x2>
   28fa4:	ec a7 82 22 	store32 gr10 gr30 11 <_cla_int_entry_group0_1+0x1>
   28fa8:	ec b7 82 02 	store32 gr11 gr30 10 <_cla_int_entry_group0_1>
   28fac:	ec c7 81 e2 	store32 gr12 gr30 f <_core0_exp_start+0xa>
   28fb0:	ec d7 81 c2 	store32 gr13 gr30 e <_core0_exp_start+0x9>
   28fb4:	ec e7 81 a2 	store32 gr14 gr30 d <_core0_exp_start+0x8>
   28fb8:	ec f7 81 82 	store32 gr15 gr30 c <_core0_exp_start+0x7>
   28fbc:	ed 87 81 62 	store32 gr24 gr30 b <_core0_exp_start+0x6>
   28fc0:	ed 97 81 42 	store32 gr25 gr30 a <_core0_exp_start+0x5>
   28fc4:	ed c7 81 22 	store32 gr28 gr30 9 <_core0_exp_start+0x4>
   28fc8:	ed f7 81 02 	store32 gr31 gr30 8 <_core0_exp_start+0x3>
   28fcc:	ed e7 80 e2 	store32 gr30 gr30 7 <_core0_exp_start+0x2>
   28fd0:	ed a7 80 c2 	store32 gr26 gr30 6 <_core0_exp_start+0x1>
   28fd4:	ed b7 80 a2 	store32 gr27 gr30 5 <_core0_exp_start>
   28fd8:	80 00 9a 2d 	call 2a320 <cla2_ISR>
   28fdc:	80 00 00 00 	nop
   28fe0:	80 00 00 00 	nop
   28fe4:	80 00 00 00 	nop
}
   28fe8:	a9 b7 80 a2 	load32 gr27 gr30 5 <_core0_exp_start>
   28fec:	a9 a7 80 c2 	load32 gr26 gr30 6 <_core0_exp_start+0x1>
   28ff0:	a9 e7 80 e2 	load32 gr30 gr30 7 <_core0_exp_start+0x2>
   28ff4:	a9 f7 81 02 	load32 gr31 gr30 8 <_core0_exp_start+0x3>
   28ff8:	a9 c7 81 22 	load32 gr28 gr30 9 <_core0_exp_start+0x4>
   28ffc:	a9 97 81 42 	load32 gr25 gr30 a <_core0_exp_start+0x5>
   29000:	a9 87 81 62 	load32 gr24 gr30 b <_core0_exp_start+0x6>
   29004:	a8 f7 81 82 	load32 gr15 gr30 c <_core0_exp_start+0x7>
   29008:	a8 e7 81 a2 	load32 gr14 gr30 d <_core0_exp_start+0x8>
   2900c:	a8 d7 81 c2 	load32 gr13 gr30 e <_core0_exp_start+0x9>
   29010:	a8 c7 81 e2 	load32 gr12 gr30 f <_core0_exp_start+0xa>
   29014:	a8 b7 82 02 	load32 gr11 gr30 10 <_cla_int_entry_group0_1>
   29018:	a8 a7 82 22 	load32 gr10 gr30 11 <_cla_int_entry_group0_1+0x1>
   2901c:	a8 97 82 42 	load32 gr9 gr30 12 <_cla_int_entry_group0_1+0x2>
   29020:	a8 87 82 62 	load32 gr8 gr30 13 <_cla_int_entry_group0_1+0x3>
   29024:	a8 77 82 82 	load32 gr7 gr30 14 <_cla_int_entry_group0_1+0x4>
   29028:	a8 67 82 a2 	load32 gr6 gr30 15 <_cla_int_entry_group0_1+0x5>
   2902c:	a8 57 82 c2 	load32 gr5 gr30 16 <_cla_int_entry_group0_1+0x6>
   29030:	a8 47 82 e2 	load32 gr4 gr30 17 <_core1_exp_start>
   29034:	a8 37 83 02 	load32 gr3 gr30 18 <_core1_exp_start+0x1>
   29038:	a8 27 83 22 	load32 gr2 gr30 19 <_core1_exp_start+0x2>
   2903c:	a8 17 83 42 	load32 gr1 gr30 1a <_core1_exp_start+0x3>
   29040:	a8 07 83 62 	load32 gr0 gr30 1b <_core1_exp_start+0x4>
   29044:	99 e7 83 80 	addi gr30 gr30 70 <_cla_int_entry_group0_7>
   29048:	a8 17 bc e2 	load32 gr1 gr30 ffffffe7 <Flash0CtrlRegs+0xfef5ffe7>
   2904c:	80 00 40 0b 	movg2c gr1
   29050:	a8 17 bd 02 	load32 gr1 gr30 ffffffe8 <Flash0CtrlRegs+0xfef5ffe8>
   29054:	80 00 00 08 	rtt
   29058:	80 00 00 00 	nop
   2905c:	80 00 00 00 	nop

00029060 <claint3ISR>:

__interrupt void claint3ISR()
{
   29060:	ec 17 bd 02 	store32 gr1 gr30 ffffffe8 <Flash0CtrlRegs+0xfef5ffe8>
   29064:	80 00 00 00 	nop
   29068:	80 00 00 00 	nop
   2906c:	80 00 00 00 	nop
   29070:	80 00 00 00 	nop
   29074:	80 00 00 00 	nop
   29078:	80 10 00 0f 	movc2g gr1
   2907c:	ec 17 bc e2 	store32 gr1 gr30 ffffffe7 <Flash0CtrlRegs+0xfef5ffe7>
   29080:	99 e7 bc 80 	addi gr30 gr30 ffffff90 <Flash0CtrlRegs+0xfef5ff90>
    cla3_ISR();
   29084:	ec 07 83 62 	store32 gr0 gr30 1b <_core1_exp_start+0x4>
   29088:	ec 17 83 42 	store32 gr1 gr30 1a <_core1_exp_start+0x3>
   2908c:	ec 27 83 22 	store32 gr2 gr30 19 <_core1_exp_start+0x2>
   29090:	ec 37 83 02 	store32 gr3 gr30 18 <_core1_exp_start+0x1>
   29094:	ec 47 82 e2 	store32 gr4 gr30 17 <_core1_exp_start>
   29098:	ec 57 82 c2 	store32 gr5 gr30 16 <_cla_int_entry_group0_1+0x6>
   2909c:	ec 67 82 a2 	store32 gr6 gr30 15 <_cla_int_entry_group0_1+0x5>
   290a0:	ec 77 82 82 	store32 gr7 gr30 14 <_cla_int_entry_group0_1+0x4>
   290a4:	ec 87 82 62 	store32 gr8 gr30 13 <_cla_int_entry_group0_1+0x3>
   290a8:	ec 97 82 42 	store32 gr9 gr30 12 <_cla_int_entry_group0_1+0x2>
   290ac:	ec a7 82 22 	store32 gr10 gr30 11 <_cla_int_entry_group0_1+0x1>
   290b0:	ec b7 82 02 	store32 gr11 gr30 10 <_cla_int_entry_group0_1>
   290b4:	ec c7 81 e2 	store32 gr12 gr30 f <_core0_exp_start+0xa>
   290b8:	ec d7 81 c2 	store32 gr13 gr30 e <_core0_exp_start+0x9>
   290bc:	ec e7 81 a2 	store32 gr14 gr30 d <_core0_exp_start+0x8>
   290c0:	ec f7 81 82 	store32 gr15 gr30 c <_core0_exp_start+0x7>
   290c4:	ed 87 81 62 	store32 gr24 gr30 b <_core0_exp_start+0x6>
   290c8:	ed 97 81 42 	store32 gr25 gr30 a <_core0_exp_start+0x5>
   290cc:	ed c7 81 22 	store32 gr28 gr30 9 <_core0_exp_start+0x4>
   290d0:	ed f7 81 02 	store32 gr31 gr30 8 <_core0_exp_start+0x3>
   290d4:	ed e7 80 e2 	store32 gr30 gr30 7 <_core0_exp_start+0x2>
   290d8:	ed a7 80 c2 	store32 gr26 gr30 6 <_core0_exp_start+0x1>
   290dc:	ed b7 80 a2 	store32 gr27 gr30 5 <_core0_exp_start>
   290e0:	80 00 93 ed 	call 2a360 <cla3_ISR>
   290e4:	80 00 00 00 	nop
   290e8:	80 00 00 00 	nop
   290ec:	80 00 00 00 	nop
}
   290f0:	a9 b7 80 a2 	load32 gr27 gr30 5 <_core0_exp_start>
   290f4:	a9 a7 80 c2 	load32 gr26 gr30 6 <_core0_exp_start+0x1>
   290f8:	a9 e7 80 e2 	load32 gr30 gr30 7 <_core0_exp_start+0x2>
   290fc:	a9 f7 81 02 	load32 gr31 gr30 8 <_core0_exp_start+0x3>
   29100:	a9 c7 81 22 	load32 gr28 gr30 9 <_core0_exp_start+0x4>
   29104:	a9 97 81 42 	load32 gr25 gr30 a <_core0_exp_start+0x5>
   29108:	a9 87 81 62 	load32 gr24 gr30 b <_core0_exp_start+0x6>
   2910c:	a8 f7 81 82 	load32 gr15 gr30 c <_core0_exp_start+0x7>
   29110:	a8 e7 81 a2 	load32 gr14 gr30 d <_core0_exp_start+0x8>
   29114:	a8 d7 81 c2 	load32 gr13 gr30 e <_core0_exp_start+0x9>
   29118:	a8 c7 81 e2 	load32 gr12 gr30 f <_core0_exp_start+0xa>
   2911c:	a8 b7 82 02 	load32 gr11 gr30 10 <_cla_int_entry_group0_1>
   29120:	a8 a7 82 22 	load32 gr10 gr30 11 <_cla_int_entry_group0_1+0x1>
   29124:	a8 97 82 42 	load32 gr9 gr30 12 <_cla_int_entry_group0_1+0x2>
   29128:	a8 87 82 62 	load32 gr8 gr30 13 <_cla_int_entry_group0_1+0x3>
   2912c:	a8 77 82 82 	load32 gr7 gr30 14 <_cla_int_entry_group0_1+0x4>
   29130:	a8 67 82 a2 	load32 gr6 gr30 15 <_cla_int_entry_group0_1+0x5>
   29134:	a8 57 82 c2 	load32 gr5 gr30 16 <_cla_int_entry_group0_1+0x6>
   29138:	a8 47 82 e2 	load32 gr4 gr30 17 <_core1_exp_start>
   2913c:	a8 37 83 02 	load32 gr3 gr30 18 <_core1_exp_start+0x1>
   29140:	a8 27 83 22 	load32 gr2 gr30 19 <_core1_exp_start+0x2>
   29144:	a8 17 83 42 	load32 gr1 gr30 1a <_core1_exp_start+0x3>
   29148:	a8 07 83 62 	load32 gr0 gr30 1b <_core1_exp_start+0x4>
   2914c:	99 e7 83 80 	addi gr30 gr30 70 <_cla_int_entry_group0_7>
   29150:	a8 17 bc e2 	load32 gr1 gr30 ffffffe7 <Flash0CtrlRegs+0xfef5ffe7>
   29154:	80 00 40 0b 	movg2c gr1
   29158:	a8 17 bd 02 	load32 gr1 gr30 ffffffe8 <Flash0CtrlRegs+0xfef5ffe8>
   2915c:	80 00 00 08 	rtt
   29160:	80 00 00 00 	nop
   29164:	80 00 00 00 	nop

00029168 <claint4ISR>:

__interrupt void claint4ISR()
{
   29168:	ec 17 bd 02 	store32 gr1 gr30 ffffffe8 <Flash0CtrlRegs+0xfef5ffe8>
   2916c:	80 00 00 00 	nop
   29170:	80 00 00 00 	nop
   29174:	80 00 00 00 	nop
   29178:	80 00 00 00 	nop
   2917c:	80 00 00 00 	nop
   29180:	80 10 00 0f 	movc2g gr1
   29184:	ec 17 bc e2 	store32 gr1 gr30 ffffffe7 <Flash0CtrlRegs+0xfef5ffe7>
   29188:	99 e7 bc 80 	addi gr30 gr30 ffffff90 <Flash0CtrlRegs+0xfef5ff90>
    cla4_ISR();
   2918c:	ec 07 83 62 	store32 gr0 gr30 1b <_core1_exp_start+0x4>
   29190:	ec 17 83 42 	store32 gr1 gr30 1a <_core1_exp_start+0x3>
   29194:	ec 27 83 22 	store32 gr2 gr30 19 <_core1_exp_start+0x2>
   29198:	ec 37 83 02 	store32 gr3 gr30 18 <_core1_exp_start+0x1>
   2919c:	ec 47 82 e2 	store32 gr4 gr30 17 <_core1_exp_start>
   291a0:	ec 57 82 c2 	store32 gr5 gr30 16 <_cla_int_entry_group0_1+0x6>
   291a4:	ec 67 82 a2 	store32 gr6 gr30 15 <_cla_int_entry_group0_1+0x5>
   291a8:	ec 77 82 82 	store32 gr7 gr30 14 <_cla_int_entry_group0_1+0x4>
   291ac:	ec 87 82 62 	store32 gr8 gr30 13 <_cla_int_entry_group0_1+0x3>
   291b0:	ec 97 82 42 	store32 gr9 gr30 12 <_cla_int_entry_group0_1+0x2>
   291b4:	ec a7 82 22 	store32 gr10 gr30 11 <_cla_int_entry_group0_1+0x1>
   291b8:	ec b7 82 02 	store32 gr11 gr30 10 <_cla_int_entry_group0_1>
   291bc:	ec c7 81 e2 	store32 gr12 gr30 f <_core0_exp_start+0xa>
   291c0:	ec d7 81 c2 	store32 gr13 gr30 e <_core0_exp_start+0x9>
   291c4:	ec e7 81 a2 	store32 gr14 gr30 d <_core0_exp_start+0x8>
   291c8:	ec f7 81 82 	store32 gr15 gr30 c <_core0_exp_start+0x7>
   291cc:	ed 87 81 62 	store32 gr24 gr30 b <_core0_exp_start+0x6>
   291d0:	ed 97 81 42 	store32 gr25 gr30 a <_core0_exp_start+0x5>
   291d4:	ed c7 81 22 	store32 gr28 gr30 9 <_core0_exp_start+0x4>
   291d8:	ed f7 81 02 	store32 gr31 gr30 8 <_core0_exp_start+0x3>
   291dc:	ed e7 80 e2 	store32 gr30 gr30 7 <_core0_exp_start+0x2>
   291e0:	ed a7 80 c2 	store32 gr26 gr30 6 <_core0_exp_start+0x1>
   291e4:	ed b7 80 a2 	store32 gr27 gr30 5 <_core0_exp_start>
   291e8:	80 00 8d ad 	call 2a3a0 <cla4_ISR>
   291ec:	80 00 00 00 	nop
   291f0:	80 00 00 00 	nop
   291f4:	80 00 00 00 	nop
}
   291f8:	a9 b7 80 a2 	load32 gr27 gr30 5 <_core0_exp_start>
   291fc:	a9 a7 80 c2 	load32 gr26 gr30 6 <_core0_exp_start+0x1>
   29200:	a9 e7 80 e2 	load32 gr30 gr30 7 <_core0_exp_start+0x2>
   29204:	a9 f7 81 02 	load32 gr31 gr30 8 <_core0_exp_start+0x3>
   29208:	a9 c7 81 22 	load32 gr28 gr30 9 <_core0_exp_start+0x4>
   2920c:	a9 97 81 42 	load32 gr25 gr30 a <_core0_exp_start+0x5>
   29210:	a9 87 81 62 	load32 gr24 gr30 b <_core0_exp_start+0x6>
   29214:	a8 f7 81 82 	load32 gr15 gr30 c <_core0_exp_start+0x7>
   29218:	a8 e7 81 a2 	load32 gr14 gr30 d <_core0_exp_start+0x8>
   2921c:	a8 d7 81 c2 	load32 gr13 gr30 e <_core0_exp_start+0x9>
   29220:	a8 c7 81 e2 	load32 gr12 gr30 f <_core0_exp_start+0xa>
   29224:	a8 b7 82 02 	load32 gr11 gr30 10 <_cla_int_entry_group0_1>
   29228:	a8 a7 82 22 	load32 gr10 gr30 11 <_cla_int_entry_group0_1+0x1>
   2922c:	a8 97 82 42 	load32 gr9 gr30 12 <_cla_int_entry_group0_1+0x2>
   29230:	a8 87 82 62 	load32 gr8 gr30 13 <_cla_int_entry_group0_1+0x3>
   29234:	a8 77 82 82 	load32 gr7 gr30 14 <_cla_int_entry_group0_1+0x4>
   29238:	a8 67 82 a2 	load32 gr6 gr30 15 <_cla_int_entry_group0_1+0x5>
   2923c:	a8 57 82 c2 	load32 gr5 gr30 16 <_cla_int_entry_group0_1+0x6>
   29240:	a8 47 82 e2 	load32 gr4 gr30 17 <_core1_exp_start>
   29244:	a8 37 83 02 	load32 gr3 gr30 18 <_core1_exp_start+0x1>
   29248:	a8 27 83 22 	load32 gr2 gr30 19 <_core1_exp_start+0x2>
   2924c:	a8 17 83 42 	load32 gr1 gr30 1a <_core1_exp_start+0x3>
   29250:	a8 07 83 62 	load32 gr0 gr30 1b <_core1_exp_start+0x4>
   29254:	99 e7 83 80 	addi gr30 gr30 70 <_cla_int_entry_group0_7>
   29258:	a8 17 bc e2 	load32 gr1 gr30 ffffffe7 <Flash0CtrlRegs+0xfef5ffe7>
   2925c:	80 00 40 0b 	movg2c gr1
   29260:	a8 17 bd 02 	load32 gr1 gr30 ffffffe8 <Flash0CtrlRegs+0xfef5ffe8>
   29264:	80 00 00 08 	rtt
   29268:	80 00 00 00 	nop
   2926c:	80 00 00 00 	nop

00029270 <claint5ISR>:

__interrupt void claint5ISR()
{
   29270:	ec 17 bd 02 	store32 gr1 gr30 ffffffe8 <Flash0CtrlRegs+0xfef5ffe8>
   29274:	80 00 00 00 	nop
   29278:	80 00 00 00 	nop
   2927c:	80 00 00 00 	nop
   29280:	80 00 00 00 	nop
   29284:	80 00 00 00 	nop
   29288:	80 10 00 0f 	movc2g gr1
   2928c:	ec 17 bc e2 	store32 gr1 gr30 ffffffe7 <Flash0CtrlRegs+0xfef5ffe7>
   29290:	99 e7 bc 80 	addi gr30 gr30 ffffff90 <Flash0CtrlRegs+0xfef5ff90>
    cla5_ISR();
   29294:	ec 07 83 62 	store32 gr0 gr30 1b <_core1_exp_start+0x4>
   29298:	ec 17 83 42 	store32 gr1 gr30 1a <_core1_exp_start+0x3>
   2929c:	ec 27 83 22 	store32 gr2 gr30 19 <_core1_exp_start+0x2>
   292a0:	ec 37 83 02 	store32 gr3 gr30 18 <_core1_exp_start+0x1>
   292a4:	ec 47 82 e2 	store32 gr4 gr30 17 <_core1_exp_start>
   292a8:	ec 57 82 c2 	store32 gr5 gr30 16 <_cla_int_entry_group0_1+0x6>
   292ac:	ec 67 82 a2 	store32 gr6 gr30 15 <_cla_int_entry_group0_1+0x5>
   292b0:	ec 77 82 82 	store32 gr7 gr30 14 <_cla_int_entry_group0_1+0x4>
   292b4:	ec 87 82 62 	store32 gr8 gr30 13 <_cla_int_entry_group0_1+0x3>
   292b8:	ec 97 82 42 	store32 gr9 gr30 12 <_cla_int_entry_group0_1+0x2>
   292bc:	ec a7 82 22 	store32 gr10 gr30 11 <_cla_int_entry_group0_1+0x1>
   292c0:	ec b7 82 02 	store32 gr11 gr30 10 <_cla_int_entry_group0_1>
   292c4:	ec c7 81 e2 	store32 gr12 gr30 f <_core0_exp_start+0xa>
   292c8:	ec d7 81 c2 	store32 gr13 gr30 e <_core0_exp_start+0x9>
   292cc:	ec e7 81 a2 	store32 gr14 gr30 d <_core0_exp_start+0x8>
   292d0:	ec f7 81 82 	store32 gr15 gr30 c <_core0_exp_start+0x7>
   292d4:	ed 87 81 62 	store32 gr24 gr30 b <_core0_exp_start+0x6>
   292d8:	ed 97 81 42 	store32 gr25 gr30 a <_core0_exp_start+0x5>
   292dc:	ed c7 81 22 	store32 gr28 gr30 9 <_core0_exp_start+0x4>
   292e0:	ed f7 81 02 	store32 gr31 gr30 8 <_core0_exp_start+0x3>
   292e4:	ed e7 80 e2 	store32 gr30 gr30 7 <_core0_exp_start+0x2>
   292e8:	ed a7 80 c2 	store32 gr26 gr30 6 <_core0_exp_start+0x1>
   292ec:	ed b7 80 a2 	store32 gr27 gr30 5 <_core0_exp_start>
   292f0:	80 00 88 2d 	call 2a3f8 <cla5_ISR>
   292f4:	80 00 00 00 	nop
   292f8:	80 00 00 00 	nop
   292fc:	80 00 00 00 	nop
}
   29300:	a9 b7 80 a2 	load32 gr27 gr30 5 <_core0_exp_start>
   29304:	a9 a7 80 c2 	load32 gr26 gr30 6 <_core0_exp_start+0x1>
   29308:	a9 e7 80 e2 	load32 gr30 gr30 7 <_core0_exp_start+0x2>
   2930c:	a9 f7 81 02 	load32 gr31 gr30 8 <_core0_exp_start+0x3>
   29310:	a9 c7 81 22 	load32 gr28 gr30 9 <_core0_exp_start+0x4>
   29314:	a9 97 81 42 	load32 gr25 gr30 a <_core0_exp_start+0x5>
   29318:	a9 87 81 62 	load32 gr24 gr30 b <_core0_exp_start+0x6>
   2931c:	a8 f7 81 82 	load32 gr15 gr30 c <_core0_exp_start+0x7>
   29320:	a8 e7 81 a2 	load32 gr14 gr30 d <_core0_exp_start+0x8>
   29324:	a8 d7 81 c2 	load32 gr13 gr30 e <_core0_exp_start+0x9>
   29328:	a8 c7 81 e2 	load32 gr12 gr30 f <_core0_exp_start+0xa>
   2932c:	a8 b7 82 02 	load32 gr11 gr30 10 <_cla_int_entry_group0_1>
   29330:	a8 a7 82 22 	load32 gr10 gr30 11 <_cla_int_entry_group0_1+0x1>
   29334:	a8 97 82 42 	load32 gr9 gr30 12 <_cla_int_entry_group0_1+0x2>
   29338:	a8 87 82 62 	load32 gr8 gr30 13 <_cla_int_entry_group0_1+0x3>
   2933c:	a8 77 82 82 	load32 gr7 gr30 14 <_cla_int_entry_group0_1+0x4>
   29340:	a8 67 82 a2 	load32 gr6 gr30 15 <_cla_int_entry_group0_1+0x5>
   29344:	a8 57 82 c2 	load32 gr5 gr30 16 <_cla_int_entry_group0_1+0x6>
   29348:	a8 47 82 e2 	load32 gr4 gr30 17 <_core1_exp_start>
   2934c:	a8 37 83 02 	load32 gr3 gr30 18 <_core1_exp_start+0x1>
   29350:	a8 27 83 22 	load32 gr2 gr30 19 <_core1_exp_start+0x2>
   29354:	a8 17 83 42 	load32 gr1 gr30 1a <_core1_exp_start+0x3>
   29358:	a8 07 83 62 	load32 gr0 gr30 1b <_core1_exp_start+0x4>
   2935c:	99 e7 83 80 	addi gr30 gr30 70 <_cla_int_entry_group0_7>
   29360:	a8 17 bc e2 	load32 gr1 gr30 ffffffe7 <Flash0CtrlRegs+0xfef5ffe7>
   29364:	80 00 40 0b 	movg2c gr1
   29368:	a8 17 bd 02 	load32 gr1 gr30 ffffffe8 <Flash0CtrlRegs+0xfef5ffe8>
   2936c:	80 00 00 08 	rtt
   29370:	80 00 00 00 	nop
   29374:	80 00 00 00 	nop

00029378 <claint6ISR>:

__interrupt void claint6ISR()
{
   29378:	ec 17 bd 02 	store32 gr1 gr30 ffffffe8 <Flash0CtrlRegs+0xfef5ffe8>
   2937c:	80 00 00 00 	nop
   29380:	80 00 00 00 	nop
   29384:	80 00 00 00 	nop
   29388:	80 00 00 00 	nop
   2938c:	80 00 00 00 	nop
   29390:	80 10 00 0f 	movc2g gr1
   29394:	ec 17 bc e2 	store32 gr1 gr30 ffffffe7 <Flash0CtrlRegs+0xfef5ffe7>
   29398:	99 e7 bc 80 	addi gr30 gr30 ffffff90 <Flash0CtrlRegs+0xfef5ff90>
    cla6_ISR();
   2939c:	ec 07 83 62 	store32 gr0 gr30 1b <_core1_exp_start+0x4>
   293a0:	ec 17 83 42 	store32 gr1 gr30 1a <_core1_exp_start+0x3>
   293a4:	ec 27 83 22 	store32 gr2 gr30 19 <_core1_exp_start+0x2>
   293a8:	ec 37 83 02 	store32 gr3 gr30 18 <_core1_exp_start+0x1>
   293ac:	ec 47 82 e2 	store32 gr4 gr30 17 <_core1_exp_start>
   293b0:	ec 57 82 c2 	store32 gr5 gr30 16 <_cla_int_entry_group0_1+0x6>
   293b4:	ec 67 82 a2 	store32 gr6 gr30 15 <_cla_int_entry_group0_1+0x5>
   293b8:	ec 77 82 82 	store32 gr7 gr30 14 <_cla_int_entry_group0_1+0x4>
   293bc:	ec 87 82 62 	store32 gr8 gr30 13 <_cla_int_entry_group0_1+0x3>
   293c0:	ec 97 82 42 	store32 gr9 gr30 12 <_cla_int_entry_group0_1+0x2>
   293c4:	ec a7 82 22 	store32 gr10 gr30 11 <_cla_int_entry_group0_1+0x1>
   293c8:	ec b7 82 02 	store32 gr11 gr30 10 <_cla_int_entry_group0_1>
   293cc:	ec c7 81 e2 	store32 gr12 gr30 f <_core0_exp_start+0xa>
   293d0:	ec d7 81 c2 	store32 gr13 gr30 e <_core0_exp_start+0x9>
   293d4:	ec e7 81 a2 	store32 gr14 gr30 d <_core0_exp_start+0x8>
   293d8:	ec f7 81 82 	store32 gr15 gr30 c <_core0_exp_start+0x7>
   293dc:	ed 87 81 62 	store32 gr24 gr30 b <_core0_exp_start+0x6>
   293e0:	ed 97 81 42 	store32 gr25 gr30 a <_core0_exp_start+0x5>
   293e4:	ed c7 81 22 	store32 gr28 gr30 9 <_core0_exp_start+0x4>
   293e8:	ed f7 81 02 	store32 gr31 gr30 8 <_core0_exp_start+0x3>
   293ec:	ed e7 80 e2 	store32 gr30 gr30 7 <_core0_exp_start+0x2>
   293f0:	ed a7 80 c2 	store32 gr26 gr30 6 <_core0_exp_start+0x1>
   293f4:	ed b7 80 a2 	store32 gr27 gr30 5 <_core0_exp_start>
   293f8:	80 00 81 ed 	call 2a438 <cla6_ISR>
   293fc:	80 00 00 00 	nop
   29400:	80 00 00 00 	nop
   29404:	80 00 00 00 	nop
}
   29408:	a9 b7 80 a2 	load32 gr27 gr30 5 <_core0_exp_start>
   2940c:	a9 a7 80 c2 	load32 gr26 gr30 6 <_core0_exp_start+0x1>
   29410:	a9 e7 80 e2 	load32 gr30 gr30 7 <_core0_exp_start+0x2>
   29414:	a9 f7 81 02 	load32 gr31 gr30 8 <_core0_exp_start+0x3>
   29418:	a9 c7 81 22 	load32 gr28 gr30 9 <_core0_exp_start+0x4>
   2941c:	a9 97 81 42 	load32 gr25 gr30 a <_core0_exp_start+0x5>
   29420:	a9 87 81 62 	load32 gr24 gr30 b <_core0_exp_start+0x6>
   29424:	a8 f7 81 82 	load32 gr15 gr30 c <_core0_exp_start+0x7>
   29428:	a8 e7 81 a2 	load32 gr14 gr30 d <_core0_exp_start+0x8>
   2942c:	a8 d7 81 c2 	load32 gr13 gr30 e <_core0_exp_start+0x9>
   29430:	a8 c7 81 e2 	load32 gr12 gr30 f <_core0_exp_start+0xa>
   29434:	a8 b7 82 02 	load32 gr11 gr30 10 <_cla_int_entry_group0_1>
   29438:	a8 a7 82 22 	load32 gr10 gr30 11 <_cla_int_entry_group0_1+0x1>
   2943c:	a8 97 82 42 	load32 gr9 gr30 12 <_cla_int_entry_group0_1+0x2>
   29440:	a8 87 82 62 	load32 gr8 gr30 13 <_cla_int_entry_group0_1+0x3>
   29444:	a8 77 82 82 	load32 gr7 gr30 14 <_cla_int_entry_group0_1+0x4>
   29448:	a8 67 82 a2 	load32 gr6 gr30 15 <_cla_int_entry_group0_1+0x5>
   2944c:	a8 57 82 c2 	load32 gr5 gr30 16 <_cla_int_entry_group0_1+0x6>
   29450:	a8 47 82 e2 	load32 gr4 gr30 17 <_core1_exp_start>
   29454:	a8 37 83 02 	load32 gr3 gr30 18 <_core1_exp_start+0x1>
   29458:	a8 27 83 22 	load32 gr2 gr30 19 <_core1_exp_start+0x2>
   2945c:	a8 17 83 42 	load32 gr1 gr30 1a <_core1_exp_start+0x3>
   29460:	a8 07 83 62 	load32 gr0 gr30 1b <_core1_exp_start+0x4>
   29464:	99 e7 83 80 	addi gr30 gr30 70 <_cla_int_entry_group0_7>
   29468:	a8 17 bc e2 	load32 gr1 gr30 ffffffe7 <Flash0CtrlRegs+0xfef5ffe7>
   2946c:	80 00 40 0b 	movg2c gr1
   29470:	a8 17 bd 02 	load32 gr1 gr30 ffffffe8 <Flash0CtrlRegs+0xfef5ffe8>
   29474:	80 00 00 08 	rtt
   29478:	80 00 00 00 	nop
   2947c:	80 00 00 00 	nop

00029480 <claint7ISR>:

__interrupt void claint7ISR()
{
   29480:	ec 17 bd 02 	store32 gr1 gr30 ffffffe8 <Flash0CtrlRegs+0xfef5ffe8>
   29484:	80 00 00 00 	nop
   29488:	80 00 00 00 	nop
   2948c:	80 00 00 00 	nop
   29490:	80 00 00 00 	nop
   29494:	80 00 00 00 	nop
   29498:	80 10 00 0f 	movc2g gr1
   2949c:	ec 17 bc e2 	store32 gr1 gr30 ffffffe7 <Flash0CtrlRegs+0xfef5ffe7>
   294a0:	99 e7 bc 80 	addi gr30 gr30 ffffff90 <Flash0CtrlRegs+0xfef5ff90>
    cla7_ISR();
   294a4:	ec 07 83 62 	store32 gr0 gr30 1b <_core1_exp_start+0x4>
   294a8:	ec 17 83 42 	store32 gr1 gr30 1a <_core1_exp_start+0x3>
   294ac:	ec 27 83 22 	store32 gr2 gr30 19 <_core1_exp_start+0x2>
   294b0:	ec 37 83 02 	store32 gr3 gr30 18 <_core1_exp_start+0x1>
   294b4:	ec 47 82 e2 	store32 gr4 gr30 17 <_core1_exp_start>
   294b8:	ec 57 82 c2 	store32 gr5 gr30 16 <_cla_int_entry_group0_1+0x6>
   294bc:	ec 67 82 a2 	store32 gr6 gr30 15 <_cla_int_entry_group0_1+0x5>
   294c0:	ec 77 82 82 	store32 gr7 gr30 14 <_cla_int_entry_group0_1+0x4>
   294c4:	ec 87 82 62 	store32 gr8 gr30 13 <_cla_int_entry_group0_1+0x3>
   294c8:	ec 97 82 42 	store32 gr9 gr30 12 <_cla_int_entry_group0_1+0x2>
   294cc:	ec a7 82 22 	store32 gr10 gr30 11 <_cla_int_entry_group0_1+0x1>
   294d0:	ec b7 82 02 	store32 gr11 gr30 10 <_cla_int_entry_group0_1>
   294d4:	ec c7 81 e2 	store32 gr12 gr30 f <_core0_exp_start+0xa>
   294d8:	ec d7 81 c2 	store32 gr13 gr30 e <_core0_exp_start+0x9>
   294dc:	ec e7 81 a2 	store32 gr14 gr30 d <_core0_exp_start+0x8>
   294e0:	ec f7 81 82 	store32 gr15 gr30 c <_core0_exp_start+0x7>
   294e4:	ed 87 81 62 	store32 gr24 gr30 b <_core0_exp_start+0x6>
   294e8:	ed 97 81 42 	store32 gr25 gr30 a <_core0_exp_start+0x5>
   294ec:	ed c7 81 22 	store32 gr28 gr30 9 <_core0_exp_start+0x4>
   294f0:	ed f7 81 02 	store32 gr31 gr30 8 <_core0_exp_start+0x3>
   294f4:	ed e7 80 e2 	store32 gr30 gr30 7 <_core0_exp_start+0x2>
   294f8:	ed a7 80 c2 	store32 gr26 gr30 6 <_core0_exp_start+0x1>
   294fc:	ed b7 80 a2 	store32 gr27 gr30 5 <_core0_exp_start>
   29500:	80 00 7b ad 	call 2a478 <cla7_ISR>
   29504:	80 00 00 00 	nop
   29508:	80 00 00 00 	nop
   2950c:	80 00 00 00 	nop
}
   29510:	a9 b7 80 a2 	load32 gr27 gr30 5 <_core0_exp_start>
   29514:	a9 a7 80 c2 	load32 gr26 gr30 6 <_core0_exp_start+0x1>
   29518:	a9 e7 80 e2 	load32 gr30 gr30 7 <_core0_exp_start+0x2>
   2951c:	a9 f7 81 02 	load32 gr31 gr30 8 <_core0_exp_start+0x3>
   29520:	a9 c7 81 22 	load32 gr28 gr30 9 <_core0_exp_start+0x4>
   29524:	a9 97 81 42 	load32 gr25 gr30 a <_core0_exp_start+0x5>
   29528:	a9 87 81 62 	load32 gr24 gr30 b <_core0_exp_start+0x6>
   2952c:	a8 f7 81 82 	load32 gr15 gr30 c <_core0_exp_start+0x7>
   29530:	a8 e7 81 a2 	load32 gr14 gr30 d <_core0_exp_start+0x8>
   29534:	a8 d7 81 c2 	load32 gr13 gr30 e <_core0_exp_start+0x9>
   29538:	a8 c7 81 e2 	load32 gr12 gr30 f <_core0_exp_start+0xa>
   2953c:	a8 b7 82 02 	load32 gr11 gr30 10 <_cla_int_entry_group0_1>
   29540:	a8 a7 82 22 	load32 gr10 gr30 11 <_cla_int_entry_group0_1+0x1>
   29544:	a8 97 82 42 	load32 gr9 gr30 12 <_cla_int_entry_group0_1+0x2>
   29548:	a8 87 82 62 	load32 gr8 gr30 13 <_cla_int_entry_group0_1+0x3>
   2954c:	a8 77 82 82 	load32 gr7 gr30 14 <_cla_int_entry_group0_1+0x4>
   29550:	a8 67 82 a2 	load32 gr6 gr30 15 <_cla_int_entry_group0_1+0x5>
   29554:	a8 57 82 c2 	load32 gr5 gr30 16 <_cla_int_entry_group0_1+0x6>
   29558:	a8 47 82 e2 	load32 gr4 gr30 17 <_core1_exp_start>
   2955c:	a8 37 83 02 	load32 gr3 gr30 18 <_core1_exp_start+0x1>
   29560:	a8 27 83 22 	load32 gr2 gr30 19 <_core1_exp_start+0x2>
   29564:	a8 17 83 42 	load32 gr1 gr30 1a <_core1_exp_start+0x3>
   29568:	a8 07 83 62 	load32 gr0 gr30 1b <_core1_exp_start+0x4>
   2956c:	99 e7 83 80 	addi gr30 gr30 70 <_cla_int_entry_group0_7>
   29570:	a8 17 bc e2 	load32 gr1 gr30 ffffffe7 <Flash0CtrlRegs+0xfef5ffe7>
   29574:	80 00 40 0b 	movg2c gr1
   29578:	a8 17 bd 02 	load32 gr1 gr30 ffffffe8 <Flash0CtrlRegs+0xfef5ffe8>
   2957c:	80 00 00 08 	rtt
   29580:	80 00 00 00 	nop
   29584:	80 00 00 00 	nop

00029588 <claint8ISR>:

__interrupt void claint8ISR()
{
   29588:	ec 17 bd 02 	store32 gr1 gr30 ffffffe8 <Flash0CtrlRegs+0xfef5ffe8>
   2958c:	80 00 00 00 	nop
   29590:	80 00 00 00 	nop
   29594:	80 00 00 00 	nop
   29598:	80 00 00 00 	nop
   2959c:	80 00 00 00 	nop
   295a0:	80 10 00 0f 	movc2g gr1
   295a4:	ec 17 bc e2 	store32 gr1 gr30 ffffffe7 <Flash0CtrlRegs+0xfef5ffe7>
   295a8:	99 e7 bc 80 	addi gr30 gr30 ffffff90 <Flash0CtrlRegs+0xfef5ff90>
    cla8_ISR();
   295ac:	ec 07 83 62 	store32 gr0 gr30 1b <_core1_exp_start+0x4>
   295b0:	ec 17 83 42 	store32 gr1 gr30 1a <_core1_exp_start+0x3>
   295b4:	ec 27 83 22 	store32 gr2 gr30 19 <_core1_exp_start+0x2>
   295b8:	ec 37 83 02 	store32 gr3 gr30 18 <_core1_exp_start+0x1>
   295bc:	ec 47 82 e2 	store32 gr4 gr30 17 <_core1_exp_start>
   295c0:	ec 57 82 c2 	store32 gr5 gr30 16 <_cla_int_entry_group0_1+0x6>
   295c4:	ec 67 82 a2 	store32 gr6 gr30 15 <_cla_int_entry_group0_1+0x5>
   295c8:	ec 77 82 82 	store32 gr7 gr30 14 <_cla_int_entry_group0_1+0x4>
   295cc:	ec 87 82 62 	store32 gr8 gr30 13 <_cla_int_entry_group0_1+0x3>
   295d0:	ec 97 82 42 	store32 gr9 gr30 12 <_cla_int_entry_group0_1+0x2>
   295d4:	ec a7 82 22 	store32 gr10 gr30 11 <_cla_int_entry_group0_1+0x1>
   295d8:	ec b7 82 02 	store32 gr11 gr30 10 <_cla_int_entry_group0_1>
   295dc:	ec c7 81 e2 	store32 gr12 gr30 f <_core0_exp_start+0xa>
   295e0:	ec d7 81 c2 	store32 gr13 gr30 e <_core0_exp_start+0x9>
   295e4:	ec e7 81 a2 	store32 gr14 gr30 d <_core0_exp_start+0x8>
   295e8:	ec f7 81 82 	store32 gr15 gr30 c <_core0_exp_start+0x7>
   295ec:	ed 87 81 62 	store32 gr24 gr30 b <_core0_exp_start+0x6>
   295f0:	ed 97 81 42 	store32 gr25 gr30 a <_core0_exp_start+0x5>
   295f4:	ed c7 81 22 	store32 gr28 gr30 9 <_core0_exp_start+0x4>
   295f8:	ed f7 81 02 	store32 gr31 gr30 8 <_core0_exp_start+0x3>
   295fc:	ed e7 80 e2 	store32 gr30 gr30 7 <_core0_exp_start+0x2>
   29600:	ed a7 80 c2 	store32 gr26 gr30 6 <_core0_exp_start+0x1>
   29604:	ed b7 80 a2 	store32 gr27 gr30 5 <_core0_exp_start>
   29608:	80 00 75 6d 	call 2a4b8 <cla8_ISR>
   2960c:	80 00 00 00 	nop
   29610:	80 00 00 00 	nop
   29614:	80 00 00 00 	nop
}
   29618:	a9 b7 80 a2 	load32 gr27 gr30 5 <_core0_exp_start>
   2961c:	a9 a7 80 c2 	load32 gr26 gr30 6 <_core0_exp_start+0x1>
   29620:	a9 e7 80 e2 	load32 gr30 gr30 7 <_core0_exp_start+0x2>
   29624:	a9 f7 81 02 	load32 gr31 gr30 8 <_core0_exp_start+0x3>
   29628:	a9 c7 81 22 	load32 gr28 gr30 9 <_core0_exp_start+0x4>
   2962c:	a9 97 81 42 	load32 gr25 gr30 a <_core0_exp_start+0x5>
   29630:	a9 87 81 62 	load32 gr24 gr30 b <_core0_exp_start+0x6>
   29634:	a8 f7 81 82 	load32 gr15 gr30 c <_core0_exp_start+0x7>
   29638:	a8 e7 81 a2 	load32 gr14 gr30 d <_core0_exp_start+0x8>
   2963c:	a8 d7 81 c2 	load32 gr13 gr30 e <_core0_exp_start+0x9>
   29640:	a8 c7 81 e2 	load32 gr12 gr30 f <_core0_exp_start+0xa>
   29644:	a8 b7 82 02 	load32 gr11 gr30 10 <_cla_int_entry_group0_1>
   29648:	a8 a7 82 22 	load32 gr10 gr30 11 <_cla_int_entry_group0_1+0x1>
   2964c:	a8 97 82 42 	load32 gr9 gr30 12 <_cla_int_entry_group0_1+0x2>
   29650:	a8 87 82 62 	load32 gr8 gr30 13 <_cla_int_entry_group0_1+0x3>
   29654:	a8 77 82 82 	load32 gr7 gr30 14 <_cla_int_entry_group0_1+0x4>
   29658:	a8 67 82 a2 	load32 gr6 gr30 15 <_cla_int_entry_group0_1+0x5>
   2965c:	a8 57 82 c2 	load32 gr5 gr30 16 <_cla_int_entry_group0_1+0x6>
   29660:	a8 47 82 e2 	load32 gr4 gr30 17 <_core1_exp_start>
   29664:	a8 37 83 02 	load32 gr3 gr30 18 <_core1_exp_start+0x1>
   29668:	a8 27 83 22 	load32 gr2 gr30 19 <_core1_exp_start+0x2>
   2966c:	a8 17 83 42 	load32 gr1 gr30 1a <_core1_exp_start+0x3>
   29670:	a8 07 83 62 	load32 gr0 gr30 1b <_core1_exp_start+0x4>
   29674:	99 e7 83 80 	addi gr30 gr30 70 <_cla_int_entry_group0_7>
   29678:	a8 17 bc e2 	load32 gr1 gr30 ffffffe7 <Flash0CtrlRegs+0xfef5ffe7>
   2967c:	80 00 40 0b 	movg2c gr1
   29680:	a8 17 bd 02 	load32 gr1 gr30 ffffffe8 <Flash0CtrlRegs+0xfef5ffe8>
   29684:	80 00 00 08 	rtt
   29688:	80 00 00 00 	nop
   2968c:	80 00 00 00 	nop

00029690 <Interrupt_defaultHandler>:
//!
//! \return None.
//
//*****************************************************************************
__interrupt void Interrupt_defaultHandler(void)
{
   29690:	ec 17 bf e2 	store32 gr1 gr30 ffffffff <Flash0CtrlRegs+0xfef5ffff>
   29694:	80 00 00 00 	nop
   29698:	80 00 00 00 	nop
   2969c:	80 00 00 00 	nop
   296a0:	80 00 00 00 	nop
   296a4:	80 00 00 00 	nop
   296a8:	80 10 00 0f 	movc2g gr1
   296ac:	ec 17 bf c2 	store32 gr1 gr30 fffffffe <Flash0CtrlRegs+0xfef5fffe>
   296b0:	99 e7 bf c0 	addi gr30 gr30 fffffff8 <Flash0CtrlRegs+0xfef5fff8>
    // Something has gone wrong. An interrupt without a proper registered
    // handler function has occurred. To help you debug the issue, local
    // variable vectID contains the vector ID of the interrupt that occurred.
    //
    ESTOP0;
    for (;;)
   296b4:	83 ff ff e1 	jmp 296b4 <Interrupt_defaultHandler+0x24>
   296b8:	80 00 00 00 	nop
   296bc:	80 00 00 00 	nop

000296c0 <Interrupt_illegalOperationHandler>:
//!
//! \return None.
//
//*****************************************************************************
__interrupt void Interrupt_illegalOperationHandler(void)
{
   296c0:	ec 17 bf e2 	store32 gr1 gr30 ffffffff <Flash0CtrlRegs+0xfef5ffff>
   296c4:	80 00 00 00 	nop
   296c8:	80 00 00 00 	nop
   296cc:	80 00 00 00 	nop
   296d0:	80 00 00 00 	nop
   296d4:	80 00 00 00 	nop
   296d8:	80 10 00 0f 	movc2g gr1
   296dc:	ec 17 bf c2 	store32 gr1 gr30 fffffffe <Flash0CtrlRegs+0xfef5fffe>
   296e0:	99 e7 bf c0 	addi gr30 gr30 fffffff8 <Flash0CtrlRegs+0xfef5fff8>
    //
    // Something has gone wrong.  The CPU has tried to execute an illegal
    // instruction, generating an illegal instruction trap (ITRAP).
    //
    ESTOP0;
    for (;;)
   296e4:	83 ff ff e1 	jmp 296e4 <Interrupt_illegalOperationHandler+0x24>
   296e8:	80 00 00 00 	nop
   296ec:	80 00 00 00 	nop

000296f0 <Interrupt_nmiHandler>:
//!
//! \return None.
//
//*****************************************************************************
__interrupt void Interrupt_nmiHandler(void)
{
   296f0:	ec 17 bf e2 	store32 gr1 gr30 ffffffff <Flash0CtrlRegs+0xfef5ffff>
   296f4:	80 00 00 00 	nop
   296f8:	80 00 00 00 	nop
   296fc:	80 00 00 00 	nop
   29700:	80 00 00 00 	nop
   29704:	80 00 00 00 	nop
   29708:	80 10 00 0f 	movc2g gr1
   2970c:	ec 17 bf c2 	store32 gr1 gr30 fffffffe <Flash0CtrlRegs+0xfef5fffe>
   29710:	99 e7 bf c0 	addi gr30 gr30 fffffff8 <Flash0CtrlRegs+0xfef5fff8>
    // A non-maskable interrupt has occurred, indicating that a hardware error
    // has occurred in the system.  You can use SysCtl_getNMIFlagStatus() to
    // to read the NMIFLG register and determine what caused the NMI.
    //
    ESTOP0;
    for (;;)
   29714:	83 ff ff e1 	jmp 29714 <Interrupt_nmiHandler+0x24>
   29718:	80 00 00 00 	nop
   2971c:	80 00 00 00 	nop

00029720 <init_isrentry_base>:
   29720:	90 01 00 80 	movg2g gr0 gr4
   29724:	80 00 00 04 	ret
   29728:	80 00 00 00 	nop
   2972c:	80 00 00 00 	nop

00029730 <_lb_func_init_bss>:
   29730:	94 20 00 11 	movigh gr2 1 <_cla_int_entry_group0_0+0x1>
   29734:	94 20 4f 05 	movigl gr2 4f0 <.L0 >
   29738:	94 30 00 11 	movigh gr3 1 <_cla_int_entry_group0_0+0x1>
   2973c:	94 30 4f 85 	movigl gr3 4f8 <.L0 +0x8>
   29740:	94 40 00 01 	movigh gr4 0 <_cla_int_entry_group0_0>
   29744:	94 40 00 05 	movigl gr4 0 <_cla_int_entry_group0_0>

00029748 <_lb_assign_0_loop>:
   29748:	90 00 83 00 	eq gr2 gr3
   2974c:	80 00 00 e5 	jc 2976c <_lb_func_init_bss_end>
   29750:	80 00 00 00 	nop
   29754:	80 00 00 00 	nop
   29758:	ec 40 80 00 	store8 gr4 gr2 0 <_cla_int_entry_group0_0>
   2975c:	98 20 80 08 	addi gr2 gr2 1 <_cla_int_entry_group0_0+0x1>
   29760:	83 ff ff 21 	jmp 29748 <_lb_assign_0_loop>
   29764:	80 00 00 00 	nop
   29768:	80 00 00 00 	nop

0002976c <_lb_func_init_bss_end>:
   2976c:	80 00 00 04 	ret
   29770:	80 00 00 00 	nop
   29774:	80 00 00 00 	nop

00029778 <_dsp_call_main>:
   29778:	94 20 07 f1 	movigh gr2 7f <.L0 +0x8>
   2977c:	94 22 10 05 	movigl gr2 2100 <.L0 +0x4>
   29780:	94 35 a5 a9 	moviglz gr3 5a5a <.L0 +0x2c>
   29784:	ec 30 80 01 	store16 gr3 gr2 0 <_cla_int_entry_group0_0>
   29788:	83 ff fd 2d 	call 29730 <_lb_func_init_bss>
   2978c:	80 00 00 00 	nop
   29790:	80 00 00 00 	nop
   29794:	95 e0 00 21 	movigh gr30 2 <_cla_int_entry_group0_0+0x2>
   29798:	95 e7 c0 05 	movigl gr30 7c00 <$line_table_start0+0xed>
   2979c:	80 01 0d ad 	call 2b954 <main>
   297a0:	80 00 00 00 	nop
   297a4:	80 00 00 00 	nop

000297a8 <_main_exit_stay_nop>:
   297a8:	83 ff ff e1 	jmp 297a8 <_main_exit_stay_nop>
   297ac:	80 00 00 00 	nop
   297b0:	80 00 00 00 	nop
   297b4:	80 00 00 00 	nop

000297b8 <qx_precise_delay>:
   297b8:	98 41 3f f8 	addi gr4 gr4 ffffffff <Flash0CtrlRegs+0xfef5ffff>
   297bc:	80 00 00 00 	nop
   297c0:	80 00 00 00 	nop
   297c4:	94 01 00 16 	lei gr4 0 <_cla_int_entry_group0_0>
   297c8:	83 ff ff 69 	jnc 297b8 <qx_precise_delay>
   297cc:	80 00 00 00 	nop
   297d0:	80 00 00 00 	nop
   297d4:	80 00 00 04 	ret
   297d8:	80 00 00 00 	nop
   297dc:	80 00 00 00 	nop

000297e0 <fast_interrupt_initvectortable>:
   297e0:	94 20 00 01 	movigh gr2 0 <_cla_int_entry_group0_0>
   297e4:	94 20 00 05 	movigl gr2 0 <_cla_int_entry_group0_0>
   297e8:	94 30 00 01 	movigh gr3 0 <_cla_int_entry_group0_0>
   297ec:	94 30 40 05 	movigl gr3 400 <Cla1Task6+0x40>

000297f0 <fast_ivecinit_loop>:
   297f0:	84 61 02 00 	add gr6 gr4 gr2
   297f4:	18 20 80 20 ®░	addi gr2 gr2 4 <_cla_int_entry_group0_0+0x4>
   297f8:	ec 51 80 02 ®Ė	store32 gr5 gr6 0 <_cla_int_entry_group0_0>
   297fc:	90 00 83 00 	eq gr2 gr3
   29800:	83 ff ff 69 	jnc 297f0 <fast_ivecinit_loop>
   29804:	80 00 00 00 	nop
   29808:	80 00 00 00 	nop
   2980c:	90 01 00 80 	movg2g gr0 gr4
   29810:	80 00 00 04 	ret
   29814:	80 00 00 00 	nop
   29818:	80 00 00 00 	nop
   2981c:	80 00 00 00 	nop

00029820 <srand>:
   29820:	94 20 00 11 	movigh gr2 1 <_cla_int_entry_group0_0+0x1>
   29824:	94 30 00 09 	moviglz gr3 0 <_cla_int_entry_group0_0>
   29828:	94 20 0c 05 	movigl gr2 c0 <_cla_int_entry_group0_12>
   2982c:	a8 20 80 02 	load32 gr2 gr2 0 <_cla_int_entry_group0_0>
   29830:	ec 30 85 62 	store32 gr3 gr2 2b <.L0 +0x5>
   29834:	ec 40 85 42 	store32 gr4 gr2 2a <.L0 +0x4>
   29838:	80 00 00 04 	ret
   2983c:	80 00 00 00 	nop
   29840:	80 00 00 00 	nop
   29844:	80 00 00 00 	nop
   29848:	80 00 00 00 	nop
   2984c:	80 00 00 00 	nop

00029850 <rand>:
   29850:	94 20 00 11 	movigh gr2 1 <_cla_int_entry_group0_0+0x1>
   29854:	94 20 0c 05 	movigl gr2 c0 <_cla_int_entry_group0_12>
   29858:	94 34 c9 51 	movigh gr3 4c95 <.L0 +0x1>
   2985c:	94 37 f2 d5 	movigl gr3 7f2d <$line_table_start0+0x41a>
   29860:	94 45 85 11 	movigh gr4 5851 <.L0 +0x4>
   29864:	14 4f 42 d5 ®░	movigl gr4 fffff42d <Flash0CtrlRegs+0xfef5f42d>
   29868:	a8 50 80 02 ®Ė	load32 gr5 gr2 0 <_cla_int_entry_group0_0>
   2986c:	04 20 82 06 ®░	xor gr2 gr2 gr2
   29870:	a8 61 45 42 ®Ė	load32 gr6 gr5 2a <.L0 +0x4>
   29874:	04 81 83 1d ®░	mulu64 gr8 gr6 gr3
   29878:	a8 71 45 62 ®Ė	load32 gr7 gr5 2b <.L0 +0x5>
   2987c:	84 81 84 85 	mac32 gr8 gr6 gr4
   29880:	84 41 83 0c 	mul32 gr4 gr6 gr3
   29884:	98 41 00 08 	addi gr4 gr4 1 <_cla_int_entry_group0_0+0x1>
   29888:	84 81 c3 85 	mac32 gr8 gr7 gr3
   2988c:	04 20 82 01 ®░	addc gr2 gr2 gr2
   29890:	ec 41 45 42 ®Ė	store32 gr4 gr5 2a <.L0 +0x4>
   29894:	84 20 88 00 	add gr2 gr2 gr8
   29898:	98 20 80 00 	addi gr2 gr2 0 <_cla_int_entry_group0_0>
   2989c:	ec 21 45 62 	store32 gr2 gr5 2b <.L0 +0x5>
   298a0:	94 20 3e 07 	bclr gr2 ffffffff <Flash0CtrlRegs+0xfef5ffff>
   298a4:	80 00 00 04 	ret
   298a8:	80 00 00 00 	nop
   298ac:	80 00 00 00 	nop

000298b0 <strlen>:
   298b0:	94 50 00 39 	moviglz gr5 3 <_cla_int_entry_group0_0+0x3>
   298b4:	84 21 05 04 	and gr2 gr4 gr5
   298b8:	94 00 80 02 	eqi gr2 0 <_cla_int_entry_group0_0>
   298bc:	90 21 00 80 	movg2g gr2 gr4
   298c0:	80 00 03 05 	jc 29924 <strlen+0x74>
   298c4:	80 00 00 00 	nop
   298c8:	80 00 00 00 	nop
   298cc:	a8 21 00 00 	load8 gr2 gr4 0 <_cla_int_entry_group0_0>
   298d0:	94 00 80 02 	eqi gr2 0 <_cla_int_entry_group0_0>
   298d4:	80 00 06 05 	jc 29998 <strlen+0xe8>
   298d8:	80 00 00 00 	nop
   298dc:	80 00 00 00 	nop
   298e0:	98 21 00 08 	addi gr2 gr4 1 <_cla_int_entry_group0_0+0x1>
   298e4:	90 31 00 80 	movg2g gr3 gr4
   298e8:	98 30 c0 08 	addi gr3 gr3 1 <_cla_int_entry_group0_0+0x1>
   298ec:	84 60 c5 04 	and gr6 gr3 gr5
   298f0:	94 01 80 06 	neqi gr6 0 <_cla_int_entry_group0_0>
   298f4:	80 00 01 69 	jnc 29924 <strlen+0x74>
   298f8:	80 00 00 00 	nop
   298fc:	80 00 00 00 	nop
   29900:	a8 60 80 00 	load8 gr6 gr2 0 <_cla_int_entry_group0_0>
   29904:	98 20 80 08 	addi gr2 gr2 1 <_cla_int_entry_group0_0+0x1>
   29908:	94 01 80 02 	eqi gr6 0 <_cla_int_entry_group0_0>
   2990c:	83 ff fe c9 	jnc 298e8 <strlen+0x38>
   29910:	80 00 00 00 	nop
   29914:	80 00 00 00 	nop
   29918:	80 00 03 61 	jmp 29988 <strlen+0xd8>
   2991c:	80 00 00 00 	nop
   29920:	80 00 00 00 	nop
   29924:	94 50 10 11 	movigh gr5 101 <cla_interrupt_defaulthandler+0x1>
   29928:	98 60 bf f8 	addi gr6 gr2 ffffffff <Flash0CtrlRegs+0xfef5ffff>
   2992c:	94 50 10 05 	movigl gr5 100 <cla_interrupt_defaulthandler>
   29930:	94 78 08 01 	movigh gr7 ffff8080 <Flash0CtrlRegs+0xfef58080>
   29934:	94 78 08 05 	movigl gr7 ffff8080 <Flash0CtrlRegs+0xfef58080>
   29938:	a8 30 80 02 	load32 gr3 gr2 0 <_cla_int_entry_group0_0>
   2993c:	98 20 80 20 	addi gr2 gr2 4 <_cla_int_entry_group0_0+0x4>
   29940:	84 81 43 02 	sub gr8 gr5 gr3
   29944:	84 32 03 05 	or gr3 gr8 gr3
   29948:	84 30 c7 04 	and gr3 gr3 gr7
   2994c:	90 00 c7 00 	eq gr3 gr7
   29950:	90 31 80 80 	movg2g gr3 gr6
   29954:	98 60 c0 20 	addi gr6 gr3 4 <_cla_int_entry_group0_0+0x4>
   29958:	83 ff fe e5 	jc 29938 <strlen+0x88>
   2995c:	80 00 00 00 	nop
   29960:	80 00 00 00 	nop
   29964:	94 5f ff cd 	moviglx gr5 fffffffc <Flash0CtrlRegs+0xfef5fffc>
   29968:	84 60 85 00 	add gr6 gr2 gr5
   2996c:	98 30 c0 08 	addi gr3 gr3 1 <_cla_int_entry_group0_0+0x1>
   29970:	18 51 40 08 ®░	addi gr5 gr5 1 <_cla_int_entry_group0_0+0x1>
   29974:	a8 61 80 00 ®Ė	load8 gr6 gr6 0 <_cla_int_entry_group0_0>
   29978:	94 01 80 06 	neqi gr6 0 <_cla_int_entry_group0_0>
   2997c:	83 ff ff 45 	jc 29968 <strlen+0xb8>
   29980:	80 00 00 00 	nop
   29984:	80 00 00 00 	nop
   29988:	84 20 c4 02 	sub gr2 gr3 gr4
   2998c:	80 00 00 04 	ret
   29990:	80 00 00 00 	nop
   29994:	80 00 00 00 	nop
   29998:	90 31 00 80 	movg2g gr3 gr4
   2999c:	84 20 c4 02 	sub gr2 gr3 gr4
   299a0:	80 00 00 04 	ret
   299a4:	80 00 00 00 	nop
   299a8:	80 00 00 00 	nop
   299ac:	80 00 00 00 	nop

000299b0 <__fixunssfsi>:
   299b0:	94 01 00 0e 	lti gr4 0 <_cla_int_entry_group0_0>
   299b4:	94 20 00 09 	moviglz gr2 0 <_cla_int_entry_group0_0>
   299b8:	80 00 04 65 	jc 29a48 <__fixunssfsi+0x98>
   299bc:	80 00 00 00 	nop
   299c0:	80 00 00 00 	nop
   299c4:	98 31 17 0e 	srli gr3 gr4 17 <_core1_exp_start>
   299c8:	94 50 0f f9 	moviglz gr5 ff <.L0 +0x6>
   299cc:	84 30 c5 04 	and gr3 gr3 gr5
   299d0:	94 00 cf f7 	ltiu gr3 7f <.L0 +0x8>
   299d4:	80 00 03 85 	jc 29a48 <__fixunssfsi+0x98>
   299d8:	80 00 00 00 	nop
   299dc:	80 00 00 00 	nop
   299e0:	98 20 fb 08 	addi gr2 gr3 ffffff61 <Flash0CtrlRegs+0xfef5ff61>
   299e4:	94 5f fe 0d 	moviglx gr5 ffffffe0 <Flash0CtrlRegs+0xfef5ffe0>
   299e8:	90 00 85 0b 	ltu gr2 gr5
   299ec:	80 00 00 c9 	jnc 29a08 <__fixunssfsi+0x58>
   299f0:	80 00 00 00 	nop
   299f4:	80 00 00 00 	nop
   299f8:	94 2f ff fd 	moviglx gr2 ffffffff <Flash0CtrlRegs+0xfef5ffff>
   299fc:	80 00 00 04 	ret
   29a00:	80 00 00 00 	nop
   29a04:	80 00 00 00 	nop
   29a08:	94 20 07 f1 	movigh gr2 7f <.L0 +0x8>
   29a0c:	94 00 d2 b3 	gtiu gr3 95 <.L0 +0x3>
   29a10:	94 2f ff f5 	movigl gr2 ffffffff <Flash0CtrlRegs+0xfef5ffff>
   29a14:	84 21 02 04 	and gr2 gr4 gr2
   29a18:	94 20 2e 03 	bst gr2 fffffff7 <Flash0CtrlRegs+0xfef5fff7>
   29a1c:	80 00 01 05 	jc 29a40 <__fixunssfsi+0x90>
   29a20:	80 00 00 00 	nop
   29a24:	80 00 00 00 	nop
   29a28:	94 40 09 69 	moviglz gr4 96 <.L0 +0x4>
   29a2c:	84 31 03 02 	sub gr3 gr4 gr3
   29a30:	84 20 83 0b 	srl gr2 gr2 gr3
   29a34:	80 00 00 04 	ret
   29a38:	80 00 00 00 	nop
   29a3c:	80 00 00 00 	nop
   29a40:	98 30 fb 50 	addi gr3 gr3 ffffff6a <Flash0CtrlRegs+0xfef5ff6a>
   29a44:	84 20 83 09 	sl gr2 gr2 gr3
   29a48:	80 00 00 04 	ret
   29a4c:	80 00 00 00 	nop
   29a50:	80 00 00 00 	nop

00029a54 <__floatunsisf>:
   29a54:	94 01 00 02 	eqi gr4 0 <_cla_int_entry_group0_0>
   29a58:	80 00 06 05 	jc 29b1c <__floatunsisf+0xc8>
   29a5c:	80 00 00 00 	nop
   29a60:	80 00 00 00 	nop
   29a64:	98 21 01 0e 	srli gr2 gr4 1 <_cla_int_entry_group0_0+0x1>
   29a68:	94 35 55 51 	movigh gr3 5555 <.L0 +0x15>
   29a6c:	84 21 02 05 	or gr2 gr4 gr2
   29a70:	94 35 55 55 	movigl gr3 5555 <.L0 +0x15>
   29a74:	94 53 33 31 	movigh gr5 3333 <.L0 +0x1e>
   29a78:	98 60 82 0e 	srli gr6 gr2 2 <_cla_int_entry_group0_0+0x2>
   29a7c:	94 53 33 35 	movigl gr5 3333 <.L0 +0x1e>
   29a80:	84 20 86 05 	or gr2 gr2 gr6
   29a84:	98 60 84 0e 	srli gr6 gr2 4 <_cla_int_entry_group0_0+0x4>
   29a88:	84 20 86 05 	or gr2 gr2 gr6
   29a8c:	98 60 88 0e 	srli gr6 gr2 8 <_core0_exp_start+0x3>
   29a90:	84 20 86 05 	or gr2 gr2 gr6
   29a94:	98 60 90 0e 	srli gr6 gr2 10 <_cla_int_entry_group0_1>
   29a98:	84 20 86 05 	or gr2 gr2 gr6
   29a9c:	90 20 80 44 	not gr2 gr2
   29aa0:	98 60 81 0e 	srli gr6 gr2 1 <_cla_int_entry_group0_0+0x1>
   29aa4:	84 31 83 04 	and gr3 gr6 gr3
   29aa8:	94 60 01 f9 	moviglz gr6 1f <_core1_exp_start+0x8>
   29aac:	84 20 83 02 	sub gr2 gr2 gr3
   29ab0:	98 30 82 0e 	srli gr3 gr2 2 <_cla_int_entry_group0_0+0x2>
   29ab4:	84 20 85 04 	and gr2 gr2 gr5
   29ab8:	84 30 c5 04 	and gr3 gr3 gr5
   29abc:	94 50 f0 f1 	movigh gr5 f0f <.L0 >
   29ac0:	84 20 83 00 	add gr2 gr2 gr3
   29ac4:	94 50 f0 f5 	movigl gr5 f0f <.L0 >
   29ac8:	98 30 84 0e 	srli gr3 gr2 4 <_cla_int_entry_group0_0+0x4>
   29acc:	84 20 83 00 	add gr2 gr2 gr3
   29ad0:	94 30 10 11 	movigh gr3 101 <cla_interrupt_defaulthandler+0x1>
   29ad4:	94 30 10 15 	movigl gr3 101 <cla_interrupt_defaulthandler+0x1>
   29ad8:	84 20 85 04 	and gr2 gr2 gr5
   29adc:	84 20 83 0c 	mul32 gr2 gr2 gr3
   29ae0:	98 20 98 0e 	srli gr2 gr2 18 <_core1_exp_start+0x1>
   29ae4:	84 30 86 06 	xor gr3 gr2 gr6
   29ae8:	94 00 c2 f3 	gtiu gr3 17 <_core1_exp_start>
   29aec:	80 00 02 25 	jc 29b34 <__floatunsisf+0xe0>
   29af0:	80 00 00 00 	nop
   29af4:	80 00 00 00 	nop
   29af8:	94 50 01 79 	moviglz gr5 17 <_core1_exp_start>
   29afc:	94 60 08 01 	movigh gr6 80 <_cla_int_entry_group0_8>
   29b00:	84 31 43 02 	sub gr3 gr5 gr3
   29b04:	94 60 00 05 	movigl gr6 0 <_cla_int_entry_group0_0>
   29b08:	84 31 03 09 	sl gr3 gr4 gr3
   29b0c:	84 30 c6 06 	xor gr3 gr3 gr6
   29b10:	80 00 03 21 	jmp 29b78 <__floatunsisf+0x124>
   29b14:	80 00 00 00 	nop
   29b18:	80 00 00 00 	nop
   29b1c:	94 20 00 11 	movigh gr2 1 <_cla_int_entry_group0_0+0x1>
   29b20:	94 20 03 85 	movigl gr2 38 <.L0 >
   29b24:	a8 20 80 02 	load32 gr2 gr2 0 <_cla_int_entry_group0_0>
   29b28:	80 00 00 04 	ret
   29b2c:	80 00 00 00 	nop
   29b30:	80 00 00 00 	nop
   29b34:	94 30 00 89 	moviglz gr3 8 <_core0_exp_start+0x3>
   29b38:	94 58 00 01 	movigh gr5 ffff8000 <Flash0CtrlRegs+0xfef58000>
   29b3c:	94 50 00 05 	movigl gr5 0 <_cla_int_entry_group0_0>
   29b40:	94 60 08 01 	movigh gr6 80 <_cla_int_entry_group0_8>
   29b44:	84 30 c2 02 	sub gr3 gr3 gr2
   29b48:	94 60 00 05 	movigl gr6 0 <_cla_int_entry_group0_0>
   29b4c:	84 31 03 0b 	srl gr3 gr4 gr3
   29b50:	84 30 c6 06 	xor gr3 gr3 gr6
   29b54:	98 60 80 c0 	addi gr6 gr2 18 <_core1_exp_start+0x1>
   29b58:	84 41 06 09 	sl gr4 gr4 gr6
   29b5c:	90 01 05 0a 	gtu gr4 gr5
   29b60:	90 60 00 43 	setc gr6
   29b64:	90 01 05 00 	eq gr4 gr5
   29b68:	90 40 00 43 	setc gr4
   29b6c:	84 30 c6 00 	add gr3 gr3 gr6
   29b70:	84 41 03 04 	and gr4 gr4 gr3
   29b74:	84 31 03 00 	add gr3 gr4 gr3
   29b78:	98 20 97 06 	sli gr2 gr2 17 <_core1_exp_start>
   29b7c:	94 44 f0 01 	movigh gr4 4f00 <$line_table_start0+0xd>
   29b80:	94 40 00 05 	movigl gr4 0 <_cla_int_entry_group0_0>
   29b84:	84 20 c2 02 	sub gr2 gr3 gr2
   29b88:	84 20 84 00 	add gr2 gr2 gr4
   29b8c:	80 00 00 04 	ret
   29b90:	80 00 00 00 	nop
   29b94:	80 00 00 00 	nop

00029b98 <__udivsi3>:
   29b98:	94 85 55 51 	movigh gr8 5555 <.L0 +0x15>
   29b9c:	94 20 02 09 	moviglz gr2 20 <_cla_int_entry_group0_2>
   29ba0:	94 01 40 02 	eqi gr5 0 <_cla_int_entry_group0_0>
   29ba4:	94 85 55 55 	movigl gr8 5555 <.L0 +0x15>
   29ba8:	94 73 33 31 	movigh gr7 3333 <.L0 +0x1e>
   29bac:	94 73 33 35 	movigl gr7 3333 <.L0 +0x1e>
   29bb0:	94 30 f0 f1 	movigh gr3 f0f <.L0 >
   29bb4:	94 30 f0 f5 	movigl gr3 f0f <.L0 >
   29bb8:	94 60 10 11 	movigh gr6 101 <cla_interrupt_defaulthandler+0x1>
   29bbc:	94 60 10 15 	movigl gr6 101 <cla_interrupt_defaulthandler+0x1>
   29bc0:	90 90 80 80 	movg2g gr9 gr2
   29bc4:	80 00 03 25 	jc 29c2c <__udivsi3+0x94>
   29bc8:	80 00 00 00 	nop
   29bcc:	80 00 00 00 	nop
   29bd0:	98 91 41 0e 	srli gr9 gr5 1 <_cla_int_entry_group0_0+0x1>
   29bd4:	84 91 49 05 	or gr9 gr5 gr9
   29bd8:	98 a2 42 0e 	srli gr10 gr9 2 <_cla_int_entry_group0_0+0x2>
   29bdc:	84 92 4a 05 	or gr9 gr9 gr10
   29be0:	98 a2 44 0e 	srli gr10 gr9 4 <_cla_int_entry_group0_0+0x4>
   29be4:	84 92 4a 05 	or gr9 gr9 gr10
   29be8:	98 a2 48 0e 	srli gr10 gr9 8 <_core0_exp_start+0x3>
   29bec:	84 92 4a 05 	or gr9 gr9 gr10
   29bf0:	98 a2 50 0e 	srli gr10 gr9 10 <_cla_int_entry_group0_1>
   29bf4:	84 92 4a 05 	or gr9 gr9 gr10
   29bf8:	90 92 40 44 	not gr9 gr9
   29bfc:	98 a2 41 0e 	srli gr10 gr9 1 <_cla_int_entry_group0_0+0x1>
   29c00:	84 a2 88 04 	and gr10 gr10 gr8
   29c04:	84 92 4a 02 	sub gr9 gr9 gr10
   29c08:	84 a2 47 04 	and gr10 gr9 gr7
   29c0c:	98 92 42 0e 	srli gr9 gr9 2 <_cla_int_entry_group0_0+0x2>
   29c10:	84 92 47 04 	and gr9 gr9 gr7
   29c14:	84 92 89 00 	add gr9 gr10 gr9
   29c18:	98 a2 44 0e 	srli gr10 gr9 4 <_cla_int_entry_group0_0+0x4>
   29c1c:	84 92 4a 00 	add gr9 gr9 gr10
   29c20:	84 92 43 04 	and gr9 gr9 gr3
   29c24:	84 92 46 0c 	mul32 gr9 gr9 gr6
   29c28:	98 92 58 0e 	srli gr9 gr9 18 <_core1_exp_start+0x1>
   29c2c:	94 01 00 02 	eqi gr4 0 <_cla_int_entry_group0_0>
   29c30:	80 00 03 25 	jc 29c98 <__udivsi3+0x100>
   29c34:	80 00 00 00 	nop
   29c38:	80 00 00 00 	nop
   29c3c:	98 21 01 0e 	srli gr2 gr4 1 <_cla_int_entry_group0_0+0x1>
   29c40:	84 21 02 05 	or gr2 gr4 gr2
   29c44:	98 a0 82 0e 	srli gr10 gr2 2 <_cla_int_entry_group0_0+0x2>
   29c48:	84 20 8a 05 	or gr2 gr2 gr10
   29c4c:	98 a0 84 0e 	srli gr10 gr2 4 <_cla_int_entry_group0_0+0x4>
   29c50:	84 20 8a 05 	or gr2 gr2 gr10
   29c54:	98 a0 88 0e 	srli gr10 gr2 8 <_core0_exp_start+0x3>
   29c58:	84 20 8a 05 	or gr2 gr2 gr10
   29c5c:	98 a0 90 0e 	srli gr10 gr2 10 <_cla_int_entry_group0_1>
   29c60:	84 20 8a 05 	or gr2 gr2 gr10
   29c64:	90 20 80 44 	not gr2 gr2
   29c68:	98 a0 81 0e 	srli gr10 gr2 1 <_cla_int_entry_group0_0+0x1>
   29c6c:	84 82 88 04 	and gr8 gr10 gr8
   29c70:	84 20 88 02 	sub gr2 gr2 gr8
   29c74:	84 80 87 04 	and gr8 gr2 gr7
   29c78:	98 20 82 0e 	srli gr2 gr2 2 <_cla_int_entry_group0_0+0x2>
   29c7c:	84 20 87 04 	and gr2 gr2 gr7
   29c80:	84 22 02 00 	add gr2 gr8 gr2
   29c84:	98 70 84 0e 	srli gr7 gr2 4 <_cla_int_entry_group0_0+0x4>
   29c88:	84 20 87 00 	add gr2 gr2 gr7
   29c8c:	84 20 83 04 	and gr2 gr2 gr3
   29c90:	84 20 86 0c 	mul32 gr2 gr2 gr6
   29c94:	98 20 98 0e 	srli gr2 gr2 18 <_core1_exp_start+0x1>
   29c98:	84 32 42 02 	sub gr3 gr9 gr2
   29c9c:	94 00 c3 f3 	gtiu gr3 1f <_core1_exp_start+0x8>
   29ca0:	80 00 00 e9 	jnc 29cc0 <__udivsi3+0x128>
   29ca4:	80 00 00 00 	nop
   29ca8:	80 00 00 00 	nop
   29cac:	94 40 00 09 	moviglz gr4 0 <_cla_int_entry_group0_0>
   29cb0:	90 21 00 80 	movg2g gr2 gr4
   29cb4:	80 00 00 04 	ret
   29cb8:	80 00 00 00 	nop
   29cbc:	80 00 00 00 	nop
   29cc0:	94 00 c3 e2 	eqi gr3 1f <_core1_exp_start+0x8>
   29cc4:	80 00 03 85 	jc 29d38 <__udivsi3+0x1a0>
   29cc8:	80 00 00 00 	nop
   29ccc:	80 00 00 00 	nop
   29cd0:	94 60 01 f9 	moviglz gr6 1f <_core1_exp_start+0x8>
   29cd4:	98 70 c0 08 	addi gr7 gr3 1 <_cla_int_entry_group0_0+0x1>
   29cd8:	90 92 40 44 	not gr9 gr9
   29cdc:	84 80 c6 06 	xor gr8 gr3 gr6
   29ce0:	94 30 00 09 	moviglz gr3 0 <_cla_int_entry_group0_0>
   29ce4:	84 61 07 0b 	srl gr6 gr4 gr7
   29ce8:	84 22 42 00 	add gr2 gr9 gr2
   29cec:	84 41 08 09 	sl gr4 gr4 gr8
   29cf0:	98 71 1f 0e 	srli gr7 gr4 1f <_core1_exp_start+0x8>
   29cf4:	98 61 81 06 	sli gr6 gr6 1 <_cla_int_entry_group0_0+0x1>
   29cf8:	98 41 01 06 	sli gr4 gr4 1 <_cla_int_entry_group0_0+0x1>
   29cfc:	84 61 87 05 	or gr6 gr6 gr7
   29d00:	98 20 80 08 	addi gr2 gr2 1 <_cla_int_entry_group0_0+0x1>
   29d04:	84 41 03 05 	or gr4 gr4 gr3
   29d08:	90 71 80 44 	not gr7 gr6
   29d0c:	94 00 80 06 	neqi gr2 0 <_cla_int_entry_group0_0>
   29d10:	84 71 c5 00 	add gr7 gr7 gr5
   29d14:	98 81 df 0a 	srai gr8 gr7 1f <_core1_exp_start+0x8>
   29d18:	98 31 df 0e 	srli gr3 gr7 1f <_core1_exp_start+0x8>
   29d1c:	84 72 05 04 	and gr7 gr8 gr5
   29d20:	84 61 87 02 	sub gr6 gr6 gr7
   29d24:	83 ff fe 45 	jc 29cf0 <__udivsi3+0x158>
   29d28:	80 00 00 00 	nop
   29d2c:	80 00 00 00 	nop
   29d30:	98 21 01 06 	sli gr2 gr4 1 <_cla_int_entry_group0_0+0x1>
   29d34:	84 40 c2 05 	or gr4 gr3 gr2
   29d38:	90 21 00 80 	movg2g gr2 gr4
   29d3c:	80 00 00 04 	ret
   29d40:	80 00 00 00 	nop
   29d44:	80 00 00 00 	nop

00029d48 <__umodsi3>:
   29d48:	94 85 55 51 	movigh gr8 5555 <.L0 +0x15>
   29d4c:	94 20 02 09 	moviglz gr2 20 <_cla_int_entry_group0_2>
   29d50:	94 01 40 02 	eqi gr5 0 <_cla_int_entry_group0_0>
   29d54:	94 85 55 55 	movigl gr8 5555 <.L0 +0x15>
   29d58:	94 73 33 31 	movigh gr7 3333 <.L0 +0x1e>
   29d5c:	94 73 33 35 	movigl gr7 3333 <.L0 +0x1e>
   29d60:	94 30 f0 f1 	movigh gr3 f0f <.L0 >
   29d64:	94 30 f0 f5 	movigl gr3 f0f <.L0 >
   29d68:	94 60 10 11 	movigh gr6 101 <cla_interrupt_defaulthandler+0x1>
   29d6c:	94 60 10 15 	movigl gr6 101 <cla_interrupt_defaulthandler+0x1>
   29d70:	90 90 80 80 	movg2g gr9 gr2
   29d74:	80 00 03 25 	jc 29ddc <__umodsi3+0x94>
   29d78:	80 00 00 00 	nop
   29d7c:	80 00 00 00 	nop
   29d80:	98 91 41 0e 	srli gr9 gr5 1 <_cla_int_entry_group0_0+0x1>
   29d84:	84 91 49 05 	or gr9 gr5 gr9
   29d88:	98 a2 42 0e 	srli gr10 gr9 2 <_cla_int_entry_group0_0+0x2>
   29d8c:	84 92 4a 05 	or gr9 gr9 gr10
   29d90:	98 a2 44 0e 	srli gr10 gr9 4 <_cla_int_entry_group0_0+0x4>
   29d94:	84 92 4a 05 	or gr9 gr9 gr10
   29d98:	98 a2 48 0e 	srli gr10 gr9 8 <_core0_exp_start+0x3>
   29d9c:	84 92 4a 05 	or gr9 gr9 gr10
   29da0:	98 a2 50 0e 	srli gr10 gr9 10 <_cla_int_entry_group0_1>
   29da4:	84 92 4a 05 	or gr9 gr9 gr10
   29da8:	90 92 40 44 	not gr9 gr9
   29dac:	98 a2 41 0e 	srli gr10 gr9 1 <_cla_int_entry_group0_0+0x1>
   29db0:	84 a2 88 04 	and gr10 gr10 gr8
   29db4:	84 92 4a 02 	sub gr9 gr9 gr10
   29db8:	84 a2 47 04 	and gr10 gr9 gr7
   29dbc:	98 92 42 0e 	srli gr9 gr9 2 <_cla_int_entry_group0_0+0x2>
   29dc0:	84 92 47 04 	and gr9 gr9 gr7
   29dc4:	84 92 89 00 	add gr9 gr10 gr9
   29dc8:	98 a2 44 0e 	srli gr10 gr9 4 <_cla_int_entry_group0_0+0x4>
   29dcc:	84 92 4a 00 	add gr9 gr9 gr10
   29dd0:	84 92 43 04 	and gr9 gr9 gr3
   29dd4:	84 92 46 0c 	mul32 gr9 gr9 gr6
   29dd8:	98 92 58 0e 	srli gr9 gr9 18 <_core1_exp_start+0x1>
   29ddc:	94 01 00 02 	eqi gr4 0 <_cla_int_entry_group0_0>
   29de0:	80 00 03 25 	jc 29e48 <__umodsi3+0x100>
   29de4:	80 00 00 00 	nop
   29de8:	80 00 00 00 	nop
   29dec:	98 21 01 0e 	srli gr2 gr4 1 <_cla_int_entry_group0_0+0x1>
   29df0:	84 21 02 05 	or gr2 gr4 gr2
   29df4:	98 a0 82 0e 	srli gr10 gr2 2 <_cla_int_entry_group0_0+0x2>
   29df8:	84 20 8a 05 	or gr2 gr2 gr10
   29dfc:	98 a0 84 0e 	srli gr10 gr2 4 <_cla_int_entry_group0_0+0x4>
   29e00:	84 20 8a 05 	or gr2 gr2 gr10
   29e04:	98 a0 88 0e 	srli gr10 gr2 8 <_core0_exp_start+0x3>
   29e08:	84 20 8a 05 	or gr2 gr2 gr10
   29e0c:	98 a0 90 0e 	srli gr10 gr2 10 <_cla_int_entry_group0_1>
   29e10:	84 20 8a 05 	or gr2 gr2 gr10
   29e14:	90 20 80 44 	not gr2 gr2
   29e18:	98 a0 81 0e 	srli gr10 gr2 1 <_cla_int_entry_group0_0+0x1>
   29e1c:	84 82 88 04 	and gr8 gr10 gr8
   29e20:	84 20 88 02 	sub gr2 gr2 gr8
   29e24:	84 80 87 04 	and gr8 gr2 gr7
   29e28:	98 20 82 0e 	srli gr2 gr2 2 <_cla_int_entry_group0_0+0x2>
   29e2c:	84 20 87 04 	and gr2 gr2 gr7
   29e30:	84 22 02 00 	add gr2 gr8 gr2
   29e34:	98 70 84 0e 	srli gr7 gr2 4 <_cla_int_entry_group0_0+0x4>
   29e38:	84 20 87 00 	add gr2 gr2 gr7
   29e3c:	84 20 83 04 	and gr2 gr2 gr3
   29e40:	84 20 86 0c 	mul32 gr2 gr2 gr6
   29e44:	98 20 98 0e 	srli gr2 gr2 18 <_core1_exp_start+0x1>
   29e48:	84 32 42 02 	sub gr3 gr9 gr2
   29e4c:	94 00 c3 f3 	gtiu gr3 1f <_core1_exp_start+0x8>
   29e50:	80 00 04 85 	jc 29ee4 <__umodsi3+0x19c>
   29e54:	80 00 00 00 	nop
   29e58:	80 00 00 00 	nop
   29e5c:	94 00 c3 e2 	eqi gr3 1f <_core1_exp_start+0x8>
   29e60:	80 00 00 e9 	jnc 29e80 <__umodsi3+0x138>
   29e64:	80 00 00 00 	nop
   29e68:	80 00 00 00 	nop
   29e6c:	94 40 00 09 	moviglz gr4 0 <_cla_int_entry_group0_0>
   29e70:	90 21 00 80 	movg2g gr2 gr4
   29e74:	80 00 00 04 	ret
   29e78:	80 00 00 00 	nop
   29e7c:	80 00 00 00 	nop
   29e80:	98 60 c0 08 	addi gr6 gr3 1 <_cla_int_entry_group0_0+0x1>
   29e84:	94 70 01 f9 	moviglz gr7 1f <_core1_exp_start+0x8>
   29e88:	84 81 06 0b 	srl gr8 gr4 gr6
   29e8c:	84 60 c7 06 	xor gr6 gr3 gr7
   29e90:	90 72 40 44 	not gr7 gr9
   29e94:	94 30 00 09 	moviglz gr3 0 <_cla_int_entry_group0_0>
   29e98:	84 21 c2 00 	add gr2 gr7 gr2
   29e9c:	84 61 06 09 	sl gr6 gr4 gr6
   29ea0:	90 42 00 80 	movg2g gr4 gr8
   29ea4:	98 71 9f 0e 	srli gr7 gr6 1f <_core1_exp_start+0x8>
   29ea8:	98 41 01 06 	sli gr4 gr4 1 <_cla_int_entry_group0_0+0x1>
   29eac:	98 61 81 06 	sli gr6 gr6 1 <_cla_int_entry_group0_0+0x1>
   29eb0:	84 41 07 05 	or gr4 gr4 gr7
   29eb4:	98 20 80 08 	addi gr2 gr2 1 <_cla_int_entry_group0_0+0x1>
   29eb8:	84 61 83 05 	or gr6 gr6 gr3
   29ebc:	90 71 00 44 	not gr7 gr4
   29ec0:	94 00 80 06 	neqi gr2 0 <_cla_int_entry_group0_0>
   29ec4:	84 71 c5 00 	add gr7 gr7 gr5
   29ec8:	98 81 df 0a 	srai gr8 gr7 1f <_core1_exp_start+0x8>
   29ecc:	98 31 df 0e 	srli gr3 gr7 1f <_core1_exp_start+0x8>
   29ed0:	84 72 05 04 	and gr7 gr8 gr5
   29ed4:	84 41 07 02 	sub gr4 gr4 gr7
   29ed8:	83 ff fe 45 	jc 29ea4 <__umodsi3+0x15c>
   29edc:	80 00 00 00 	nop
   29ee0:	80 00 00 00 	nop
   29ee4:	90 21 00 80 	movg2g gr2 gr4
   29ee8:	80 00 00 04 	ret
   29eec:	80 00 00 00 	nop
   29ef0:	80 00 00 00 	nop

00029ef4 <bgtask_interrupt>:
__clatask void Cla1Task6(void);
__clatask void Cla1Task7(void);
__attribute__((clatask("background"))) void Cla1Task8(void);

void bgtask_interrupt(u32 base)
{
   29ef4:	99 e7 bf 00 	addi gr30 gr30 ffffffe0 <Flash0CtrlRegs+0xfef5ffe0>
   29ef8:	ed f7 80 e2 	store32 gr31 gr30 7 <_core0_exp_start+0x2>
   29efc:	ed 37 80 c2 	store32 gr19 gr30 6 <_core0_exp_start+0x1>
   29f00:	ed 27 80 a2 	store32 gr18 gr30 5 <_core0_exp_start>
   29f04:	ed 17 80 82 	store32 gr17 gr30 4 <_cla_int_entry_group0_0+0x4>
   29f08:	ed 07 80 62 	store32 gr16 gr30 3 <_cla_int_entry_group0_0+0x3>
   29f0c:	91 01 00 80 	movg2g gr16 gr4
//    Õ£░ÕØĆµśĀÕ░ä
    CLA_mapTaskVector(base, CLA_MVECT_1, (uint32_t)(&Cla1Task1));
   29f10:	94 60 00 01 	movigh gr6 0 <_cla_int_entry_group0_0>
   29f14:	94 60 10 c5 	movigl gr6 10c <Cla1Task1>
   29f18:	95 10 00 09 	moviglz gr17 0 <_cla_int_entry_group0_0>
   29f1c:	90 54 40 80 	movg2g gr5 gr17
   29f20:	80 00 15 8d 	call 2a1d4 <CLA_mapTaskVector>
   29f24:	80 00 00 00 	nop
   29f28:	80 00 00 00 	nop
   29f2c:	80 00 00 00 	nop
    CLA_mapTaskVector(base, CLA_MVECT_2, (uint32_t)(&Cla1Task2));
   29f30:	94 60 00 01 	movigh gr6 0 <_cla_int_entry_group0_0>
   29f34:	94 60 19 05 	movigl gr6 190 <Cla1Task2>
   29f38:	95 20 00 49 	moviglz gr18 4 <_cla_int_entry_group0_0+0x4>
   29f3c:	90 44 00 80 	movg2g gr4 gr16
   29f40:	90 54 80 80 	movg2g gr5 gr18
   29f44:	80 00 14 6d 	call 2a1d4 <CLA_mapTaskVector>
   29f48:	80 00 00 00 	nop
   29f4c:	80 00 00 00 	nop
   29f50:	80 00 00 00 	nop
    CLA_mapTaskVector(base, CLA_MVECT_3, (uint32_t)(&Cla1Task3));
   29f54:	94 60 00 01 	movigh gr6 0 <_cla_int_entry_group0_0>
   29f58:	94 60 22 05 	movigl gr6 220 <Cla1Task3>
   29f5c:	94 50 00 89 	moviglz gr5 8 <_core0_exp_start+0x3>
   29f60:	90 44 00 80 	movg2g gr4 gr16
   29f64:	80 00 13 6d 	call 2a1d4 <CLA_mapTaskVector>
   29f68:	80 00 00 00 	nop
   29f6c:	80 00 00 00 	nop
   29f70:	80 00 00 00 	nop
    CLA_mapTaskVector(base, CLA_MVECT_4, (uint32_t)(&Cla1Task4));
   29f74:	94 60 00 01 	movigh gr6 0 <_cla_int_entry_group0_0>
   29f78:	94 60 2b 05 	movigl gr6 2b0 <Cla1Task4>
   29f7c:	94 50 00 c9 	moviglz gr5 c <_core0_exp_start+0x7>
   29f80:	90 44 00 80 	movg2g gr4 gr16
   29f84:	80 00 12 6d 	call 2a1d4 <CLA_mapTaskVector>
   29f88:	80 00 00 00 	nop
   29f8c:	80 00 00 00 	nop
   29f90:	80 00 00 00 	nop
    CLA_mapTaskVector(base, CLA_MVECT_5, (uint32_t)(&Cla1Task5));
   29f94:	94 60 00 01 	movigh gr6 0 <_cla_int_entry_group0_0>
   29f98:	94 60 34 05 	movigl gr6 340 <Cla1Task5>
   29f9c:	94 50 01 09 	moviglz gr5 10 <_cla_int_entry_group0_1>
   29fa0:	90 44 00 80 	movg2g gr4 gr16
   29fa4:	80 00 11 6d 	call 2a1d4 <CLA_mapTaskVector>
   29fa8:	80 00 00 00 	nop
   29fac:	80 00 00 00 	nop
   29fb0:	80 00 00 00 	nop
    CLA_mapTaskVector(base, CLA_MVECT_6, (uint32_t)(&Cla1Task6));
   29fb4:	94 60 00 01 	movigh gr6 0 <_cla_int_entry_group0_0>
   29fb8:	94 60 3c 05 	movigl gr6 3c0 <Cla1Task6>
   29fbc:	94 50 01 49 	moviglz gr5 14 <_cla_int_entry_group0_1+0x4>
   29fc0:	90 44 00 80 	movg2g gr4 gr16
   29fc4:	80 00 10 6d 	call 2a1d4 <CLA_mapTaskVector>
   29fc8:	80 00 00 00 	nop
   29fcc:	80 00 00 00 	nop
   29fd0:	80 00 00 00 	nop
    CLA_mapTaskVector(base, CLA_MVECT_7, (uint32_t)(&Cla1Task7));
   29fd4:	94 60 00 01 	movigh gr6 0 <_cla_int_entry_group0_0>
   29fd8:	94 60 44 c5 	movigl gr6 44c <Cla1Task7>
   29fdc:	94 50 01 89 	moviglz gr5 18 <_core1_exp_start+0x1>
   29fe0:	90 44 00 80 	movg2g gr4 gr16
   29fe4:	80 00 0f 6d 	call 2a1d4 <CLA_mapTaskVector>
   29fe8:	80 00 00 00 	nop
   29fec:	80 00 00 00 	nop
   29ff0:	80 00 00 00 	nop
    CLA_mapTaskVector(base, CLA_MVECT_8, (uint32_t)(&Cla1Task8));
   29ff4:	95 30 00 01 	movigh gr19 0 <_cla_int_entry_group0_0>
   29ff8:	95 30 4d 85 	movigl gr19 4d8 <Cla1Task8>
   29ffc:	94 50 01 c9 	moviglz gr5 1c <_core1_exp_start+0x5>
   2a000:	90 44 00 80 	movg2g gr4 gr16
   2a004:	90 64 c0 80 	movg2g gr6 gr19
   2a008:	80 00 0e 4d 	call 2a1d4 <CLA_mapTaskVector>
   2a00c:	80 00 00 00 	nop
   2a010:	80 00 00 00 	nop
   2a014:	80 00 00 00 	nop
    CLA_enableIACK(base);
   2a018:	90 44 00 80 	movg2g gr4 gr16
   2a01c:	80 00 0e ed 	call 2a1fc <CLA_enableIACK>
   2a020:	80 00 00 00 	nop
   2a024:	80 00 00 00 	nop
   2a028:	80 00 00 00 	nop

    CLA_setTriggerSource(CLA_TASK_1, CLA_TRIGGER_SOFTWARE);
   2a02c:	90 44 40 80 	movg2g gr4 gr17
   2a030:	90 54 40 80 	movg2g gr5 gr17
   2a034:	80 00 80 cd 	call 2b050 <CLA_setTriggerSource>
   2a038:	80 00 00 00 	nop
   2a03c:	80 00 00 00 	nop
   2a040:	80 00 00 00 	nop
   2a044:	94 40 00 19 	moviglz gr4 1 <_cla_int_entry_group0_0+0x1>
    CLA_setTriggerSource(CLA_TASK_2, CLA_TRIGGER_SOFTWARE);
   2a048:	90 54 40 80 	movg2g gr5 gr17
   2a04c:	80 00 80 0d 	call 2b050 <CLA_setTriggerSource>
   2a050:	80 00 00 00 	nop
   2a054:	80 00 00 00 	nop
   2a058:	80 00 00 00 	nop
   2a05c:	94 40 00 29 	moviglz gr4 2 <_cla_int_entry_group0_0+0x2>
    CLA_setTriggerSource(CLA_TASK_3, CLA_TRIGGER_SOFTWARE);
   2a060:	90 54 40 80 	movg2g gr5 gr17
   2a064:	80 00 7f 4d 	call 2b050 <CLA_setTriggerSource>
   2a068:	80 00 00 00 	nop
   2a06c:	80 00 00 00 	nop
   2a070:	80 00 00 00 	nop
   2a074:	94 40 00 39 	moviglz gr4 3 <_cla_int_entry_group0_0+0x3>
    CLA_setTriggerSource(CLA_TASK_4, CLA_TRIGGER_SOFTWARE);
   2a078:	90 54 40 80 	movg2g gr5 gr17
   2a07c:	80 00 7e 8d 	call 2b050 <CLA_setTriggerSource>
   2a080:	80 00 00 00 	nop
   2a084:	80 00 00 00 	nop
   2a088:	80 00 00 00 	nop
    CLA_setTriggerSource(CLA_TASK_5, CLA_TRIGGER_SOFTWARE);
   2a08c:	90 44 80 80 	movg2g gr4 gr18
   2a090:	90 54 40 80 	movg2g gr5 gr17
   2a094:	80 00 7d cd 	call 2b050 <CLA_setTriggerSource>
   2a098:	80 00 00 00 	nop
   2a09c:	80 00 00 00 	nop
   2a0a0:	80 00 00 00 	nop
   2a0a4:	94 40 00 59 	moviglz gr4 5 <_core0_exp_start>
    CLA_setTriggerSource(CLA_TASK_6, CLA_TRIGGER_SOFTWARE);
   2a0a8:	90 54 40 80 	movg2g gr5 gr17
   2a0ac:	80 00 7d 0d 	call 2b050 <CLA_setTriggerSource>
   2a0b0:	80 00 00 00 	nop
   2a0b4:	80 00 00 00 	nop
   2a0b8:	80 00 00 00 	nop
   2a0bc:	94 40 00 69 	moviglz gr4 6 <_core0_exp_start+0x1>
    CLA_setTriggerSource(CLA_TASK_7, CLA_TRIGGER_SOFTWARE);
   2a0c0:	90 54 40 80 	movg2g gr5 gr17
   2a0c4:	80 00 7c 4d 	call 2b050 <CLA_setTriggerSource>
   2a0c8:	80 00 00 00 	nop
   2a0cc:	80 00 00 00 	nop
   2a0d0:	80 00 00 00 	nop
   2a0d4:	94 50 0f f9 	moviglz gr5 ff <.L0 +0x6>
    CLA_enableTasks(base, 0xff); //enalble all task
   2a0d8:	90 44 00 80 	movg2g gr4 gr16
   2a0dc:	80 00 0a 0d 	call 2a220 <CLA_enableTasks>
   2a0e0:	80 00 00 00 	nop
   2a0e4:	80 00 00 00 	nop
   2a0e8:	80 00 00 00 	nop
    HWREG(base + CLA_O_MVECTBGRND) = (uint32_t)(&Cla1Task8); // bg addr
   2a0ec:	14 28 00 09 ®░	moviglz gr2 ffff8000 <Flash0CtrlRegs+0xfef58000>
   2a0f0:	ed 34 01 a2 ®Ė	store32 gr19 gr16 d <_core0_exp_start+0x8>
    HWREG(base + CLA_O_MCTLBGRND) = 0x8000; // BGEN

    puts("bg st");
   2a0f4:	94 40 00 11 	movigh gr4 1 <_cla_int_entry_group0_0+0x1>
   2a0f8:	14 40 03 15 ®░	movigl gr4 31 <_cla_int_entry_group0_3+0x1>
   2a0fc:	ec 24 01 82 ®Ė	store32 gr2 gr16 c <_core0_exp_start+0x7>
   2a100:	80 00 6d 2d 	call 2aea8 <puts>
   2a104:	80 00 00 00 	nop
   2a108:	80 00 00 00 	nop
   2a10c:	80 00 00 00 	nop
   2a110:	94 28 00 19 	moviglz gr2 ffff8001 <Flash0CtrlRegs+0xfef58001>
    HWREG(base + CLA_O_MCTLBGRND) = 0x8001; // BGEN = 1 then bgstart
   2a114:	ec 24 01 82 	store32 gr2 gr16 c <_core0_exp_start+0x7>

0002a118 <.L0 >:

//    puts("1");
    for (int i = 0; i <= 10; i ++ ){ // µ£ēÕćĀµ¼Īõ╗╗ÕŖĪÕĄīÕźŚ’╝īķ£ĆĶ”üÕ£©ĶāīµÖ»õ╗╗ÕŖĪµē¦ĶĪīĶ┐ćń©ŗõĖŁ
   2a118:	94 04 41 4a 	gti gr17 a <_core0_exp_start+0x5>
   2a11c:	80 00 03 25 	jc 2a184 <.L0 >
   2a120:	80 00 00 00 	nop
   2a124:	80 00 00 00 	nop

0002a128 <.L0 >:
        int delay = 30 + rand() % (40 - 30 + 1);  // 30..40 ķÜÅµ£║Õ╗ČĶ┐¤ÕćĀõĖ¬Õæ©µ£¤
   2a128:	83 ff b9 2d 	call 29850 <rand>
   2a12c:	80 00 00 00 	nop
   2a130:	80 00 00 00 	nop
   2a134:	80 00 00 00 	nop
   2a138:	94 32 e8 b1 	movigh gr3 2e8b <.L0 +0x1a>
   2a13c:	94 3a 2e 95 	movigl gr3 ffffa2e9 <Flash0CtrlRegs+0xfef5a2e9>
   2a140:	94 40 00 b9 	moviglz gr4 b <_core0_exp_start+0x6>
   2a144:	84 30 83 0e 	mul64 gr3 gr2 gr3
   2a148:	98 50 df 0e 	srli gr5 gr3 1f <_core1_exp_start+0x8>
   2a14c:	98 30 c1 0a 	srai gr3 gr3 1 <_cla_int_entry_group0_0+0x1>
   2a150:	84 30 c5 00 	add gr3 gr3 gr5
   2a154:	84 30 c4 0c 	mul32 gr3 gr3 gr4
   2a158:	84 20 83 02 	sub gr2 gr2 gr3
   2a15c:	98 40 80 f0 	addi gr4 gr2 1e <_core1_exp_start+0x7>
        qx_precise_delay(delay);
   2a160:	83 ff b2 ad 	call 297b8 <qx_precise_delay>
   2a164:	80 00 00 00 	nop
   2a168:	80 00 00 00 	nop
   2a16c:	80 00 00 00 	nop
        __asm("iack 0x1||\n"); // Ķ¦”ÕÅæõ╗╗ÕŖĪ1’╝īõ╗╗ÕŖĪÕĄīÕźŚÕ╝ĆÕ¦ŗ
   2a170:	80 00 01 1c 	iack 1 <_cla_int_entry_group0_0+0x1>

0002a174 <.L0 >:

    puts("bg st");
    HWREG(base + CLA_O_MCTLBGRND) = 0x8001; // BGEN = 1 then bgstart

//    puts("1");
    for (int i = 0; i <= 10; i ++ ){ // µ£ēÕćĀµ¼Īõ╗╗ÕŖĪÕĄīÕźŚ’╝īķ£ĆĶ”üÕ£©ĶāīµÖ»õ╗╗ÕŖĪµē¦ĶĪīĶ┐ćń©ŗõĖŁ
   2a174:	99 14 40 08 	addi gr17 gr17 1 <_cla_int_entry_group0_0+0x1>
   2a178:	83 ff fc e1 	jmp 2a118 <.L0 >
   2a17c:	80 00 00 00 	nop
   2a180:	80 00 00 00 	nop

0002a184 <.L0 >:
        int delay = 30 + rand() % (40 - 30 + 1);  // 30..40 ķÜÅµ£║Õ╗ČĶ┐¤ÕćĀõĖ¬Õæ©µ£¤
        qx_precise_delay(delay);
        __asm("iack 0x1||\n"); // Ķ¦”ÕÅæõ╗╗ÕŖĪ1’╝īõ╗╗ÕŖĪÕĄīÕźŚÕ╝ĆÕ¦ŗ
    }
    puts("wait");
   2a184:	94 40 00 11 	movigh gr4 1 <_cla_int_entry_group0_0+0x1>
   2a188:	94 40 01 b5 	movigl gr4 1b <_core1_exp_start+0x4>
   2a18c:	80 00 68 cd 	call 2aea8 <puts>
   2a190:	80 00 00 00 	nop
   2a194:	80 00 00 00 	nop
   2a198:	80 00 00 00 	nop
    while (HWREG(base + CLA_O_MIRUN) != 0 ){}; // ńŁēÕŠģµēĆµ£ēõ╗╗ÕŖĪń╗ōµØ¤
   2a19c:	a8 24 02 82 	load32 gr2 gr16 14 <_cla_int_entry_group0_1+0x4>
   2a1a0:	94 00 80 06 	neqi gr2 0 <_cla_int_entry_group0_0>
   2a1a4:	83 ff ff a5 	jc 2a19c <.L0 +0x18>
   2a1a8:	80 00 00 00 	nop
   2a1ac:	80 00 00 00 	nop

}
   2a1b0:	a9 07 80 62 	load32 gr16 gr30 3 <_cla_int_entry_group0_0+0x3>
   2a1b4:	a9 17 80 82 	load32 gr17 gr30 4 <_cla_int_entry_group0_0+0x4>
   2a1b8:	a9 27 80 a2 	load32 gr18 gr30 5 <_core0_exp_start>
   2a1bc:	a9 37 80 c2 	load32 gr19 gr30 6 <_core0_exp_start+0x1>
   2a1c0:	a9 f7 80 e2 	load32 gr31 gr30 7 <_core0_exp_start+0x2>
   2a1c4:	99 e7 81 00 	addi gr30 gr30 20 <_cla_int_entry_group0_2>
   2a1c8:	80 00 00 04 	ret
   2a1cc:	80 00 00 00 	nop
   2a1d0:	80 00 00 00 	nop

0002a1d4 <CLA_mapTaskVector>:
//! \return None.
//
//*****************************************************************************
static inline void CLA_mapTaskVector(
    uint32_t base, CLA_MVECTNumber claIntVect, uint32_t claTaskAddr)
{
   2a1d4:	80 00 00 00 	nop
    ASSERT(CLA_isBaseValid(base));

    //
    // Modify protected register
    //
    EALLOW;
   2a1d8:	80 00 00 10 	eallow
   2a1dc:	94 2f ff f9 	moviglz gr2 ffffffff <Flash0CtrlRegs+0xfef5ffff>

    HWREG(base + (uint16_t)claIntVect) = claTaskAddr;
   2a1e0:	84 21 42 04 	and gr2 gr5 gr2
   2a1e4:	84 21 02 00 	add gr2 gr4 gr2
   2a1e8:	ec 60 80 02 	store32 gr6 gr2 0 <_cla_int_entry_group0_0>

    EDIS;
   2a1ec:	80 00 00 14 	edis
}
   2a1f0:	80 00 00 04 	ret
   2a1f4:	80 00 00 00 	nop
   2a1f8:	80 00 00 00 	nop

0002a1fc <CLA_enableIACK>:
//!
//! \return None.
//
//*****************************************************************************
static inline void CLA_enableIACK(uint32_t base)
{
   2a1fc:	80 00 00 00 	nop
    ASSERT(CLA_isBaseValid(base));

    //
    // Modify protected register
    //
    EALLOW;
   2a200:	80 00 00 10 	eallow

    //
    // Enable the main CPU to use the IACK #16bit instruction
    //
    HWREGH(base + CLA_O_MCTL) |= CLA_MCTL_IACKE;
   2a204:	a8 21 02 01 	load16 gr2 gr4 10 <_cla_int_entry_group0_1>
   2a208:	94 20 04 03 	bst gr2 2 <_cla_int_entry_group0_0+0x2>
   2a20c:	ec 21 02 01 	store16 gr2 gr4 10 <_cla_int_entry_group0_1>

    EDIS;
   2a210:	80 00 00 14 	edis
}
   2a214:	80 00 00 04 	ret
   2a218:	80 00 00 00 	nop
   2a21c:	80 00 00 00 	nop

0002a220 <CLA_enableTasks>:
//!
//! \return None.
//
//*****************************************************************************
static inline void CLA_enableTasks(uint32_t base, uint16_t taskFlags)
{
   2a220:	80 00 00 00 	nop
    ASSERT(CLA_isBaseValid(base));

    //
    // Modify protected register
    //
    EALLOW;
   2a224:	80 00 00 10 	eallow

    //
    // Enable CLA task
    //
    HWREG(base + CLA_O_MIER) |= taskFlags;
   2a228:	a8 21 02 62 	load32 gr2 gr4 13 <_cla_int_entry_group0_1+0x3>
   2a22c:	84 20 85 05 	or gr2 gr2 gr5
   2a230:	ec 21 02 62 	store32 gr2 gr4 13 <_cla_int_entry_group0_1+0x3>

}
   2a234:	80 00 00 04 	ret
   2a238:	80 00 00 00 	nop
   2a23c:	80 00 00 00 	nop

0002a240 <tests_core0>:
#ifdef __CORE1__
void tests_core1()
#else
void tests_core0()
#endif
{
   2a240:	99 e7 bf 80 	addi gr30 gr30 fffffff0 <Flash0CtrlRegs+0xfef5fff0>
   2a244:	ed f7 80 62 	store32 gr31 gr30 3 <_cla_int_entry_group0_0+0x3>
   2a248:	94 40 00 09 	moviglz gr4 0 <_cla_int_entry_group0_0>
    SysCtl_enablePeripheral(SYSCTL_PERIPH_CLK_CLA1);
   2a24c:	80 00 02 4d 	call 2a298 <SysCtl_enablePeripheral>
   2a250:	80 00 00 00 	nop
   2a254:	80 00 00 00 	nop
   2a258:	80 00 00 00 	nop
   2a25c:	94 20 10 71 	movigh gr2 107 <cla_interrupt_defaulthandler+0x7>
   2a260:	94 20 11 85 	movigl gr2 118 <.L0 +0x8>
   2a264:	94 30 00 19 	moviglz gr3 1 <_cla_int_entry_group0_0+0x1>
   2a268:	94 40 07 f1 	movigh gr4 7f <.L0 +0x8>
//    cla_interrupt_init();
    HWREG(0x01070000 + 0x118) = 0x1; // ÕłåķģŹclaÕåģÕŁśń®║ķŚ┤
   2a26c:	14 41 c0 05 ®░	movigl gr4 1c00 <.L0 +0x1d>
   2a270:	ec 30 80 02 ®Ė	store32 gr3 gr2 0 <_cla_int_entry_group0_0>
    bgtask_interrupt(CLA1_BASE);
   2a274:	83 ff e3 ed 	call 29ef4 <bgtask_interrupt>
   2a278:	80 00 00 00 	nop
   2a27c:	80 00 00 00 	nop
   2a280:	80 00 00 00 	nop
}
   2a284:	a9 f7 80 62 	load32 gr31 gr30 3 <_cla_int_entry_group0_0+0x3>
   2a288:	99 e7 80 80 	addi gr30 gr30 10 <_cla_int_entry_group0_1>
   2a28c:	80 00 00 04 	ret
   2a290:	80 00 00 00 	nop
   2a294:	80 00 00 00 	nop

0002a298 <SysCtl_enablePeripheral>:
//!
//! \return None.
//
//*****************************************************************************
static inline void SysCtl_enablePeripheral(SysCtl_PeripheralPCLOCKCR peripheral)
{
   2a298:	80 00 00 00 	nop
   2a29c:	94 20 01 f9 	moviglz gr2 1f <_core1_exp_start+0x8>
   2a2a0:	94 30 10 71 	movigh gr3 107 <cla_interrupt_defaulthandler+0x7>
   2a2a4:	94 32 01 05 	movigl gr3 2010 <.L0 +0xe>
    uint16_t bitIndex;

    //
    // Decode the peripheral variable.
    //
    regIndex = (uint16_t)4U * ((uint16_t)peripheral & (uint16_t)SYSCTL_PERIPH_REG_M);
   2a2a8:	84 21 02 04 	and gr2 gr4 gr2
   2a2ac:	98 20 82 06 	sli gr2 gr2 2 <_cla_int_entry_group0_0+0x2>
    // EALLOW;

    //
    // Turn on the module clock.
    //
    HWREG(CPUSYS_BASE + SYSCTL_O_PCLKCR0 + regIndex) |= (1UL << bitIndex);
   2a2b0:	84 20 83 00 	add gr2 gr2 gr3
   2a2b4:	14 51 f0 09 ®░	moviglz gr5 1f00 <.L0 +0xa>
   2a2b8:	a8 30 80 02 ®Ė	load32 gr3 gr2 0 <_cla_int_entry_group0_0>

    //
    // Decode the peripheral variable.
    //
    regIndex = (uint16_t)4U * ((uint16_t)peripheral & (uint16_t)SYSCTL_PERIPH_REG_M);
    bitIndex = ((uint16_t)peripheral & SYSCTL_PERIPH_BIT_M) >> SYSCTL_PERIPH_BIT_S;
   2a2bc:	84 41 05 04 	and gr4 gr4 gr5
   2a2c0:	94 50 00 19 	moviglz gr5 1 <_cla_int_entry_group0_0+0x1>
   2a2c4:	98 41 08 0e 	srli gr4 gr4 8 <_core0_exp_start+0x3>
    // EALLOW;

    //
    // Turn on the module clock.
    //
    HWREG(CPUSYS_BASE + SYSCTL_O_PCLKCR0 + regIndex) |= (1UL << bitIndex);
   2a2c8:	84 41 44 09 	sl gr4 gr5 gr4
   2a2cc:	84 30 c4 05 	or gr3 gr3 gr4
   2a2d0:	ec 30 80 02 	store32 gr3 gr2 0 <_cla_int_entry_group0_0>
    //    EDIS;
}
   2a2d4:	80 00 00 04 	ret
   2a2d8:	80 00 00 00 	nop
   2a2dc:	80 00 00 00 	nop

0002a2e0 <cla1_ISR>:
extern __cla2cpu int mvectbgrnd;
int num;
int cla1cnt=0,cla2cnt=0,cla3cnt=0,cla4cnt=0,cla5cnt=0,cla6cnt=0,cla7cnt=0,cla8cnt=0;

static void cla1_ISR()
{
   2a2e0:	99 e7 bf 80 	addi gr30 gr30 fffffff0 <Flash0CtrlRegs+0xfef5fff0>
        }
        cla1cnt++;
        printf("task1_%d\n", cla1cnt);
#else
//    printf("%x \n", mvectbgrnd);
    printf("irq1 %f \n", cla_f1data);
   2a2e4:	ed f7 80 62 	store32 gr31 gr30 3 <_cla_int_entry_group0_0+0x3>
   2a2e8:	94 20 02 01 	movigh gr2 20 <_cla_int_entry_group0_2>
   2a2ec:	94 23 00 05 	movigl gr2 3000 <.L0 +0x3>
   2a2f0:	94 40 00 11 	movigh gr4 1 <_cla_int_entry_group0_0+0x1>
   2a2f4:	14 40 02 75 ®░	movigl gr4 27 <.L0 +0x1>
   2a2f8:	a8 50 80 02 ®Ė	load32 gr5 gr2 0 <_cla_int_entry_group0_0>
   2a2fc:	80 00 23 0d 	call 2a760 <printf>
   2a300:	80 00 00 00 	nop
   2a304:	80 00 00 00 	nop
   2a308:	80 00 00 00 	nop

#endif

}
   2a30c:	a9 f7 80 62 	load32 gr31 gr30 3 <_cla_int_entry_group0_0+0x3>
   2a310:	99 e7 80 80 	addi gr30 gr30 10 <_cla_int_entry_group0_1>
   2a314:	80 00 00 04 	ret
   2a318:	80 00 00 00 	nop
   2a31c:	80 00 00 00 	nop

0002a320 <cla2_ISR>:

static void cla2_ISR()
{
   2a320:	99 e7 bf 80 	addi gr30 gr30 fffffff0 <Flash0CtrlRegs+0xfef5fff0>
        printf("e2_%f\n", cla_fdata2);
    }
    cla2cnt++;
    printf("task2_%d\n", cla2cnt);
#else
    printf("irq2 %f\n", cla_f2data);
   2a324:	ed f7 80 62 	store32 gr31 gr30 3 <_cla_int_entry_group0_0+0x3>
   2a328:	94 20 02 01 	movigh gr2 20 <_cla_int_entry_group0_2>
   2a32c:	94 23 00 45 	movigl gr2 3004 <.L0 +0x7>
   2a330:	94 40 00 11 	movigh gr4 1 <_cla_int_entry_group0_0+0x1>
   2a334:	14 40 00 05 ®░	movigl gr4 0 <_cla_int_entry_group0_0>
   2a338:	a8 50 80 02 ®Ė	load32 gr5 gr2 0 <_cla_int_entry_group0_0>
   2a33c:	80 00 21 0d 	call 2a760 <printf>
   2a340:	80 00 00 00 	nop
   2a344:	80 00 00 00 	nop
   2a348:	80 00 00 00 	nop
#endif


}
   2a34c:	a9 f7 80 62 	load32 gr31 gr30 3 <_cla_int_entry_group0_0+0x3>
   2a350:	99 e7 80 80 	addi gr30 gr30 10 <_cla_int_entry_group0_1>
   2a354:	80 00 00 04 	ret
   2a358:	80 00 00 00 	nop
   2a35c:	80 00 00 00 	nop

0002a360 <cla3_ISR>:

static void cla3_ISR()
{
   2a360:	99 e7 bf 80 	addi gr30 gr30 fffffff0 <Flash0CtrlRegs+0xfef5fff0>
        printf("e3_%f\n", cla_fdata3);
    }
    cla3cnt++;
    printf("task3_%d\n", cla3cnt);
#else
    printf("irq3 %f\n", cla_f3data);
   2a364:	ed f7 80 62 	store32 gr31 gr30 3 <_cla_int_entry_group0_0+0x3>
   2a368:	94 20 02 01 	movigh gr2 20 <_cla_int_entry_group0_2>
   2a36c:	94 23 00 85 	movigl gr2 3008 <.L0 +0xb>
   2a370:	94 40 00 11 	movigh gr4 1 <_cla_int_entry_group0_0+0x1>
   2a374:	14 40 00 95 ®░	movigl gr4 9 <_core0_exp_start+0x4>
   2a378:	a8 50 80 02 ®Ė	load32 gr5 gr2 0 <_cla_int_entry_group0_0>
   2a37c:	80 00 1f 0d 	call 2a760 <printf>
   2a380:	80 00 00 00 	nop
   2a384:	80 00 00 00 	nop
   2a388:	80 00 00 00 	nop
#endif
}
   2a38c:	a9 f7 80 62 	load32 gr31 gr30 3 <_cla_int_entry_group0_0+0x3>
   2a390:	99 e7 80 80 	addi gr30 gr30 10 <_cla_int_entry_group0_1>
   2a394:	80 00 00 04 	ret
   2a398:	80 00 00 00 	nop
   2a39c:	80 00 00 00 	nop

0002a3a0 <cla4_ISR>:

static void cla4_ISR()
{
   2a3a0:	99 e7 bf 80 	addi gr30 gr30 fffffff0 <Flash0CtrlRegs+0xfef5fff0>
    }
    cla4cnt++;

    printf("task4_%d\n", cla4cnt);
#else
    printf("%f\n", cla_f4data);
   2a3a4:	ed f7 80 62 	store32 gr31 gr30 3 <_cla_int_entry_group0_0+0x3>
   2a3a8:	94 20 02 01 	movigh gr2 20 <_cla_int_entry_group0_2>
   2a3ac:	94 23 00 c5 	movigl gr2 300c <.L0 +0xf>
   2a3b0:	94 40 00 11 	movigh gr4 1 <_cla_int_entry_group0_0+0x1>
   2a3b4:	14 40 01 25 ®░	movigl gr4 12 <_cla_int_entry_group0_1+0x2>
   2a3b8:	a8 50 80 02 ®Ė	load32 gr5 gr2 0 <_cla_int_entry_group0_0>
   2a3bc:	80 00 1d 0d 	call 2a760 <printf>
   2a3c0:	80 00 00 00 	nop
   2a3c4:	80 00 00 00 	nop
   2a3c8:	80 00 00 00 	nop
    puts("irq4");
   2a3cc:	94 40 00 11 	movigh gr4 1 <_cla_int_entry_group0_0+0x1>
   2a3d0:	94 40 01 65 	movigl gr4 16 <_cla_int_entry_group0_1+0x6>
   2a3d4:	80 00 56 8d 	call 2aea8 <puts>
   2a3d8:	80 00 00 00 	nop
   2a3dc:	80 00 00 00 	nop
   2a3e0:	80 00 00 00 	nop
#endif
}
   2a3e4:	a9 f7 80 62 	load32 gr31 gr30 3 <_cla_int_entry_group0_0+0x3>
   2a3e8:	99 e7 80 80 	addi gr30 gr30 10 <_cla_int_entry_group0_1>
   2a3ec:	80 00 00 04 	ret
   2a3f0:	80 00 00 00 	nop
   2a3f4:	80 00 00 00 	nop

0002a3f8 <cla5_ISR>:

static void cla5_ISR()
{
   2a3f8:	99 e7 bf 80 	addi gr30 gr30 fffffff0 <Flash0CtrlRegs+0xfef5fff0>
        printf("e5_%f\n", cla_fdata5);
    }
    cla5cnt++;
    printf("task5_%d\n", cla5cnt);
#else
    printf("%f\n", cla_f5data);
   2a3fc:	ed f7 80 62 	store32 gr31 gr30 3 <_cla_int_entry_group0_0+0x3>
   2a400:	94 20 02 01 	movigh gr2 20 <_cla_int_entry_group0_2>
   2a404:	94 23 01 05 	movigl gr2 3010 <.L0 +0x13>
   2a408:	94 40 00 11 	movigh gr4 1 <_cla_int_entry_group0_0+0x1>
   2a40c:	14 40 01 25 ®░	movigl gr4 12 <_cla_int_entry_group0_1+0x2>
   2a410:	a8 50 80 02 ®Ė	load32 gr5 gr2 0 <_cla_int_entry_group0_0>
   2a414:	80 00 1a 4d 	call 2a760 <printf>
   2a418:	80 00 00 00 	nop
   2a41c:	80 00 00 00 	nop
   2a420:	80 00 00 00 	nop
//    puts("irq5");
#endif
}
   2a424:	a9 f7 80 62 	load32 gr31 gr30 3 <_cla_int_entry_group0_0+0x3>
   2a428:	99 e7 80 80 	addi gr30 gr30 10 <_cla_int_entry_group0_1>
   2a42c:	80 00 00 04 	ret
   2a430:	80 00 00 00 	nop
   2a434:	80 00 00 00 	nop

0002a438 <cla6_ISR>:

static void cla6_ISR()
{
   2a438:	99 e7 bf 80 	addi gr30 gr30 fffffff0 <Flash0CtrlRegs+0xfef5fff0>
        printf("e6_%f\n", cla_fdata6);
    }
    cla6cnt++;
    printf("task6_%d\n", cla6cnt);
#else
    printf("e6_%f\n", cla_f6data);
   2a43c:	ed f7 80 62 	store32 gr31 gr30 3 <_cla_int_entry_group0_0+0x3>
   2a440:	94 20 02 01 	movigh gr2 20 <_cla_int_entry_group0_2>
   2a444:	94 23 01 45 	movigl gr2 3014 <.L0 +0x17>
   2a448:	94 40 00 11 	movigh gr4 1 <_cla_int_entry_group0_0+0x1>
   2a44c:	14 40 02 05 ®░	movigl gr4 20 <_cla_int_entry_group0_2>
   2a450:	a8 50 80 02 ®Ė	load32 gr5 gr2 0 <_cla_int_entry_group0_0>
   2a454:	80 00 18 4d 	call 2a760 <printf>
   2a458:	80 00 00 00 	nop
   2a45c:	80 00 00 00 	nop
   2a460:	80 00 00 00 	nop
//    puts("irq6");
//    CLA_performHardReset(CLA1_BASE); // hard  reset;
#endif
}
   2a464:	a9 f7 80 62 	load32 gr31 gr30 3 <_cla_int_entry_group0_0+0x3>
   2a468:	99 e7 80 80 	addi gr30 gr30 10 <_cla_int_entry_group0_1>
   2a46c:	80 00 00 04 	ret
   2a470:	80 00 00 00 	nop
   2a474:	80 00 00 00 	nop

0002a478 <cla7_ISR>:

static void cla7_ISR()
{
   2a478:	99 e7 bf 80 	addi gr30 gr30 fffffff0 <Flash0CtrlRegs+0xfef5fff0>
        printf("e7_%f\n", cla_fdata7);
    }
    cla7cnt++;
    printf("task7_%d\n", cla7cnt);
#else
    printf("%f\n", cla_f7data);
   2a47c:	ed f7 80 62 	store32 gr31 gr30 3 <_cla_int_entry_group0_0+0x3>
   2a480:	94 20 02 01 	movigh gr2 20 <_cla_int_entry_group0_2>
   2a484:	94 23 01 85 	movigl gr2 3018 <.L0 +0x1b>
   2a488:	94 40 00 11 	movigh gr4 1 <_cla_int_entry_group0_0+0x1>
   2a48c:	14 40 01 25 ®░	movigl gr4 12 <_cla_int_entry_group0_1+0x2>
   2a490:	a8 50 80 02 ®Ė	load32 gr5 gr2 0 <_cla_int_entry_group0_0>
   2a494:	80 00 16 4d 	call 2a760 <printf>
   2a498:	80 00 00 00 	nop
   2a49c:	80 00 00 00 	nop
   2a4a0:	80 00 00 00 	nop
//    puts("irq7");
#endif
}
   2a4a4:	a9 f7 80 62 	load32 gr31 gr30 3 <_cla_int_entry_group0_0+0x3>
   2a4a8:	99 e7 80 80 	addi gr30 gr30 10 <_cla_int_entry_group0_1>
   2a4ac:	80 00 00 04 	ret
   2a4b0:	80 00 00 00 	nop
   2a4b4:	80 00 00 00 	nop

0002a4b8 <cla8_ISR>:

static void cla8_ISR()
{
   2a4b8:	99 e7 bf 80 	addi gr30 gr30 fffffff0 <Flash0CtrlRegs+0xfef5fff0>
    printf("task8_%d\n", cla8cnt);
#else
    //test can read soften reg
//    printf("addr 0xe0 %d, 0x00 %d\n",cla_soften_data_addr0xe0 , cla_soften_data_addr0x00 );
//    puts("irq8");
    printf("%f\n", cla_f8data);
   2a4bc:	ed f7 80 62 	store32 gr31 gr30 3 <_cla_int_entry_group0_0+0x3>
   2a4c0:	94 20 02 01 	movigh gr2 20 <_cla_int_entry_group0_2>
   2a4c4:	94 23 02 c5 	movigl gr2 302c <.L0 +0x9>
   2a4c8:	94 40 00 11 	movigh gr4 1 <_cla_int_entry_group0_0+0x1>
   2a4cc:	14 40 01 25 ®░	movigl gr4 12 <_cla_int_entry_group0_1+0x2>
   2a4d0:	a8 50 80 02 ®Ė	load32 gr5 gr2 0 <_cla_int_entry_group0_0>
   2a4d4:	80 00 14 4d 	call 2a760 <printf>
   2a4d8:	80 00 00 00 	nop
   2a4dc:	80 00 00 00 	nop
   2a4e0:	80 00 00 00 	nop
#endif
}
   2a4e4:	a9 f7 80 62 	load32 gr31 gr30 3 <_cla_int_entry_group0_0+0x3>
   2a4e8:	99 e7 80 80 	addi gr30 gr30 10 <_cla_int_entry_group0_1>
   2a4ec:	80 00 00 04 	ret
   2a4f0:	80 00 00 00 	nop
   2a4f4:	80 00 00 00 	nop

0002a4f8 <chipAutotestCaseStart>:
#define CHIP_AUTOTEST_CASE_STS_START    (0x202101AA)
#define CHIP_AUTOTEST_CASE_STS_END      (0xCA5E8EAD)
#endif

void chipAutotestCaseStart()
{
   2a4f8:	80 00 00 00 	nop
#ifdef CHIP_AUTOTEST
    HWREG(CHIP_AUTOTEST_CASE_STS_MEM_ADDR) = CHIP_AUTOTEST_CASE_STS_START;
#endif
}
   2a4fc:	80 00 00 04 	ret
   2a500:	80 00 00 00 	nop
   2a504:	80 00 00 00 	nop

0002a508 <chipAutotestCaseEnd>:

void chipAutotestCaseEnd()
{
   2a508:	80 00 00 00 	nop
#ifdef CHIP_AUTOTEST
    HWREG(CHIP_AUTOTEST_CASE_STS_MEM_ADDR) = CHIP_AUTOTEST_CASE_STS_END;
#endif
}
   2a50c:	80 00 00 04 	ret
   2a510:	80 00 00 00 	nop
   2a514:	80 00 00 00 	nop

0002a518 <StdOutInit>:
        ;
}

__attribute__((weak)) void StdOutInit(
    volatile struct SCI_REGS *sci, int baudrate, uint32_t pin, uint32_t pin_mux)
{
   2a518:	99 e7 bf 80 	addi gr30 gr30 fffffff0 <Flash0CtrlRegs+0xfef5fff0>
    dbg_uart = sci;

    if (sci == &SciaRegs)
   2a51c:	ed f7 80 62 	store32 gr31 gr30 3 <_cla_int_entry_group0_0+0x3>
   2a520:	ed 07 80 42 	store32 gr16 gr30 2 <_cla_int_entry_group0_0+0x2>
   2a524:	94 20 10 91 	movigh gr2 109 <cla_interrupt_defaulthandler+0x9>
   2a528:	94 26 00 05 	movigl gr2 6000 <$line_table_start0+0x129>
   2a52c:	90 01 02 01 	neq gr4 gr2
}

__attribute__((weak)) void StdOutInit(
    volatile struct SCI_REGS *sci, int baudrate, uint32_t pin, uint32_t pin_mux)
{
    dbg_uart = sci;
   2a530:	94 20 00 11 	movigh gr2 1 <_cla_int_entry_group0_0+0x1>
   2a534:	94 20 4f 45 	movigl gr2 4f4 <.L0 +0x4>
   2a538:	11 01 80 80 ®░	movg2g gr16 gr6
   2a53c:	ec 40 80 02 ®Ė	store32 gr4 gr2 0 <_cla_int_entry_group0_0>

    if (sci == &SciaRegs)
        CpuSysRegs.PCLKCR7.bit.SCI_A = 1;
    else
    {
        CpuSysRegs.PCLKCR7.bit.SCI_B = 1;
   2a540:	94 20 10 71 	movigh gr2 107 <cla_interrupt_defaulthandler+0x7>
   2a544:	94 22 00 05 	movigl gr2 2000 <.L0 +0x24>
__attribute__((weak)) void StdOutInit(
    volatile struct SCI_REGS *sci, int baudrate, uint32_t pin, uint32_t pin_mux)
{
    dbg_uart = sci;

    if (sci == &SciaRegs)
   2a548:	80 00 00 e5 	jc 2a568 <StdOutInit+0x50>
   2a54c:	80 00 00 00 	nop
   2a550:	80 00 00 00 	nop
        CpuSysRegs.PCLKCR7.bit.SCI_A = 1;
   2a554:	a8 30 81 42 	load32 gr3 gr2 a <_core0_exp_start+0x5>
   2a558:	94 30 00 03 	bst gr3 0 <_cla_int_entry_group0_0>
   2a55c:	80 00 00 81 	jmp 2a570 <StdOutInit+0x58>
   2a560:	80 00 00 00 	nop
   2a564:	80 00 00 00 	nop
    else
    {
        CpuSysRegs.PCLKCR7.bit.SCI_B = 1;
   2a568:	a8 30 81 42 	load32 gr3 gr2 a <_core0_exp_start+0x5>
   2a56c:	94 30 02 03 	bst gr3 1 <_cla_int_entry_group0_0+0x1>
   2a570:	ec 30 81 42 	store32 gr3 gr2 a <_core0_exp_start+0x5>
    }

    // õĖ║ÕŖĀķĆ¤ÕēŹõ╗┐, ÕēŹõ╗┐ńÄ»Õóāµ│óńē╣ńÄćµĆ╗µś»ķģŹńĮ«Õł░µ£Ćķ½ś(ńö▒õ║Äbclkõ║¦ńö¤µ£║ÕłČķÖÉÕłČ,DLLÕ░Åõ║Ä2µŚČÕ░åµŚĀµ│ĢµēōÕŹ░)
    if (sim_env_flag)
   2a574:	94 20 00 11 	movigh gr2 1 <_cla_int_entry_group0_0+0x1>
   2a578:	94 20 4f 05 	movigl gr2 4f0 <.L0 >
   2a57c:	a8 20 80 00 	load8 gr2 gr2 0 <_cla_int_entry_group0_0>
   2a580:	94 00 80 02 	eqi gr2 0 <_cla_int_entry_group0_0>
   2a584:	80 00 02 25 	jc 2a5cc <StdOutInit+0xb4>
   2a588:	80 00 00 00 	nop
   2a58c:	80 00 00 00 	nop
    {
        sci->SCICCR.bit.SCICHAR  = 7;
   2a590:	14 30 00 79 ®░	moviglz gr3 7 <_core0_exp_start+0x2>
   2a594:	a8 21 00 01 ®Ė	load16 gr2 gr4 0 <_cla_int_entry_group0_0>
   2a598:	94 50 00 39 	moviglz gr5 3 <_cla_int_entry_group0_0+0x3>
   2a59c:	84 20 83 05 	or gr2 gr2 gr3
   2a5a0:	ec 21 00 01 	store16 gr2 gr4 0 <_cla_int_entry_group0_0>
        sci->SCILBAUD.all        = 3;
        sci->SCICTL1.bit.SWRESET = 1;
   2a5a4:	28 21 00 41 ®░	load16 gr2 gr4 2 <_cla_int_entry_group0_0+0x2>
   2a5a8:	ec 51 00 62 ®Ė	store32 gr5 gr4 3 <_cla_int_entry_group0_0+0x3>
   2a5ac:	94 20 0a 03 	bst gr2 5 <_core0_exp_start>
   2a5b0:	ec 21 00 41 	store16 gr2 gr4 2 <_cla_int_entry_group0_0+0x2>
        sci->SCICTL1.bit.TXENA   = 1;
   2a5b4:	a8 21 00 41 	load16 gr2 gr4 2 <_cla_int_entry_group0_0+0x2>
   2a5b8:	94 20 02 03 	bst gr2 1 <_cla_int_entry_group0_0+0x1>
   2a5bc:	ec 21 00 41 	store16 gr2 gr4 2 <_cla_int_entry_group0_0+0x2>
    }
   2a5c0:	80 00 06 21 	jmp 2a688 <StdOutInit+0x170>
   2a5c4:	80 00 00 00 	nop
   2a5c8:	80 00 00 00 	nop
   2a5cc:	94 20 00 11 	movigh gr2 1 <_cla_int_entry_group0_0+0x1>
   2a5d0:	94 20 03 c5 	movigl gr2 3c <.L0 +0x4>
   2a5d4:	94 30 00 11 	movigh gr3 1 <_cla_int_entry_group0_0+0x1>
   2a5d8:	94 30 04 85 	movigl gr3 48 <.L0 +0x7>
    else
    {
        // Baud = LSPCLK/((BRR + 1)*8)
        int val                 = (int)((((float)DEVICE_LSPCLK_FREQ) / baudrate / 8) - 1);
   2a5dc:	90 51 40 94 	fcvtfs gr5 gr5
   2a5e0:	94 60 00 11 	movigh gr6 1 <_cla_int_entry_group0_0+0x1>
   2a5e4:	14 60 04 05 ®░	movigl gr6 40 <_cla_int_entry_group0_4>
   2a5e8:	a8 20 80 02 ®Ė	load32 gr2 gr2 0 <_cla_int_entry_group0_0>
   2a5ec:	14 80 0f f9 ®░	moviglz gr8 ff <.L0 +0x6>
   2a5f0:	a8 30 c0 02 ®Ė	load32 gr3 gr3 0 <_cla_int_entry_group0_0>
   2a5f4:	14 90 00 79 ®░	moviglz gr9 7 <_core0_exp_start+0x2>
   2a5f8:	a8 61 80 02 ®Ė	load32 gr6 gr6 0 <_cla_int_entry_group0_0>
   2a5fc:	04 20 85 6e ®░	fsdiv gr2 gr2 gr5
   2a600:	a8 a1 00 01 ®Ė	load16 gr10 gr4 0 <_cla_int_entry_group0_0>
   2a604:	84 20 83 8a 	fsmul gr2 gr2 gr3
   2a608:	84 20 86 62 	fsadd gr2 gr2 gr6
        sci->SCICCR.bit.SCICHAR = 7;
   2a60c:	84 32 89 05 	or gr3 gr10 gr9
   2a610:	10 20 80 90 ®░	fcvtsf gr2 gr2
   2a614:	ec 31 00 01 ®Ė	store16 gr3 gr4 0 <_cla_int_entry_group0_0>
        // µ│óńē╣ńÄćĶ«Īń«ŚÕģ¼Õ╝Å: SYSTEM_CLOCK / DLL.(DLF/16*10) * 16)
        sci->SCILBAUD.all        = val & 0xFF;
   2a618:	84 30 88 04 	and gr3 gr2 gr8
        sci->SCIHBAUD.all        = val >> 8;
   2a61c:	18 20 88 0a ®░	srai gr2 gr2 8 <_core0_exp_start+0x3>
   2a620:	ec 31 00 62 ®Ė	store32 gr3 gr4 3 <_cla_int_entry_group0_0+0x3>
   2a624:	ec 21 00 42 	store32 gr2 gr4 2 <_cla_int_entry_group0_0+0x2>
        sci->SCICTL1.bit.SWRESET = 1;
   2a628:	a8 21 00 41 	load16 gr2 gr4 2 <_cla_int_entry_group0_0+0x2>
   2a62c:	94 20 0a 03 	bst gr2 5 <_core0_exp_start>
   2a630:	ec 21 00 41 	store16 gr2 gr4 2 <_cla_int_entry_group0_0+0x2>
        sci->SCICTL1.bit.TXENA   = 1;
   2a634:	a8 21 00 41 	load16 gr2 gr4 2 <_cla_int_entry_group0_0+0x2>
   2a638:	94 20 02 03 	bst gr2 1 <_cla_int_entry_group0_0+0x1>
   2a63c:	90 31 00 80 	movg2g gr3 gr4

        GPIO_setPinConfig(pin_mux);
   2a640:	10 41 c0 80 ®░	movg2g gr4 gr7
   2a644:	ec 20 c0 41 ®Ė	store16 gr2 gr3 2 <_cla_int_entry_group0_0+0x2>
   2a648:	80 00 5d ad 	call 2b200 <GPIO_setPinConfig>
   2a64c:	80 00 00 00 	nop
   2a650:	80 00 00 00 	nop
   2a654:	80 00 00 00 	nop
   2a658:	94 50 00 19 	moviglz gr5 1 <_cla_int_entry_group0_0+0x1>
        GPIO_setDirectionMode(pin, GPIO_DIR_MODE_OUT);
   2a65c:	90 44 00 80 	movg2g gr4 gr16
   2a660:	80 00 51 ed 	call 2b0a0 <GPIO_setDirectionMode>
   2a664:	80 00 00 00 	nop
   2a668:	80 00 00 00 	nop
   2a66c:	80 00 00 00 	nop
   2a670:	94 50 00 09 	moviglz gr5 0 <_cla_int_entry_group0_0>
        GPIO_setPadConfig(pin, GPIO_PIN_TYPE_STD);
   2a674:	90 44 00 80 	movg2g gr4 gr16
   2a678:	80 00 54 ad 	call 2b110 <GPIO_setPadConfig>
   2a67c:	80 00 00 00 	nop
   2a680:	80 00 00 00 	nop
   2a684:	80 00 00 00 	nop
    }
}
   2a688:	a9 07 80 42 	load32 gr16 gr30 2 <_cla_int_entry_group0_0+0x2>
   2a68c:	a9 f7 80 62 	load32 gr31 gr30 3 <_cla_int_entry_group0_0+0x3>
   2a690:	99 e7 80 80 	addi gr30 gr30 10 <_cla_int_entry_group0_1>
   2a694:	80 00 00 04 	ret
   2a698:	80 00 00 00 	nop
   2a69c:	80 00 00 00 	nop

0002a6a0 <EndSimulation>:

// õĖ╗ÕŖ©ń╗ōµØ¤ VCS or FPGA õ╗┐ń£¤
__attribute__((weak)) void EndSimulation(void)
{
   2a6a0:	99 e7 bf 80 	addi gr30 gr30 fffffff0 <Flash0CtrlRegs+0xfef5fff0>
   2a6a4:	ed f7 80 62 	store32 gr31 gr30 3 <_cla_int_entry_group0_0+0x3>
   2a6a8:	94 40 00 49 	moviglz gr4 4 <_cla_int_entry_group0_0+0x4>
    // for VCS simulation end
    putchar(0x4);
   2a6ac:	80 00 01 8d 	call 2a6e0 <putchar>
   2a6b0:	80 00 00 00 	nop
   2a6b4:	80 00 00 00 	nop
   2a6b8:	80 00 00 00 	nop
    // for chip autotest
    chipAutotestCaseEnd();
   2a6bc:	83 ff f2 4d 	call 2a508 <chipAutotestCaseEnd>
   2a6c0:	80 00 00 00 	nop
   2a6c4:	80 00 00 00 	nop
   2a6c8:	80 00 00 00 	nop
}
   2a6cc:	a9 f7 80 62 	load32 gr31 gr30 3 <_cla_int_entry_group0_0+0x3>
   2a6d0:	99 e7 80 80 	addi gr30 gr30 10 <_cla_int_entry_group0_1>
   2a6d4:	80 00 00 04 	ret
   2a6d8:	80 00 00 00 	nop
   2a6dc:	80 00 00 00 	nop

0002a6e0 <putchar>:

// Ķć¬Õ«×ńÄ░puts+printfÕćĮµĢ░(õĖŹõŠØĶĄ¢libcÕ║ō)
#include <stdarg.h>

__attribute__((weak)) void putchar(char c)
{
   2a6e0:	80 00 00 00 	nop
   2a6e4:	94 30 00 19 	moviglz gr3 1 <_cla_int_entry_group0_0+0x1>
    while (!dbg_uart->SCICTL2.bit.TXRDY)
   2a6e8:	94 20 00 11 	movigh gr2 1 <_cla_int_entry_group0_0+0x1>
   2a6ec:	94 20 4f 45 	movigl gr2 4f4 <.L0 +0x4>
   2a6f0:	a8 20 80 02 	load32 gr2 gr2 0 <_cla_int_entry_group0_0>
   2a6f4:	a8 20 81 01 	load16 gr2 gr2 8 <_core0_exp_start+0x3>
   2a6f8:	98 20 87 0e 	srli gr2 gr2 7 <_core0_exp_start+0x2>
   2a6fc:	84 20 83 04 	and gr2 gr2 gr3
   2a700:	94 00 80 02 	eqi gr2 0 <_cla_int_entry_group0_0>
   2a704:	83 ff ff 05 	jc 2a6e8 <putchar+0x8>
   2a708:	80 00 00 00 	nop
   2a70c:	80 00 00 00 	nop
        ;
    dbg_uart->SCITXBUF.all = c;
   2a710:	94 20 00 11 	movigh gr2 1 <_cla_int_entry_group0_0+0x1>
   2a714:	94 20 4f 45 	movigl gr2 4f4 <.L0 +0x4>
   2a718:	18 31 18 06 ®░	sli gr3 gr4 18 <_core1_exp_start+0x1>
   2a71c:	a8 20 80 02 ®Ė	load32 gr2 gr2 0 <_cla_int_entry_group0_0>
   2a720:	98 30 d8 0a 	srai gr3 gr3 18 <_core1_exp_start+0x1>
   2a724:	ec 30 81 22 	store32 gr3 gr2 9 <_core0_exp_start+0x4>
   2a728:	94 30 00 19 	moviglz gr3 1 <_cla_int_entry_group0_0+0x1>
    while (!dbg_uart->SCICTL2.bit.TXRDY)
   2a72c:	94 20 00 11 	movigh gr2 1 <_cla_int_entry_group0_0+0x1>
   2a730:	94 20 4f 45 	movigl gr2 4f4 <.L0 +0x4>
   2a734:	a8 20 80 02 	load32 gr2 gr2 0 <_cla_int_entry_group0_0>
   2a738:	a8 20 81 01 	load16 gr2 gr2 8 <_core0_exp_start+0x3>
   2a73c:	98 20 87 0e 	srli gr2 gr2 7 <_core0_exp_start+0x2>
   2a740:	84 20 83 04 	and gr2 gr2 gr3
   2a744:	94 00 80 02 	eqi gr2 0 <_cla_int_entry_group0_0>
   2a748:	83 ff ff 05 	jc 2a72c <putchar+0x4c>
   2a74c:	80 00 00 00 	nop
   2a750:	80 00 00 00 	nop
        ;
}
   2a754:	80 00 00 04 	ret
   2a758:	80 00 00 00 	nop
   2a75c:	80 00 00 00 	nop

0002a760 <printf>:
}

// Ķ┐öÕø×ÕĆ╝õĖ║µēōÕŹ░ÕŁŚń¼”ńÜäõĖ¬µĢ░
// µö»µīü%d, %x’╝ī%s’╝ī%c’╝ī%f’╝łÕÅ¬µēōÕŹ░6õĮŹµĢ░ÕŁŚ’╝ē
__attribute__((weak)) int printf(const char *str, ...)
{
   2a760:	99 e7 be 80 	addi gr30 gr30 ffffffd0 <Flash0CtrlRegs+0xfef5ffd0>
   2a764:	ed f7 81 42 	store32 gr31 gr30 a <_core0_exp_start+0x5>
   2a768:	ed 67 81 22 	store32 gr22 gr30 9 <_core0_exp_start+0x4>
   2a76c:	ed 57 81 02 	store32 gr21 gr30 8 <_core0_exp_start+0x3>
   2a770:	ed 47 80 e2 	store32 gr20 gr30 7 <_core0_exp_start+0x2>
   2a774:	ed 37 80 c2 	store32 gr19 gr30 6 <_core0_exp_start+0x1>
   2a778:	ed 27 80 a2 	store32 gr18 gr30 5 <_core0_exp_start>
   2a77c:	ed 17 80 82 	store32 gr17 gr30 4 <_cla_int_entry_group0_0+0x4>
   2a780:	ed 07 80 62 	store32 gr16 gr30 3 <_cla_int_entry_group0_0+0x3>
   2a784:	18 27 81 60 ®░	addi gr2 gr30 2c <.L0 +0x6>
   2a788:	ec 77 81 a2 ®Ė	store32 gr7 gr30 d <_core0_exp_start+0x8>
   2a78c:	ec 67 81 82 	store32 gr6 gr30 c <_core0_exp_start+0x7>
   2a790:	15 10 00 09 ®░	moviglz gr17 0 <_cla_int_entry_group0_0>
   2a794:	ec 57 81 62 ®Ė	store32 gr5 gr30 b <_core0_exp_start+0x6>
   2a798:	11 21 00 80 ®░	movg2g gr18 gr4
   2a79c:	ec 27 80 42 ®Ė	store32 gr2 gr30 2 <_cla_int_entry_group0_0+0x2>
   2a7a0:	91 04 40 80 	movg2g gr16 gr17
    int cnt                 = 0;           // µĢ░µŹ«ķĢ┐Õ║”Ķ«ĪµĢ░
    int i                   = 0;

    va_list pArgs;        // Õ«Üõ╣ēva_listń▒╗Õ×ŗµīćķÆł’╝īńö©õ║ÄÕŁśÕé©ÕÅéµĢ░ńÜäÕ£░ÕØĆ
    va_start(pArgs, str); // ÕłØÕ¦ŗÕī¢pArgs
    while (*pStr != '\0')
   2a7a4:	a8 24 80 00 	load8 gr2 gr18 0 <_cla_int_entry_group0_0>
   2a7a8:	90 20 80 46 	cbw gr2 gr2
   2a7ac:	94 00 80 02 	eqi gr2 0 <_cla_int_entry_group0_0>
   2a7b0:	80 00 34 05 	jc 2ae34 <.L0 +0x2c>
   2a7b4:	80 00 00 00 	nop
   2a7b8:	80 00 00 00 	nop
    {
        switch (*pStr)
   2a7bc:	a8 24 80 00 	load8 gr2 gr18 0 <_cla_int_entry_group0_0>
   2a7c0:	90 20 80 46 	cbw gr2 gr2
   2a7c4:	98 20 bf b8 	addi gr2 gr2 fffffff7 <Flash0CtrlRegs+0xfef5fff7>
   2a7c8:	94 00 83 93 	gtiu gr2 1c <_core1_exp_start+0x5>
   2a7cc:	80 00 31 c5 	jc 2ae08 <.L0 >
   2a7d0:	80 00 00 00 	nop
   2a7d4:	80 00 00 00 	nop
   2a7d8:	98 20 82 06 	sli gr2 gr2 2 <_cla_int_entry_group0_0+0x2>
   2a7dc:	94 30 00 11 	movigh gr3 1 <_cla_int_entry_group0_0+0x1>
   2a7e0:	94 30 04 c5 	movigl gr3 4c <.L0 +0xb>
   2a7e4:	84 20 83 00 	add gr2 gr2 gr3
   2a7e8:	a8 20 80 02 	load32 gr2 gr2 0 <_cla_int_entry_group0_0>
   2a7ec:	80 00 80 03 	jmpr gr2
   2a7f0:	80 00 00 00 	nop
   2a7f4:	80 00 00 00 	nop

0002a7f8 <.L0 >:
            case '\n':
                putchar(*pStr);
                ret_num++;
                break;
            case '\t':
                putchar(*pStr);
   2a7f8:	a8 24 80 00 	load8 gr2 gr18 0 <_cla_int_entry_group0_0>
   2a7fc:	90 40 80 46 	cbw gr4 gr2
   2a800:	83 ff f6 ed 	call 2a6e0 <putchar>
   2a804:	80 00 00 00 	nop
   2a808:	80 00 00 00 	nop
   2a80c:	80 00 00 00 	nop
                ret_num += 4;
   2a810:	99 14 40 20 	addi gr17 gr17 4 <_cla_int_entry_group0_0+0x4>
                break;
   2a814:	80 00 30 61 	jmp 2ae24 <.L0 +0x1c>
   2a818:	80 00 00 00 	nop
   2a81c:	80 00 00 00 	nop

0002a820 <.L0 >:
            case '%':
                pStr++;
                // % µĀ╝Õ╝ÅĶ¦Żµ×É
                switch (*pStr)
   2a820:	a8 24 80 20 	load8 gr2 gr18 1 <_cla_int_entry_group0_0+0x1>
   2a824:	90 20 80 46 	cbw gr2 gr2
   2a828:	94 00 84 a2 	eqi gr2 25 <_cla_int_entry_group0_2+0x5>
            case '\t':
                putchar(*pStr);
                ret_num += 4;
                break;
            case '%':
                pStr++;
   2a82c:	99 64 80 08 	addi gr22 gr18 1 <_cla_int_entry_group0_0+0x1>
                // % µĀ╝Õ╝ÅĶ¦Żµ×É
                switch (*pStr)
   2a830:	80 00 0a a5 	jc 2a988 <.L0 +0x168>
   2a834:	80 00 00 00 	nop
   2a838:	80 00 00 00 	nop
   2a83c:	94 00 8c 62 	eqi gr2 63 <_cla_int_entry_group0_6+0x3>
   2a840:	80 00 0b 65 	jc 2a9b0 <.L0 +0x190>
   2a844:	80 00 00 00 	nop
   2a848:	80 00 00 00 	nop
   2a84c:	94 00 8c 82 	eqi gr2 64 <_cla_int_entry_group0_6+0x4>
   2a850:	80 00 12 45 	jc 2aa9c <.L0 +0x27c>
   2a854:	80 00 00 00 	nop
   2a858:	80 00 00 00 	nop
   2a85c:	94 00 8c c2 	eqi gr2 66 <_cla_int_entry_group0_6+0x6>
   2a860:	80 00 1b 45 	jc 2abcc <.L0 +0x3ac>
   2a864:	80 00 00 00 	nop
   2a868:	80 00 00 00 	nop
   2a86c:	94 00 8e 62 	eqi gr2 73 <_cla_int_entry_group0_7+0x3>
   2a870:	80 00 0b 05 	jc 2a9d4 <.L0 +0x1b4>
   2a874:	80 00 00 00 	nop
   2a878:	80 00 00 00 	nop
   2a87c:	94 00 8f 02 	eqi gr2 78 <.L0 +0x1>
   2a880:	80 00 2a e9 	jnc 2ade0 <.L0 +0x5c0>
   2a884:	80 00 00 00 	nop
   2a888:	80 00 00 00 	nop
                        continue;
#endif
#if 1
                    case 'x':
                        // µÄźµöČ16Ķ┐øÕłČ
                        ArgHexVal = va_arg(pArgs, unsigned long);
   2a88c:	14 20 00 19 ®░	moviglz gr2 1 <_cla_int_entry_group0_0+0x1>
   2a890:	a8 37 80 42 ®Ė	load32 gr3 gr30 2 <_cla_int_entry_group0_0+0x2>
   2a894:	98 40 c0 20 	addi gr4 gr3 4 <_cla_int_entry_group0_0+0x4>
   2a898:	ec 47 80 42 	store32 gr4 gr30 2 <_cla_int_entry_group0_0+0x2>
   2a89c:	a9 20 c0 02 	load32 gr18 gr3 0 <_cla_int_entry_group0_0>
                        val_seg   = ArgHexVal;
                        // Ķ«Īń«ŚArgIntValķĢ┐Õ║”
                        if (ArgHexVal)
   2a8a0:	94 04 80 02 	eqi gr18 0 <_cla_int_entry_group0_0>
   2a8a4:	90 34 80 80 	movg2g gr3 gr18
   2a8a8:	80 00 00 e5 	jc 2a8c8 <.L0 +0xa8>
   2a8ac:	80 00 00 00 	nop
   2a8b0:	80 00 00 00 	nop
                        {
                            while (val_seg)
   2a8b4:	94 00 c0 02 	eqi gr3 0 <_cla_int_entry_group0_0>
   2a8b8:	80 00 0c 69 	jnc 2aa48 <.L0 +0x228>
   2a8bc:	80 00 00 00 	nop
   2a8c0:	80 00 00 00 	nop
   2a8c4:	90 24 00 80 	movg2g gr2 gr16
                            }
                        }
                        else
                            cnt = 1; // µĢ░ÕŁŚ0ńÜäķĢ┐Õ║”õĖ║1

                        ret_num += cnt; // ÕŁŚń¼”õĖ¬µĢ░ÕŖĀõĖŖµĢ┤µĢ░ńÜäķĢ┐Õ║”
   2a8c8:	85 14 42 00 	add gr17 gr17 gr2
   2a8cc:	91 00 80 80 	movg2g gr16 gr2
                        // Õ░åµĢ┤µĢ░ĶĮ¼õĖ║ÕŹĢõĖ¬ÕŁŚń¼”µēōÕŹ░
                        while (cnt)
   2a8d0:	94 04 00 02 	eqi gr16 0 <_cla_int_entry_group0_0>
   2a8d4:	80 00 0d a5 	jc 2aa8c <.L0 +0x26c>
   2a8d8:	80 00 00 00 	nop
   2a8dc:	80 00 00 00 	nop
                        {
                            val_seg = ArgHexVal / m_pow_n(16, cnt - 1);
   2a8e0:	99 44 3f f8 	addi gr20 gr16 ffffffff <Flash0CtrlRegs+0xfef5ffff>
   2a8e4:	95 50 01 09 	moviglz gr21 10 <_cla_int_entry_group0_1>
   2a8e8:	90 45 40 80 	movg2g gr4 gr21
   2a8ec:	90 55 00 80 	movg2g gr5 gr20
   2a8f0:	80 00 31 6d 	call 2af20 <m_pow_n>
   2a8f4:	80 00 00 00 	nop
   2a8f8:	80 00 00 00 	nop
   2a8fc:	80 00 00 00 	nop
   2a900:	90 50 80 80 	movg2g gr5 gr2
   2a904:	90 44 80 80 	movg2g gr4 gr18
   2a908:	83 ff 94 6d 	call 29b98 <__udivsi3>
   2a90c:	80 00 00 00 	nop
   2a910:	80 00 00 00 	nop
   2a914:	80 00 00 00 	nop
   2a918:	91 30 80 80 	movg2g gr19 gr2
                            ArgHexVal %= m_pow_n(16, cnt - 1);
   2a91c:	90 45 40 80 	movg2g gr4 gr21
   2a920:	90 55 00 80 	movg2g gr5 gr20
   2a924:	80 00 2f cd 	call 2af20 <m_pow_n>
   2a928:	80 00 00 00 	nop
   2a92c:	80 00 00 00 	nop
   2a930:	80 00 00 00 	nop
   2a934:	90 50 80 80 	movg2g gr5 gr2
   2a938:	90 44 80 80 	movg2g gr4 gr18
   2a93c:	83 ff a0 4d 	call 29d48 <__umodsi3>
   2a940:	80 00 00 00 	nop
   2a944:	80 00 00 00 	nop
   2a948:	80 00 00 00 	nop
                            if (val_seg <= 9)
   2a94c:	94 04 c1 33 	gtiu gr19 9 <_core0_exp_start+0x4>
                        ret_num += cnt; // ÕŁŚń¼”õĖ¬µĢ░ÕŖĀõĖŖµĢ┤µĢ░ńÜäķĢ┐Õ║”
                        // Õ░åµĢ┤µĢ░ĶĮ¼õĖ║ÕŹĢõĖ¬ÕŁŚń¼”µēōÕŹ░
                        while (cnt)
                        {
                            val_seg = ArgHexVal / m_pow_n(16, cnt - 1);
                            ArgHexVal %= m_pow_n(16, cnt - 1);
   2a950:	80 00 00 00 	nop
   2a954:	80 00 00 00 	nop
   2a958:	80 00 00 00 	nop
   2a95c:	80 00 00 00 	nop
   2a960:	91 20 80 80 	movg2g gr18 gr2
                            if (val_seg <= 9)
                                putchar((char)val_seg + '0');
                            else
                            {
                                // putchar((char)val_seg - 10 + 'a'); //Õ░ÅÕåÖÕŁŚµ»Ź
                                putchar((char)val_seg - 10 + 'A');
   2a964:	98 24 d8 06 	sli gr2 gr19 18 <_core1_exp_start+0x1>
   2a968:	80 00 07 85 	jc 2aa5c <.L0 +0x23c>
   2a96c:	80 00 00 00 	nop
   2a970:	80 00 00 00 	nop
   2a974:	94 33 00 01 	movigh gr3 3000 <.L0 +0x3>
   2a978:	94 30 00 05 	movigl gr3 0 <_cla_int_entry_group0_0>
                        while (cnt)
                        {
                            val_seg = ArgHexVal / m_pow_n(16, cnt - 1);
                            ArgHexVal %= m_pow_n(16, cnt - 1);
                            if (val_seg <= 9)
                                putchar((char)val_seg + '0');
   2a97c:	80 00 07 21 	jmp 2aa64 <.L0 +0x244>
   2a980:	80 00 00 00 	nop
   2a984:	80 00 00 00 	nop
   2a988:	94 40 02 59 	moviglz gr4 25 <_cla_int_entry_group0_2+0x5>
   2a98c:	83 ff ea 8d 	call 2a6e0 <putchar>
   2a990:	80 00 00 00 	nop
   2a994:	80 00 00 00 	nop
   2a998:	80 00 00 00 	nop
   2a99c:	99 14 40 08 	addi gr17 gr17 1 <_cla_int_entry_group0_0+0x1>
   2a9a0:	99 25 80 08 	addi gr18 gr22 1 <_cla_int_entry_group0_0+0x1>
                            putchar((char)val_seg + '0');
                            cnt--;
                        }
                        ret_num += 6;
                        pStr++;
                        continue;
   2a9a4:	83 ff ef e1 	jmp 2a7a4 <printf+0x44>
   2a9a8:	80 00 00 00 	nop
   2a9ac:	80 00 00 00 	nop
                        ret_num++;
                        pStr++;
                        continue;
#if 1
                    case 'c':
                        ArgIntVal = va_arg(pArgs, int); // %c’╝īĶŠōÕć║char
   2a9b0:	a8 27 80 42 	load32 gr2 gr30 2 <_cla_int_entry_group0_0+0x2>
   2a9b4:	98 30 80 20 	addi gr3 gr2 4 <_cla_int_entry_group0_0+0x4>
   2a9b8:	ec 37 80 42 	store32 gr3 gr30 2 <_cla_int_entry_group0_0+0x2>
   2a9bc:	a8 20 80 02 	load32 gr2 gr2 0 <_cla_int_entry_group0_0>
                        putchar((char)ArgIntVal);
   2a9c0:	98 20 98 06 	sli gr2 gr2 18 <_core1_exp_start+0x1>
   2a9c4:	98 40 98 0a 	srai gr4 gr2 18 <_core1_exp_start+0x1>
   2a9c8:	83 ff fe 01 	jmp 2a98c <.L0 +0x16c>
   2a9cc:	80 00 00 00 	nop
   2a9d0:	80 00 00 00 	nop
                        ret_num++;
                        pStr++;
                        continue;
                    case 's':
                        // µÄźµöČÕŁŚń¼”
                        ArgStrVal = va_arg(pArgs, char *);
   2a9d4:	a8 27 80 42 	load32 gr2 gr30 2 <_cla_int_entry_group0_0+0x2>
   2a9d8:	98 30 80 20 	addi gr3 gr2 4 <_cla_int_entry_group0_0+0x4>
   2a9dc:	ec 37 80 42 	store32 gr3 gr30 2 <_cla_int_entry_group0_0+0x2>
   2a9e0:	a9 20 80 02 	load32 gr18 gr2 0 <_cla_int_entry_group0_0>
                        ret_num += (unsigned int)strlen(ArgStrVal);
   2a9e4:	90 44 80 80 	movg2g gr4 gr18
   2a9e8:	83 ff 76 2d 	call 298b0 <strlen>
   2a9ec:	80 00 00 00 	nop
   2a9f0:	80 00 00 00 	nop
   2a9f4:	80 00 00 00 	nop
   2a9f8:	85 14 42 00 	add gr17 gr17 gr2
                        while (*ArgStrVal)
   2a9fc:	a8 24 80 00 	load8 gr2 gr18 0 <_cla_int_entry_group0_0>
   2aa00:	94 00 80 02 	eqi gr2 0 <_cla_int_entry_group0_0>
   2aa04:	80 00 01 85 	jc 2aa38 <.L0 +0x218>
   2aa08:	80 00 00 00 	nop
   2aa0c:	80 00 00 00 	nop
                        {
                            putchar(*ArgStrVal);
   2aa10:	a8 24 80 00 	load8 gr2 gr18 0 <_cla_int_entry_group0_0>
   2aa14:	90 40 80 46 	cbw gr4 gr2
   2aa18:	83 ff e6 2d 	call 2a6e0 <putchar>
   2aa1c:	80 00 00 00 	nop
   2aa20:	80 00 00 00 	nop
   2aa24:	80 00 00 00 	nop
                            ArgStrVal++;
   2aa28:	99 24 80 08 	addi gr18 gr18 1 <_cla_int_entry_group0_0+0x1>
                        continue;
                    case 's':
                        // µÄźµöČÕŁŚń¼”
                        ArgStrVal = va_arg(pArgs, char *);
                        ret_num += (unsigned int)strlen(ArgStrVal);
                        while (*ArgStrVal)
   2aa2c:	83 ff fe 61 	jmp 2a9fc <.L0 +0x1dc>
   2aa30:	80 00 00 00 	nop
   2aa34:	80 00 00 00 	nop
                        {
                            putchar(*ArgStrVal);
                            ArgStrVal++;
                        }
                        pStr++;
   2aa38:	99 25 80 08 	addi gr18 gr22 1 <_cla_int_entry_group0_0+0x1>
                            putchar((char)val_seg + '0');
                            cnt--;
                        }
                        ret_num += 6;
                        pStr++;
                        continue;
   2aa3c:	83 ff eb 21 	jmp 2a7a4 <printf+0x44>
   2aa40:	80 00 00 00 	nop
   2aa44:	80 00 00 00 	nop
                        // Ķ«Īń«ŚArgIntValķĢ┐Õ║”
                        if (ArgHexVal)
                        {
                            while (val_seg)
                            {
                                cnt++;
   2aa48:	99 04 00 08 	addi gr16 gr16 1 <_cla_int_entry_group0_0+0x1>
                                val_seg /= 16;
   2aa4c:	98 30 c4 0e 	srli gr3 gr3 4 <_cla_int_entry_group0_0+0x4>
                        ArgHexVal = va_arg(pArgs, unsigned long);
                        val_seg   = ArgHexVal;
                        // Ķ«Īń«ŚArgIntValķĢ┐Õ║”
                        if (ArgHexVal)
                        {
                            while (val_seg)
   2aa50:	83 ff f3 01 	jmp 2a8b4 <.L0 +0x94>
   2aa54:	80 00 00 00 	nop
   2aa58:	80 00 00 00 	nop
   2aa5c:	94 33 70 01 	movigh gr3 3700 <.L0 +0x2e>
   2aa60:	94 30 00 05 	movigl gr3 0 <_cla_int_entry_group0_0>
   2aa64:	84 20 83 00 	add gr2 gr2 gr3
   2aa68:	98 40 98 0a 	srai gr4 gr2 18 <_core1_exp_start+0x1>
   2aa6c:	83 ff e3 8d 	call 2a6e0 <putchar>
   2aa70:	80 00 00 00 	nop
   2aa74:	80 00 00 00 	nop
   2aa78:	80 00 00 00 	nop
                            else
                            {
                                // putchar((char)val_seg - 10 + 'a'); //Õ░ÅÕåÖÕŁŚµ»Ź
                                putchar((char)val_seg - 10 + 'A');
                            }
                            cnt--;
   2aa7c:	99 04 3f f8 	addi gr16 gr16 ffffffff <Flash0CtrlRegs+0xfef5ffff>
                        else
                            cnt = 1; // µĢ░ÕŁŚ0ńÜäķĢ┐Õ║”õĖ║1

                        ret_num += cnt; // ÕŁŚń¼”õĖ¬µĢ░ÕŖĀõĖŖµĢ┤µĢ░ńÜäķĢ┐Õ║”
                        // Õ░åµĢ┤µĢ░ĶĮ¼õĖ║ÕŹĢõĖ¬ÕŁŚń¼”µēōÕŹ░
                        while (cnt)
   2aa80:	83 ff f2 61 	jmp 2a8d0 <.L0 +0xb0>
   2aa84:	80 00 00 00 	nop
   2aa88:	80 00 00 00 	nop
                                // putchar((char)val_seg - 10 + 'a'); //Õ░ÅÕåÖÕŁŚµ»Ź
                                putchar((char)val_seg - 10 + 'A');
                            }
                            cnt--;
                        }
                        pStr++;
   2aa8c:	99 25 80 08 	addi gr18 gr22 1 <_cla_int_entry_group0_0+0x1>
                            putchar((char)val_seg + '0');
                            cnt--;
                        }
                        ret_num += 6;
                        pStr++;
                        continue;
   2aa90:	83 ff e8 81 	jmp 2a7a4 <printf+0x44>
   2aa94:	80 00 00 00 	nop
   2aa98:	80 00 00 00 	nop
                        continue;
#endif
#if 1
                    case 'd':
                        // µÄźµöČµĢ┤Õ×ŗ
                        ArgIntVal = va_arg(pArgs, int);
   2aa9c:	a8 27 80 42 	load32 gr2 gr30 2 <_cla_int_entry_group0_0+0x2>
   2aaa0:	98 30 80 20 	addi gr3 gr2 4 <_cla_int_entry_group0_0+0x4>
   2aaa4:	ec 37 80 42 	store32 gr3 gr30 2 <_cla_int_entry_group0_0+0x2>
   2aaa8:	a9 20 80 02 	load32 gr18 gr2 0 <_cla_int_entry_group0_0>
                        if (ArgIntVal < 0) // Õ”éµ×£õĖ║Ķ┤¤µĢ░µēōÕŹ░’╝īĶ┤¤ÕÅĘ
   2aaac:	94 04 bf ea 	gti gr18 ffffffff <Flash0CtrlRegs+0xfef5ffff>
   2aab0:	80 00 01 25 	jc 2aad8 <.L0 +0x2b8>
   2aab4:	80 00 00 00 	nop
   2aab8:	80 00 00 00 	nop
   2aabc:	94 40 02 d9 	moviglz gr4 2d <.L0 +0x7>
                        {
                            ArgIntVal = -ArgIntVal; // ÕÅ¢ńøĖÕÅŹµĢ░
   2aac0:	91 20 00 41 	neg gr18

                            putchar('-');
   2aac4:	83 ff e0 cd 	call 2a6e0 <putchar>
   2aac8:	80 00 00 00 	nop
   2aacc:	80 00 00 00 	nop
   2aad0:	80 00 00 00 	nop
                            ret_num++;
   2aad4:	99 14 40 08 	addi gr17 gr17 1 <_cla_int_entry_group0_0+0x1>
                        }
                        val_seg = ArgIntVal; // ĶĄŗÕĆ╝ń╗Ö val_segÕżäńÉåµĢ░µŹ«
                        // Ķ«Īń«ŚArgIntValķĢ┐Õ║”
                        if (ArgIntVal)
   2aad8:	94 04 80 02 	eqi gr18 0 <_cla_int_entry_group0_0>
   2aadc:	94 30 00 19 	moviglz gr3 1 <_cla_int_entry_group0_0+0x1>
   2aae0:	90 24 80 80 	movg2g gr2 gr18
   2aae4:	80 00 00 e5 	jc 2ab04 <.L0 +0x2e4>
   2aae8:	80 00 00 00 	nop
   2aaec:	80 00 00 00 	nop
                        {
                            while (val_seg)
   2aaf0:	94 00 80 02 	eqi gr2 0 <_cla_int_entry_group0_0>
   2aaf4:	80 00 1b 89 	jnc 2ae68 <.L0 +0x60>
   2aaf8:	80 00 00 00 	nop
   2aafc:	80 00 00 00 	nop
   2ab00:	90 34 00 80 	movg2g gr3 gr16
                            }
                        }
                        else
                            cnt = 1; // µĢ░ÕŁŚ0ńÜäķĢ┐Õ║”õĖ║1

                        ret_num += cnt; // ÕŁŚń¼”õĖ¬µĢ░ÕŖĀõĖŖµĢ┤µĢ░ńÜäķĢ┐Õ║”
   2ab04:	85 14 43 00 	add gr17 gr17 gr3
   2ab08:	91 00 c0 80 	movg2g gr16 gr3

                        // Õ░åµĢ┤µĢ░ĶĮ¼õĖ║ÕŹĢõĖ¬ÕŁŚń¼”µēōÕŹ░
                        while (cnt)
   2ab0c:	94 04 00 02 	eqi gr16 0 <_cla_int_entry_group0_0>
   2ab10:	80 00 05 45 	jc 2abbc <.L0 +0x39c>
   2ab14:	80 00 00 00 	nop
   2ab18:	80 00 00 00 	nop
                        {
                            val_seg = ArgIntVal / m_pow_n(10, cnt - 1);
   2ab1c:	99 04 3f f8 	addi gr16 gr16 ffffffff <Flash0CtrlRegs+0xfef5ffff>
   2ab20:	95 30 00 a9 	moviglz gr19 a <_core0_exp_start+0x5>
   2ab24:	90 44 c0 80 	movg2g gr4 gr19
   2ab28:	90 54 00 80 	movg2g gr5 gr16
   2ab2c:	80 00 1f 8d 	call 2af20 <m_pow_n>
   2ab30:	80 00 00 00 	nop
   2ab34:	80 00 00 00 	nop
   2ab38:	80 00 00 00 	nop
   2ab3c:	90 50 80 80 	movg2g gr5 gr2
   2ab40:	90 44 80 80 	movg2g gr4 gr18
   2ab44:	83 ff 82 8d 	call 29b98 <__udivsi3>
   2ab48:	80 00 00 00 	nop
   2ab4c:	80 00 00 00 	nop
   2ab50:	80 00 00 00 	nop
   2ab54:	91 40 80 80 	movg2g gr20 gr2
                            ArgIntVal %= m_pow_n(10, cnt - 1);
   2ab58:	90 44 c0 80 	movg2g gr4 gr19
   2ab5c:	90 54 00 80 	movg2g gr5 gr16
   2ab60:	80 00 1d ed 	call 2af20 <m_pow_n>
   2ab64:	80 00 00 00 	nop
   2ab68:	80 00 00 00 	nop
   2ab6c:	80 00 00 00 	nop
   2ab70:	90 50 80 80 	movg2g gr5 gr2
   2ab74:	90 44 80 80 	movg2g gr4 gr18
   2ab78:	83 ff 8e 6d 	call 29d48 <__umodsi3>
   2ab7c:	80 00 00 00 	nop
   2ab80:	80 00 00 00 	nop
   2ab84:	80 00 00 00 	nop
                            putchar((char)val_seg + '0');
   2ab88:	98 35 18 06 	sli gr3 gr20 18 <_core1_exp_start+0x1>
   2ab8c:	94 43 00 01 	movigh gr4 3000 <.L0 +0x3>
   2ab90:	94 40 00 05 	movigl gr4 0 <_cla_int_entry_group0_0>
   2ab94:	84 30 c4 00 	add gr3 gr3 gr4
   2ab98:	98 40 d8 0a 	srai gr4 gr3 18 <_core1_exp_start+0x1>

                        // Õ░åµĢ┤µĢ░ĶĮ¼õĖ║ÕŹĢõĖ¬ÕŁŚń¼”µēōÕŹ░
                        while (cnt)
                        {
                            val_seg = ArgIntVal / m_pow_n(10, cnt - 1);
                            ArgIntVal %= m_pow_n(10, cnt - 1);
   2ab9c:	91 20 80 80 	movg2g gr18 gr2
                            putchar((char)val_seg + '0');
   2aba0:	83 ff d9 ed 	call 2a6e0 <putchar>
   2aba4:	80 00 00 00 	nop
   2aba8:	80 00 00 00 	nop
   2abac:	80 00 00 00 	nop
                            cnt = 1; // µĢ░ÕŁŚ0ńÜäķĢ┐Õ║”õĖ║1

                        ret_num += cnt; // ÕŁŚń¼”õĖ¬µĢ░ÕŖĀõĖŖµĢ┤µĢ░ńÜäķĢ┐Õ║”

                        // Õ░åµĢ┤µĢ░ĶĮ¼õĖ║ÕŹĢõĖ¬ÕŁŚń¼”µēōÕŹ░
                        while (cnt)
   2abb0:	83 ff fa c1 	jmp 2ab0c <.L0 +0x2ec>
   2abb4:	80 00 00 00 	nop
   2abb8:	80 00 00 00 	nop
                            val_seg = ArgIntVal / m_pow_n(10, cnt - 1);
                            ArgIntVal %= m_pow_n(10, cnt - 1);
                            putchar((char)val_seg + '0');
                            cnt--;
                        }
                        pStr++;
   2abbc:	99 25 80 08 	addi gr18 gr22 1 <_cla_int_entry_group0_0+0x1>
                            putchar((char)val_seg + '0');
                            cnt--;
                        }
                        ret_num += 6;
                        pStr++;
                        continue;
   2abc0:	83 ff df 01 	jmp 2a7a4 <printf+0x44>
   2abc4:	80 00 00 00 	nop
   2abc8:	80 00 00 00 	nop
                        continue;
#endif
#if 1 // %f µēōÕŹ░µö»µīü
                    case 'f':
                        // µÄźµöČµĄ«ńé╣Õ×ŗ õ┐ØńĢÖ6õĖ║Õ░ÅµĢ░’╝īõĖŹķććÕÅ¢ÕøøĶłŹõ║öÕģź
                        ArgFloVal = va_arg(pArgs, double);
   2abcc:	a8 27 80 42 	load32 gr2 gr30 2 <_cla_int_entry_group0_0+0x2>
   2abd0:	98 30 80 20 	addi gr3 gr2 4 <_cla_int_entry_group0_0+0x4>
   2abd4:	ec 37 80 42 	store32 gr3 gr30 2 <_cla_int_entry_group0_0+0x2>
   2abd8:	a9 30 80 02 	load32 gr19 gr2 0 <_cla_int_entry_group0_0>
                        val_seg   = (unsigned long)ArgFloVal; // ÕÅ¢µĢ┤µĢ░ķā©Õłå
   2abdc:	90 44 c0 80 	movg2g gr4 gr19
   2abe0:	83 ff 6e 6d 	call 299b0 <__fixunssfsi>
   2abe4:	80 00 00 00 	nop
   2abe8:	80 00 00 00 	nop
   2abec:	80 00 00 00 	nop
   2abf0:	91 20 80 80 	movg2g gr18 gr2
                        val_temp  = val_seg;                  // õĖ┤µŚČõ┐ØÕŁśµĢ┤µĢ░ķā©ÕłåµĢ░µŹ«
                        ArgFloVal = ArgFloVal - val_seg;      // ÕŠŚÕć║õĮÖõĖŗńÜäÕ░ÅµĢ░ķā©Õłå
   2abf4:	90 44 80 80 	movg2g gr4 gr18
   2abf8:	83 ff 72 cd 	call 29a54 <__floatunsisf>
   2abfc:	80 00 00 00 	nop
   2ac00:	80 00 00 00 	nop
   2ac04:	80 00 00 00 	nop
   2ac08:	85 44 c2 66 	fssub gr20 gr19 gr2
                        // Ķ«Īń«ŚµĢ┤µĢ░ķā©ÕłåķĢ┐Õ║”
                        if (val_seg)
   2ac0c:	94 04 80 02 	eqi gr18 0 <_cla_int_entry_group0_0>
   2ac10:	95 30 00 19 	moviglz gr19 1 <_cla_int_entry_group0_0+0x1>
   2ac14:	90 24 80 80 	movg2g gr2 gr18
   2ac18:	80 00 00 e5 	jc 2ac38 <.L0 +0x418>
   2ac1c:	80 00 00 00 	nop
   2ac20:	80 00 00 00 	nop
                        {
                            while (val_seg)
   2ac24:	94 00 80 02 	eqi gr2 0 <_cla_int_entry_group0_0>
   2ac28:	80 00 12 e9 	jnc 2ae88 <.L0 +0x80>
   2ac2c:	80 00 00 00 	nop
   2ac30:	80 00 00 00 	nop
   2ac34:	91 34 00 80 	movg2g gr19 gr16
                                val_seg /= 10;
                            }
                        }
                        else
                            cnt = 1;    // µĢ░ÕŁŚ0ńÜäķĢ┐Õ║”õĖ║1
                        ret_num += cnt; // ÕŁŚń¼”õĖ¬µĢ░ÕŖĀõĖŖµĢ┤µĢ░ńÜäķĢ┐Õ║”
   2ac38:	85 54 53 00 	add gr21 gr17 gr19
                        // Õ░åµĢ┤µĢ░ĶĮ¼õĖ║ÕŹĢõĖ¬ÕŁŚń¼”µēōÕŹ░
                        while (cnt)
   2ac3c:	94 04 c0 02 	eqi gr19 0 <_cla_int_entry_group0_0>
   2ac40:	80 00 05 45 	jc 2acec <.L0 +0x4cc>
   2ac44:	80 00 00 00 	nop
   2ac48:	80 00 00 00 	nop
                        {
                            val_seg = val_temp / m_pow_n(10, cnt - 1);
   2ac4c:	99 34 ff f8 	addi gr19 gr19 ffffffff <Flash0CtrlRegs+0xfef5ffff>
   2ac50:	95 00 00 a9 	moviglz gr16 a <_core0_exp_start+0x5>
   2ac54:	90 44 00 80 	movg2g gr4 gr16
   2ac58:	90 54 c0 80 	movg2g gr5 gr19
   2ac5c:	80 00 16 0d 	call 2af20 <m_pow_n>
   2ac60:	80 00 00 00 	nop
   2ac64:	80 00 00 00 	nop
   2ac68:	80 00 00 00 	nop
   2ac6c:	90 50 80 80 	movg2g gr5 gr2
   2ac70:	90 44 80 80 	movg2g gr4 gr18
   2ac74:	83 ff 79 0d 	call 29b98 <__udivsi3>
   2ac78:	80 00 00 00 	nop
   2ac7c:	80 00 00 00 	nop
   2ac80:	80 00 00 00 	nop
   2ac84:	91 10 80 80 	movg2g gr17 gr2
                            val_temp %= m_pow_n(10, cnt - 1);
   2ac88:	90 44 00 80 	movg2g gr4 gr16
   2ac8c:	90 54 c0 80 	movg2g gr5 gr19
   2ac90:	80 00 14 6d 	call 2af20 <m_pow_n>
   2ac94:	80 00 00 00 	nop
   2ac98:	80 00 00 00 	nop
   2ac9c:	80 00 00 00 	nop
   2aca0:	90 50 80 80 	movg2g gr5 gr2
   2aca4:	90 44 80 80 	movg2g gr4 gr18
   2aca8:	83 ff 84 ed 	call 29d48 <__umodsi3>
   2acac:	80 00 00 00 	nop
   2acb0:	80 00 00 00 	nop
   2acb4:	80 00 00 00 	nop
                            putchar((char)val_seg + '0');
   2acb8:	98 34 58 06 	sli gr3 gr17 18 <_core1_exp_start+0x1>
   2acbc:	94 43 00 01 	movigh gr4 3000 <.L0 +0x3>
   2acc0:	94 40 00 05 	movigl gr4 0 <_cla_int_entry_group0_0>
   2acc4:	84 30 c4 00 	add gr3 gr3 gr4
   2acc8:	98 40 d8 0a 	srai gr4 gr3 18 <_core1_exp_start+0x1>
                        ret_num += cnt; // ÕŁŚń¼”õĖ¬µĢ░ÕŖĀõĖŖµĢ┤µĢ░ńÜäķĢ┐Õ║”
                        // Õ░åµĢ┤µĢ░ĶĮ¼õĖ║ÕŹĢõĖ¬ÕŁŚń¼”µēōÕŹ░
                        while (cnt)
                        {
                            val_seg = val_temp / m_pow_n(10, cnt - 1);
                            val_temp %= m_pow_n(10, cnt - 1);
   2accc:	91 20 80 80 	movg2g gr18 gr2
                            putchar((char)val_seg + '0');
   2acd0:	83 ff d0 6d 	call 2a6e0 <putchar>
   2acd4:	80 00 00 00 	nop
   2acd8:	80 00 00 00 	nop
   2acdc:	80 00 00 00 	nop
                        }
                        else
                            cnt = 1;    // µĢ░ÕŁŚ0ńÜäķĢ┐Õ║”õĖ║1
                        ret_num += cnt; // ÕŁŚń¼”õĖ¬µĢ░ÕŖĀõĖŖµĢ┤µĢ░ńÜäķĢ┐Õ║”
                        // Õ░åµĢ┤µĢ░ĶĮ¼õĖ║ÕŹĢõĖ¬ÕŁŚń¼”µēōÕŹ░
                        while (cnt)
   2ace0:	83 ff fa c1 	jmp 2ac3c <.L0 +0x41c>
   2ace4:	80 00 00 00 	nop
   2ace8:	80 00 00 00 	nop
   2acec:	94 40 02 e9 	moviglz gr4 2e <.L0 +0x8>
                            val_temp %= m_pow_n(10, cnt - 1);
                            putchar((char)val_seg + '0');
                            cnt--;
                        }
                        // µēōÕŹ░Õ░ÅµĢ░ńé╣
                        putchar('.');
   2acf0:	83 ff cf 6d 	call 2a6e0 <putchar>
   2acf4:	80 00 00 00 	nop
   2acf8:	80 00 00 00 	nop
   2acfc:	80 00 00 00 	nop
   2ad00:	94 20 00 11 	movigh gr2 1 <_cla_int_entry_group0_0+0x1>
   2ad04:	94 20 04 45 	movigl gr2 44 <.L0 +0x3>
   2ad08:	19 55 40 08 ®░	addi gr21 gr21 1 <_cla_int_entry_group0_0+0x1>
   2ad0c:	a8 20 80 02 ®Ė	load32 gr2 gr2 0 <_cla_int_entry_group0_0>
   2ad10:	95 00 00 69 	moviglz gr16 6 <_core0_exp_start+0x1>
                        ret_num++;
                        // Õ╝ĆÕ¦ŗĶŠōÕć║Õ░ÅµĢ░ķā©Õłå
                        ArgFloVal *= 1000000;
   2ad14:	84 25 02 8a 	fsmul gr2 gr20 gr2
                        // printf("\r\n %f\r\n", ArgFloVal);
                        cnt      = 6;
                        val_temp = (int)ArgFloVal; // ÕÅ¢µĢ┤µĢ░ķā©Õłå
   2ad18:	91 10 80 90 	fcvtsf gr17 gr2
                        while (cnt)
   2ad1c:	94 04 00 02 	eqi gr16 0 <_cla_int_entry_group0_0>
   2ad20:	80 00 05 45 	jc 2adcc <.L0 +0x5ac>
   2ad24:	80 00 00 00 	nop
   2ad28:	80 00 00 00 	nop
                        {
                            val_seg = val_temp / m_pow_n(10, cnt - 1);
   2ad2c:	99 04 3f f8 	addi gr16 gr16 ffffffff <Flash0CtrlRegs+0xfef5ffff>
   2ad30:	95 20 00 a9 	moviglz gr18 a <_core0_exp_start+0x5>
   2ad34:	90 44 80 80 	movg2g gr4 gr18
   2ad38:	90 54 00 80 	movg2g gr5 gr16
   2ad3c:	80 00 0f 0d 	call 2af20 <m_pow_n>
   2ad40:	80 00 00 00 	nop
   2ad44:	80 00 00 00 	nop
   2ad48:	80 00 00 00 	nop
   2ad4c:	90 50 80 80 	movg2g gr5 gr2
   2ad50:	90 44 40 80 	movg2g gr4 gr17
   2ad54:	83 ff 72 0d 	call 29b98 <__udivsi3>
   2ad58:	80 00 00 00 	nop
   2ad5c:	80 00 00 00 	nop
   2ad60:	80 00 00 00 	nop
   2ad64:	91 30 80 80 	movg2g gr19 gr2
                            val_temp %= m_pow_n(10, cnt - 1);
   2ad68:	90 44 80 80 	movg2g gr4 gr18
   2ad6c:	90 54 00 80 	movg2g gr5 gr16
   2ad70:	80 00 0d 6d 	call 2af20 <m_pow_n>
   2ad74:	80 00 00 00 	nop
   2ad78:	80 00 00 00 	nop
   2ad7c:	80 00 00 00 	nop
   2ad80:	90 50 80 80 	movg2g gr5 gr2
   2ad84:	90 44 40 80 	movg2g gr4 gr17
   2ad88:	83 ff 7d ed 	call 29d48 <__umodsi3>
   2ad8c:	80 00 00 00 	nop
   2ad90:	80 00 00 00 	nop
   2ad94:	80 00 00 00 	nop
                            putchar((char)val_seg + '0');
   2ad98:	98 34 d8 06 	sli gr3 gr19 18 <_core1_exp_start+0x1>
   2ad9c:	94 43 00 01 	movigh gr4 3000 <.L0 +0x3>
   2ada0:	94 40 00 05 	movigl gr4 0 <_cla_int_entry_group0_0>
   2ada4:	84 30 c4 00 	add gr3 gr3 gr4
   2ada8:	98 40 d8 0a 	srai gr4 gr3 18 <_core1_exp_start+0x1>
                        cnt      = 6;
                        val_temp = (int)ArgFloVal; // ÕÅ¢µĢ┤µĢ░ķā©Õłå
                        while (cnt)
                        {
                            val_seg = val_temp / m_pow_n(10, cnt - 1);
                            val_temp %= m_pow_n(10, cnt - 1);
   2adac:	91 10 80 80 	movg2g gr17 gr2
                            putchar((char)val_seg + '0');
   2adb0:	83 ff c9 6d 	call 2a6e0 <putchar>
   2adb4:	80 00 00 00 	nop
   2adb8:	80 00 00 00 	nop
   2adbc:	80 00 00 00 	nop
                        // Õ╝ĆÕ¦ŗĶŠōÕć║Õ░ÅµĢ░ķā©Õłå
                        ArgFloVal *= 1000000;
                        // printf("\r\n %f\r\n", ArgFloVal);
                        cnt      = 6;
                        val_temp = (int)ArgFloVal; // ÕÅ¢µĢ┤µĢ░ķā©Õłå
                        while (cnt)
   2adc0:	83 ff fa c1 	jmp 2ad1c <.L0 +0x4fc>
   2adc4:	80 00 00 00 	nop
   2adc8:	80 00 00 00 	nop
                            val_seg = val_temp / m_pow_n(10, cnt - 1);
                            val_temp %= m_pow_n(10, cnt - 1);
                            putchar((char)val_seg + '0');
                            cnt--;
                        }
                        ret_num += 6;
   2adcc:	99 15 40 30 	addi gr17 gr21 6 <_core0_exp_start+0x1>
                        pStr++;
   2add0:	99 25 80 08 	addi gr18 gr22 1 <_cla_int_entry_group0_0+0x1>
                        continue;
   2add4:	83 ff ce 61 	jmp 2a7a4 <printf+0x44>
   2add8:	80 00 00 00 	nop
   2addc:	80 00 00 00 	nop
   2ade0:	94 40 02 09 	moviglz gr4 20 <_cla_int_entry_group0_2>
                    default: // % Õī╣ķģŹķöÖĶ»»’╝īµÜéĶŠōÕć║ń®║µĀ╝
                        putchar(' ');
   2ade4:	83 ff c7 cd 	call 2a6e0 <putchar>
   2ade8:	80 00 00 00 	nop
   2adec:	80 00 00 00 	nop
   2adf0:	80 00 00 00 	nop
                        ret_num++;
   2adf4:	99 14 40 08 	addi gr17 gr17 1 <_cla_int_entry_group0_0+0x1>
   2adf8:	91 25 80 80 	movg2g gr18 gr22
                        continue;
   2adfc:	83 ff cd 21 	jmp 2a7a4 <printf+0x44>
   2ae00:	80 00 00 00 	nop
   2ae04:	80 00 00 00 	nop

0002ae08 <.L0 >:
   2ae08:	a8 24 80 00 	load8 gr2 gr18 0 <_cla_int_entry_group0_0>
   2ae0c:	90 40 80 46 	cbw gr4 gr2
   2ae10:	83 ff c6 6d 	call 2a6e0 <putchar>
   2ae14:	80 00 00 00 	nop
   2ae18:	80 00 00 00 	nop
   2ae1c:	80 00 00 00 	nop
   2ae20:	99 14 40 08 	addi gr17 gr17 1 <_cla_int_entry_group0_0+0x1>
            default:
                putchar(*pStr);
                ret_num++;
                break;
        }
        pStr++;
   2ae24:	99 24 80 08 	addi gr18 gr18 1 <_cla_int_entry_group0_0+0x1>
    int cnt                 = 0;           // µĢ░µŹ«ķĢ┐Õ║”Ķ«ĪµĢ░
    int i                   = 0;

    va_list pArgs;        // Õ«Üõ╣ēva_listń▒╗Õ×ŗµīćķÆł’╝īńö©õ║ÄÕŁśÕé©ÕÅéµĢ░ńÜäÕ£░ÕØĆ
    va_start(pArgs, str); // ÕłØÕ¦ŗÕī¢pArgs
    while (*pStr != '\0')
   2ae28:	83 ff cb c1 	jmp 2a7a4 <printf+0x44>
   2ae2c:	80 00 00 00 	nop
   2ae30:	80 00 00 00 	nop
        }
        pStr++;
    }
    va_end(pArgs); // ń╗ōµØ¤ÕÅ¢ÕÅéµĢ░

    return ret_num;
   2ae34:	10 24 40 80 ®░	movg2g gr2 gr17
   2ae38:	a9 07 80 62 ®Ė	load32 gr16 gr30 3 <_cla_int_entry_group0_0+0x3>
   2ae3c:	a9 17 80 82 	load32 gr17 gr30 4 <_cla_int_entry_group0_0+0x4>
   2ae40:	a9 27 80 a2 	load32 gr18 gr30 5 <_core0_exp_start>
   2ae44:	a9 37 80 c2 	load32 gr19 gr30 6 <_core0_exp_start+0x1>
   2ae48:	a9 47 80 e2 	load32 gr20 gr30 7 <_core0_exp_start+0x2>
   2ae4c:	a9 57 81 02 	load32 gr21 gr30 8 <_core0_exp_start+0x3>
   2ae50:	a9 67 81 22 	load32 gr22 gr30 9 <_core0_exp_start+0x4>
   2ae54:	a9 f7 81 42 	load32 gr31 gr30 a <_core0_exp_start+0x5>
   2ae58:	99 e7 81 80 	addi gr30 gr30 30 <_cla_int_entry_group0_3>
   2ae5c:	80 00 00 04 	ret
   2ae60:	80 00 00 00 	nop
   2ae64:	80 00 00 00 	nop
   2ae68:	94 3c cc c1 	movigh gr3 ffffcccc <Flash0CtrlRegs+0xfef5cccc>
   2ae6c:	94 3c cc d5 	movigl gr3 ffffcccd <Flash0CtrlRegs+0xfef5cccd>
                        // Ķ«Īń«ŚArgIntValķĢ┐Õ║”
                        if (ArgIntVal)
                        {
                            while (val_seg)
                            {
                                cnt++;
   2ae70:	99 04 00 08 	addi gr16 gr16 1 <_cla_int_entry_group0_0+0x1>
                                val_seg /= 10;
   2ae74:	84 20 83 1d 	mulu64 gr2 gr2 gr3
   2ae78:	98 20 83 0e 	srli gr2 gr2 3 <_cla_int_entry_group0_0+0x3>
                        }
                        val_seg = ArgIntVal; // ĶĄŗÕĆ╝ń╗Ö val_segÕżäńÉåµĢ░µŹ«
                        // Ķ«Īń«ŚArgIntValķĢ┐Õ║”
                        if (ArgIntVal)
                        {
                            while (val_seg)
   2ae7c:	83 ff e3 81 	jmp 2aaf0 <.L0 +0x2d0>
   2ae80:	80 00 00 00 	nop
   2ae84:	80 00 00 00 	nop
   2ae88:	94 3c cc c1 	movigh gr3 ffffcccc <Flash0CtrlRegs+0xfef5cccc>
   2ae8c:	94 3c cc d5 	movigl gr3 ffffcccd <Flash0CtrlRegs+0xfef5cccd>
                        // Ķ«Īń«ŚµĢ┤µĢ░ķā©ÕłåķĢ┐Õ║”
                        if (val_seg)
                        {
                            while (val_seg)
                            {
                                cnt++;
   2ae90:	99 04 00 08 	addi gr16 gr16 1 <_cla_int_entry_group0_0+0x1>
                                val_seg /= 10;
   2ae94:	84 20 83 1d 	mulu64 gr2 gr2 gr3
   2ae98:	98 20 83 0e 	srli gr2 gr2 3 <_cla_int_entry_group0_0+0x3>
                        val_temp  = val_seg;                  // õĖ┤µŚČõ┐ØÕŁśµĢ┤µĢ░ķā©ÕłåµĢ░µŹ«
                        ArgFloVal = ArgFloVal - val_seg;      // ÕŠŚÕć║õĮÖõĖŗńÜäÕ░ÅµĢ░ķā©Õłå
                        // Ķ«Īń«ŚµĢ┤µĢ░ķā©ÕłåķĢ┐Õ║”
                        if (val_seg)
                        {
                            while (val_seg)
   2ae9c:	83 ff ec 21 	jmp 2ac24 <.L0 +0x404>
   2aea0:	80 00 00 00 	nop
   2aea4:	80 00 00 00 	nop

0002aea8 <puts>:
    while (!dbg_uart->SCICTL2.bit.TXRDY)
        ;
}

__attribute__((weak)) void puts(const char *str)
{
   2aea8:	99 e7 bf 80 	addi gr30 gr30 fffffff0 <Flash0CtrlRegs+0xfef5fff0>
   2aeac:	ed f7 80 62 	store32 gr31 gr30 3 <_cla_int_entry_group0_0+0x3>
   2aeb0:	ed 07 80 42 	store32 gr16 gr30 2 <_cla_int_entry_group0_0+0x2>
   2aeb4:	91 01 00 80 	movg2g gr16 gr4
    while (*str)
   2aeb8:	a8 24 00 00 	load8 gr2 gr16 0 <_cla_int_entry_group0_0>
   2aebc:	94 00 80 02 	eqi gr2 0 <_cla_int_entry_group0_0>
   2aec0:	80 00 01 85 	jc 2aef4 <puts+0x4c>
   2aec4:	80 00 00 00 	nop
   2aec8:	80 00 00 00 	nop
    {
        putchar(*str);
   2aecc:	a8 24 00 00 	load8 gr2 gr16 0 <_cla_int_entry_group0_0>
   2aed0:	90 40 80 46 	cbw gr4 gr2
   2aed4:	83 ff c0 4d 	call 2a6e0 <putchar>
   2aed8:	80 00 00 00 	nop
   2aedc:	80 00 00 00 	nop
   2aee0:	80 00 00 00 	nop
        str++;
   2aee4:	99 04 00 08 	addi gr16 gr16 1 <_cla_int_entry_group0_0+0x1>
        ;
}

__attribute__((weak)) void puts(const char *str)
{
    while (*str)
   2aee8:	83 ff fe 61 	jmp 2aeb8 <puts+0x10>
   2aeec:	80 00 00 00 	nop
   2aef0:	80 00 00 00 	nop
   2aef4:	94 40 00 a9 	moviglz gr4 a <_core0_exp_start+0x5>
    {
        putchar(*str);
        str++;
    }
    putchar('\n');
   2aef8:	83 ff bf 2d 	call 2a6e0 <putchar>
   2aefc:	80 00 00 00 	nop
   2af00:	80 00 00 00 	nop
   2af04:	80 00 00 00 	nop
}
   2af08:	a9 07 80 42 	load32 gr16 gr30 2 <_cla_int_entry_group0_0+0x2>
   2af0c:	a9 f7 80 62 	load32 gr31 gr30 3 <_cla_int_entry_group0_0+0x3>
   2af10:	99 e7 80 80 	addi gr30 gr30 10 <_cla_int_entry_group0_1>
   2af14:	80 00 00 04 	ret
   2af18:	80 00 00 00 	nop
   2af1c:	80 00 00 00 	nop

0002af20 <m_pow_n>:

// Ķ«Īń«Śm^n
__attribute__((weak)) unsigned long m_pow_n(unsigned long m, unsigned long n)
{
   2af20:	80 00 00 00 	nop
   2af24:	94 20 00 09 	moviglz gr2 0 <_cla_int_entry_group0_0>
   2af28:	94 30 00 19 	moviglz gr3 1 <_cla_int_entry_group0_0+0x1>
    unsigned long i = 0, ret = 1;
    if (n < 0)
   2af2c:	94 00 80 06 	neqi gr2 0 <_cla_int_entry_group0_0>
   2af30:	80 00 00 e5 	jc 2af50 <m_pow_n+0x30>
   2af34:	80 00 00 00 	nop
   2af38:	80 00 00 00 	nop
        return 0;
    for (i = 0; i < n; i++)
   2af3c:	90 00 85 0c 	geu gr2 gr5
   2af40:	80 00 00 c9 	jnc 2af5c <m_pow_n+0x3c>
   2af44:	80 00 00 00 	nop
   2af48:	80 00 00 00 	nop
   2af4c:	90 20 c0 80 	movg2g gr2 gr3
        ret *= m;
    return ret;
}
   2af50:	80 00 00 04 	ret
   2af54:	80 00 00 00 	nop
   2af58:	80 00 00 00 	nop
{
    unsigned long i = 0, ret = 1;
    if (n < 0)
        return 0;
    for (i = 0; i < n; i++)
        ret *= m;
   2af5c:	84 30 c4 0c 	mul32 gr3 gr3 gr4
__attribute__((weak)) unsigned long m_pow_n(unsigned long m, unsigned long n)
{
    unsigned long i = 0, ret = 1;
    if (n < 0)
        return 0;
    for (i = 0; i < n; i++)
   2af60:	98 20 80 08 	addi gr2 gr2 1 <_cla_int_entry_group0_0+0x1>
   2af64:	83 ff fe a1 	jmp 2af3c <m_pow_n+0x1c>
   2af68:	80 00 00 00 	nop
   2af6c:	80 00 00 00 	nop

0002af70 <Device_init>:
// known state by disabling the watchdog, setting up the SYSCLKOUT frequency,
// and enabling the clocks to the peripherals.
//
//*****************************************************************************
void Device_init(void)
{
   2af70:	99 e7 bf 80 	addi gr30 gr30 fffffff0 <Flash0CtrlRegs+0xfef5fff0>
   2af74:	ed f7 80 62 	store32 gr31 gr30 3 <_cla_int_entry_group0_0+0x3>
   2af78:	94 48 00 11 	movigh gr4 ffff8001 <Flash0CtrlRegs+0xfef58001>
   2af7c:	94 40 11 45 	movigl gr4 114 <.L0 +0x4>
#ifdef CPU1

    //
    // Set up PLL control and clock dividers
    //
    SysCtl_setClock(DEVICE_SETCLOCK_CFG);
   2af80:	80 00 1b 6d 	call 2b2f0 <SysCtl_setClock>
   2af84:	80 00 00 00 	nop
   2af88:	80 00 00 00 	nop
   2af8c:	80 00 00 00 	nop
   2af90:	94 40 00 09 	moviglz gr4 0 <_cla_int_entry_group0_0>

    //
    // Make sure the LSPCLK divider is set to the default (divide by 4)
    //
    SysCtl_setLowSpeedClock(SYSCTL_LSPCLK_PRESCALE_1);
   2af94:	80 00 01 0d 	call 2afb8 <SysCtl_setLowSpeedClock>
   2af98:	80 00 00 00 	nop
   2af9c:	80 00 00 00 	nop
   2afa0:	80 00 00 00 	nop

    //
    // Turn on all peripherals
    //
    // Device_enableAllPeripherals();
}
   2afa4:	a9 f7 80 62 	load32 gr31 gr30 3 <_cla_int_entry_group0_0+0x3>
   2afa8:	99 e7 80 80 	addi gr30 gr30 10 <_cla_int_entry_group0_1>
   2afac:	80 00 00 04 	ret
   2afb0:	80 00 00 00 	nop
   2afb4:	80 00 00 00 	nop

0002afb8 <SysCtl_setLowSpeedClock>:
//!
//! \return None.
//
//*****************************************************************************
static inline void SysCtl_setLowSpeedClock(SysCtl_LSPCLKPrescaler prescaler)
{
   2afb8:	80 00 00 00 	nop
    //
    // Write the divider selection to the appropriate register.
    //
    EALLOW;
   2afbc:	80 00 00 10 	eallow
   2afc0:	94 20 10 71 	movigh gr2 107 <cla_interrupt_defaulthandler+0x7>
   2afc4:	94 21 04 05 	movigl gr2 1040 <.L0 +0x1c>
    HWREG(CLKCFG_BASE + SYSCTL_O_LOSPCP)
        = (HWREG(CLKCFG_BASE + SYSCTL_O_LOSPCP) & ~(uint32_t)SYSCTL_LOSPCP_LSPCLKDIV_M)
   2afc8:	14 5f ff 8d ®░	moviglx gr5 fffffff8 <Flash0CtrlRegs+0xfef5fff8>
   2afcc:	a8 30 80 02 ®Ė	load32 gr3 gr2 0 <_cla_int_entry_group0_0>
   2afd0:	84 30 c5 04 	and gr3 gr3 gr5
          | (uint32_t)prescaler;
   2afd4:	84 30 c4 05 	or gr3 gr3 gr4
    //
    // Write the divider selection to the appropriate register.
    //
    EALLOW;
    HWREG(CLKCFG_BASE + SYSCTL_O_LOSPCP)
        = (HWREG(CLKCFG_BASE + SYSCTL_O_LOSPCP) & ~(uint32_t)SYSCTL_LOSPCP_LSPCLKDIV_M)
   2afd8:	ec 30 80 02 	store32 gr3 gr2 0 <_cla_int_entry_group0_0>
          | (uint32_t)prescaler;
    EDIS;
   2afdc:	80 00 00 14 	edis
}
   2afe0:	80 00 00 04 	ret
   2afe4:	80 00 00 00 	nop
   2afe8:	80 00 00 00 	nop

0002afec <device_copytrim>:
// 0x0: 32-bit valid, TRIM_VALID_KEY
// 0x4: 12-bit valid, INTOSC1TRIM
// 0x8: 12-bit valid, INTOSC2TRIM

__attribute__((section(".text.qxboot0debug.device_copytrim"))) void device_copytrim()
{
   2afec:	80 00 00 00 	nop
   2aff0:	94 23 02 01 	movigh gr2 3020 <.L0 +0x23>
   2aff4:	94 20 00 05 	movigl gr2 0 <_cla_int_entry_group0_0>
   2aff8:	14 35 a5 a1 ®░	movigh gr3 5a5a <.L0 +0x2c>
   2affc:	a8 20 80 02 ®Ė	load32 gr2 gr2 0 <_cla_int_entry_group0_0>
   2b000:	94 35 a5 a5 	movigl gr3 5a5a <.L0 +0x2c>
    uint32_t key = HWREG(FLASH0OTP1_BASE);
    if (key != TRIM_VALID_KEY)
   2b004:	90 00 83 01 	neq gr2 gr3
   2b008:	80 00 01 c5 	jc 2b044 <device_copytrim+0x58>
   2b00c:	80 00 00 00 	nop
   2b010:	80 00 00 00 	nop
   2b014:	94 23 02 01 	movigh gr2 3020 <.L0 +0x23>
   2b018:	94 20 00 45 	movigl gr2 4 <_cla_int_entry_group0_0+0x4>
   2b01c:	94 30 10 71 	movigh gr3 107 <cla_interrupt_defaulthandler+0x7>
   2b020:	94 33 00 05 	movigl gr3 3000 <.L0 +0x3>
   2b024:	94 43 02 01 	movigh gr4 3020 <.L0 +0x23>
    }

    // HWREG(TRIM_BASE + 0x24) = 0x55AA55AA; // unlock trim

    // copy trim data
    HWREG(ANALOGSUBSYS_BASE + 0x0) = HWREG(FLASH0OTP1_BASE + 0x04);
   2b028:	14 40 00 85 ®░	movigl gr4 8 <_core0_exp_start+0x3>
   2b02c:	a8 20 80 02 ®Ė	load32 gr2 gr2 0 <_cla_int_entry_group0_0>
   2b030:	ec 20 c0 02 	store32 gr2 gr3 0 <_cla_int_entry_group0_0>
    HWREG(ANALOGSUBSYS_BASE + 0x4) = HWREG(FLASH0OTP1_BASE + 0x08);
   2b034:	14 30 10 71 ®░	movigh gr3 107 <cla_interrupt_defaulthandler+0x7>
   2b038:	a8 21 00 02 ®Ė	load32 gr2 gr4 0 <_cla_int_entry_group0_0>
   2b03c:	94 33 00 45 	movigl gr3 3004 <.L0 +0x7>
   2b040:	ec 20 c0 02 	store32 gr2 gr3 0 <_cla_int_entry_group0_0>

    // HWREG(TRIM_BASE + 0x20) = 1;          // enable efuse
    // HWREG(TRIM_BASE + 0x24) = 0xAA55AA55; // lock trim
}
   2b044:	80 00 00 04 	ret
   2b048:	80 00 00 00 	nop
   2b04c:	80 00 00 00 	nop

0002b050 <CLA_setTriggerSource>:
//
// CLA_setTriggerSource()
//
//*****************************************************************************
void CLA_setTriggerSource(CLA_TaskNumber taskNumber, CLA_Trigger trigger)
{
   2b050:	80 00 00 00 	nop
   2b054:	94 20 01 89 	moviglz gr2 18 <_core1_exp_start+0x1>
    uint32_t shiftVal;

    //
    // Calculate the shift value for the specified task.
    //
    shiftVal = ((uint32_t)taskNumber * SYSCTL_CLA1TASKSRCSEL1_TASK2_S) % 32U;
   2b058:	98 31 03 06 	sli gr3 gr4 3 <_cla_int_entry_group0_0+0x3>
   2b05c:	84 20 c2 04 	and gr2 gr3 gr2

    //
    // Calculate the register address for the specified task.
    //
    if (taskNumber <= CLA_TASK_4)
   2b060:	94 01 00 97 	ltiu gr4 4 <_cla_int_entry_group0_0+0x4>
   2b064:	80 00 00 00 	nop
   2b068:	80 00 00 00 	nop
   2b06c:	80 00 00 00 	nop
   2b070:	80 00 00 00 	nop
   2b074:	94 30 10 71 	movigh gr3 107 <cla_interrupt_defaulthandler+0x7>
   2b078:	94 32 0d 85 	movigl gr3 20d8 <.L0 +0x18>
   2b07c:	94 40 10 71 	movigh gr4 107 <cla_interrupt_defaulthandler+0x7>
   2b080:	94 42 0d 45 	movigl gr4 20d4 <.L0 +0x14>
   2b084:	90 31 03 42 	select gr3 gr4 gr3
        // Tasks 5-8

        srcSelReg = (uint32_t)CPUSYS_BASE + SYSCTL_O_CLA1TASKSRCSEL2;
    }

    EALLOW;
   2b088:	80 00 00 10 	eallow
    //
    // Write trigger selection to the appropriate register.
    //
    // HWREG(srcSelReg) &= ~((uint32_t)SYSCTL_CLA1TASKSRCSEL1_TASK1_M << shiftVal);
    // HWREG(srcSelReg) = HWREG(srcSelReg) | ((uint32_t)trigger << shiftVal);
    HWREG(srcSelReg) = (uint32_t)trigger << shiftVal;
   2b08c:	84 21 42 09 	sl gr2 gr5 gr2
   2b090:	ec 20 c0 02 	store32 gr2 gr3 0 <_cla_int_entry_group0_0>

}
   2b094:	80 00 00 04 	ret
   2b098:	80 00 00 00 	nop
   2b09c:	80 00 00 00 	nop

0002b0a0 <GPIO_setDirectionMode>:
//
// GPIO_setDirectionMode
//
//*****************************************************************************
void GPIO_setDirectionMode(uint32_t pin, GPIO_Direction pinIO)
{
   2b0a0:	80 00 00 00 	nop
    //
    // Check the arguments.
    //
    ASSERT(GPIO_isPinValid(pin));

    gpioBaseAddr = (uint32_t *)GPIOCTRL_BASE + ((pin / 32U) * GPIO_CTRL_REGS_STEP);
   2b0a4:	98 31 05 0e 	srli gr3 gr4 5 <_core0_exp_start>
   2b0a8:	94 20 10 61 	movigh gr2 106 <cla_interrupt_defaulthandler+0x6>
   2b0ac:	94 2b 00 05 	movigl gr2 ffffb000 <Flash0CtrlRegs+0xfef5b000>
   2b0b0:	94 60 05 09 	moviglz gr6 50 <_cla_int_entry_group0_5>
   2b0b4:	84 20 c6 85 	mac32 gr2 gr3 gr6
   2b0b8:	94 30 01 f9 	moviglz gr3 1f <_core1_exp_start+0x8>
    pinMask      = (uint32_t)1U << (pin % 32U);
   2b0bc:	84 31 03 04 	and gr3 gr4 gr3
   2b0c0:	94 40 00 19 	moviglz gr4 1 <_cla_int_entry_group0_0+0x1>
   2b0c4:	84 31 03 09 	sl gr3 gr4 gr3

    EALLOW;
   2b0c8:	80 00 00 10 	eallow

    //
    // Set the data direction
    //
    if (pinIO == GPIO_DIR_MODE_OUT)
   2b0cc:	94 01 40 26 	neqi gr5 1 <_cla_int_entry_group0_0+0x1>
   2b0d0:	80 00 00 e5 	jc 2b0f0 <GPIO_setDirectionMode+0x50>
   2b0d4:	80 00 00 00 	nop
   2b0d8:	80 00 00 00 	nop
    {
        //
        // Output
        //
        gpioBaseAddr[GPIO_GPxDIR_INDEX] |= pinMask;
   2b0dc:	a8 40 80 a2 	load32 gr4 gr2 5 <_core0_exp_start>
   2b0e0:	84 31 03 05 	or gr3 gr4 gr3
   2b0e4:	80 00 00 a1 	jmp 2b0fc <GPIO_setDirectionMode+0x5c>
   2b0e8:	80 00 00 00 	nop
   2b0ec:	80 00 00 00 	nop
    else
    {
        //
        // Input
        //
        gpioBaseAddr[GPIO_GPxDIR_INDEX] &= ~pinMask;
   2b0f0:	10 30 c0 44 ®░	not gr3 gr3
   2b0f4:	a8 40 80 a2 ®Ė	load32 gr4 gr2 5 <_core0_exp_start>
   2b0f8:	84 31 03 04 	and gr3 gr4 gr3
   2b0fc:	ec 30 80 a2 	store32 gr3 gr2 5 <_core0_exp_start>
    }

    EDIS;
   2b100:	80 00 00 14 	edis
}
   2b104:	80 00 00 04 	ret
   2b108:	80 00 00 00 	nop
   2b10c:	80 00 00 00 	nop

0002b110 <GPIO_setPadConfig>:
//
// GPIO_setPadConfig
//
//*****************************************************************************
void GPIO_setPadConfig(uint32_t pin, uint32_t pinType)
{
   2b110:	80 00 00 00 	nop
    //
    // Check the arguments.
    //
    ASSERT(GPIO_isPinValid(pin));

    gpioBaseAddr = (uint32_t *)GPIOCTRL_BASE + ((pin / 32U) * GPIO_CTRL_REGS_STEP);
   2b114:	98 31 05 0e 	srli gr3 gr4 5 <_core0_exp_start>
   2b118:	94 20 10 61 	movigh gr2 106 <cla_interrupt_defaulthandler+0x6>
   2b11c:	94 2b 00 05 	movigl gr2 ffffb000 <Flash0CtrlRegs+0xfef5b000>
   2b120:	94 60 05 09 	moviglz gr6 50 <_cla_int_entry_group0_5>
   2b124:	84 20 c6 85 	mac32 gr2 gr3 gr6
   2b128:	94 30 01 f9 	moviglz gr3 1f <_core1_exp_start+0x8>
    pinMask      = (uint32_t)1U << (pin % 32U);
   2b12c:	84 31 03 04 	and gr3 gr4 gr3
   2b130:	94 40 00 19 	moviglz gr4 1 <_cla_int_entry_group0_0+0x1>
   2b134:	84 31 03 09 	sl gr3 gr4 gr3

    EALLOW;
   2b138:	80 00 00 10 	eallow
   2b13c:	94 40 00 49 	moviglz gr4 4 <_cla_int_entry_group0_0+0x4>

    //
    // Enable open drain if necessary
    //
    if ((pinType & GPIO_PIN_TYPE_OD) != 0U)
   2b140:	84 41 44 04 	and gr4 gr5 gr4
   2b144:	94 01 00 02 	eqi gr4 0 <_cla_int_entry_group0_0>
   2b148:	80 00 00 e5 	jc 2b168 <GPIO_setPadConfig+0x58>
   2b14c:	80 00 00 00 	nop
   2b150:	80 00 00 00 	nop
    {
        gpioBaseAddr[GPIO_GPxODR_INDEX] |= pinMask;
   2b154:	a8 40 81 02 	load32 gr4 gr2 8 <_core0_exp_start+0x3>
   2b158:	84 41 03 05 	or gr4 gr4 gr3
   2b15c:	80 00 00 a1 	jmp 2b174 <GPIO_setPadConfig+0x64>
   2b160:	80 00 00 00 	nop
   2b164:	80 00 00 00 	nop
    }
    else
    {
        gpioBaseAddr[GPIO_GPxODR_INDEX] &= ~pinMask;
   2b168:	10 60 c0 44 ®░	not gr6 gr3
   2b16c:	a8 40 81 02 ®Ė	load32 gr4 gr2 8 <_core0_exp_start+0x3>
   2b170:	84 41 06 04 	and gr4 gr4 gr6
   2b174:	ec 40 81 02 	store32 gr4 gr2 8 <_core0_exp_start+0x3>
   2b178:	94 40 00 19 	moviglz gr4 1 <_cla_int_entry_group0_0+0x1>
    }

    //
    // Enable pull-up if necessary
    //
    if ((pinType & GPIO_PIN_TYPE_PULLUP) != 0U)
   2b17c:	84 41 44 04 	and gr4 gr5 gr4
   2b180:	94 01 00 02 	eqi gr4 0 <_cla_int_entry_group0_0>
   2b184:	80 00 01 05 	jc 2b1a8 <GPIO_setPadConfig+0x98>
   2b188:	80 00 00 00 	nop
   2b18c:	80 00 00 00 	nop
    {
        gpioBaseAddr[GPIO_GPxPUD_INDEX] &= ~pinMask;
   2b190:	10 60 c0 44 ®░	not gr6 gr3
   2b194:	a8 40 80 c2 ®Ė	load32 gr4 gr2 6 <_core0_exp_start+0x1>
   2b198:	84 41 06 04 	and gr4 gr4 gr6
   2b19c:	80 00 00 81 	jmp 2b1b0 <GPIO_setPadConfig+0xa0>
   2b1a0:	80 00 00 00 	nop
   2b1a4:	80 00 00 00 	nop
    }
    else
    {
        gpioBaseAddr[GPIO_GPxPUD_INDEX] |= pinMask;
   2b1a8:	a8 40 80 c2 	load32 gr4 gr2 6 <_core0_exp_start+0x1>
   2b1ac:	84 41 03 05 	or gr4 gr4 gr3
   2b1b0:	ec 40 80 c2 	store32 gr4 gr2 6 <_core0_exp_start+0x1>
   2b1b4:	94 40 00 29 	moviglz gr4 2 <_cla_int_entry_group0_0+0x2>
    }

    //
    // Invert polarity if necessary
    //
    if ((pinType & GPIO_PIN_TYPE_INVERT) != 0U)
   2b1b8:	84 41 44 04 	and gr4 gr5 gr4
   2b1bc:	94 01 00 02 	eqi gr4 0 <_cla_int_entry_group0_0>
   2b1c0:	80 00 00 e5 	jc 2b1e0 <GPIO_setPadConfig+0xd0>
   2b1c4:	80 00 00 00 	nop
   2b1c8:	80 00 00 00 	nop
    {
        gpioBaseAddr[GPIO_GPxINV_INDEX] |= pinMask;
   2b1cc:	a8 40 80 e2 	load32 gr4 gr2 7 <_core0_exp_start+0x2>
   2b1d0:	84 31 03 05 	or gr3 gr4 gr3
   2b1d4:	80 00 00 a1 	jmp 2b1ec <GPIO_setPadConfig+0xdc>
   2b1d8:	80 00 00 00 	nop
   2b1dc:	80 00 00 00 	nop
    }
    else
    {
        gpioBaseAddr[GPIO_GPxINV_INDEX] &= ~pinMask;
   2b1e0:	10 30 c0 44 ®░	not gr3 gr3
   2b1e4:	a8 40 80 e2 ®Ė	load32 gr4 gr2 7 <_core0_exp_start+0x2>
   2b1e8:	84 31 03 04 	and gr3 gr4 gr3
   2b1ec:	ec 30 80 e2 	store32 gr3 gr2 7 <_core0_exp_start+0x2>
    }

    EDIS;
   2b1f0:	80 00 00 14 	edis
}
   2b1f4:	80 00 00 04 	ret
   2b1f8:	80 00 00 00 	nop
   2b1fc:	80 00 00 00 	nop

0002b200 <GPIO_setPinConfig>:
//
// GPIO_setPinConfig
//
//*****************************************************************************
void GPIO_setPinConfig(uint32_t pinConfig)
{
   2b200:	80 00 00 00 	nop
    uint32_t muxRegAddr;
    uint32_t pinMask, shiftAmt;

    muxRegAddr = (uint32_t)GPIOCTRL_BASE + (pinConfig >> 16);
   2b204:	98 21 10 0e 	srli gr2 gr4 10 <_cla_int_entry_group0_1>
   2b208:	94 30 10 61 	movigh gr3 106 <cla_interrupt_defaulthandler+0x6>
   2b20c:	94 3b 00 05 	movigl gr3 ffffb000 <Flash0CtrlRegs+0xfef5b000>
   2b210:	84 20 83 00 	add gr2 gr2 gr3
    shiftAmt   = ((pinConfig >> 8) & (uint32_t)0xFFU);
   2b214:	98 31 08 0e 	srli gr3 gr4 8 <_core0_exp_start+0x3>
   2b218:	94 50 0f f9 	moviglz gr5 ff <.L0 +0x6>
   2b21c:	84 30 c5 04 	and gr3 gr3 gr5
   2b220:	94 50 00 39 	moviglz gr5 3 <_cla_int_entry_group0_0+0x3>
    pinMask    = (uint32_t)0x3U << shiftAmt;
   2b224:	84 61 43 09 	sl gr6 gr5 gr3

    EALLOW;
   2b228:	80 00 00 10 	eallow

    //
    // Clear fields in MUX register first to avoid glitches
    //
    HWREG(muxRegAddr) &= ~pinMask;
   2b22c:	10 61 80 44 ®░	not gr6 gr6
   2b230:	a8 70 80 02 ®Ė	load32 gr7 gr2 0 <_cla_int_entry_group0_0>

    //
    // Write value into GMUX register
    //
    HWREG(muxRegAddr + GPIO_MUX_TO_GMUX) = (HWREG(muxRegAddr + GPIO_MUX_TO_GMUX) & ~pinMask)
                                           | (((pinConfig >> 2) & (uint32_t)0x3U) << shiftAmt);
   2b234:	98 81 02 0e 	srli gr8 gr4 2 <_cla_int_entry_group0_0+0x2>
   2b238:	84 82 05 04 	and gr8 gr8 gr5
   2b23c:	84 82 03 09 	sl gr8 gr8 gr3
    EALLOW;

    //
    // Clear fields in MUX register first to avoid glitches
    //
    HWREG(muxRegAddr) &= ~pinMask;
   2b240:	84 71 c6 04 	and gr7 gr7 gr6
   2b244:	ec 70 80 02 	store32 gr7 gr2 0 <_cla_int_entry_group0_0>

    //
    // Write value into GMUX register
    //
    HWREG(muxRegAddr + GPIO_MUX_TO_GMUX) = (HWREG(muxRegAddr + GPIO_MUX_TO_GMUX) & ~pinMask)
   2b248:	a8 70 80 e2 	load32 gr7 gr2 7 <_core0_exp_start+0x2>
   2b24c:	84 61 c6 04 	and gr6 gr7 gr6
                                           | (((pinConfig >> 2) & (uint32_t)0x3U) << shiftAmt);
   2b250:	84 61 88 05 	or gr6 gr6 gr8
    HWREG(muxRegAddr) &= ~pinMask;

    //
    // Write value into GMUX register
    //
    HWREG(muxRegAddr + GPIO_MUX_TO_GMUX) = (HWREG(muxRegAddr + GPIO_MUX_TO_GMUX) & ~pinMask)
   2b254:	ec 60 80 e2 	store32 gr6 gr2 7 <_core0_exp_start+0x2>
                                           | (((pinConfig >> 2) & (uint32_t)0x3U) << shiftAmt);

    //
    // Write value into MUX register
    //
    HWREG(muxRegAddr) |= ((pinConfig & (uint32_t)0x3U) << shiftAmt);
   2b258:	04 41 05 04 ®░	and gr4 gr4 gr5
   2b25c:	a8 60 80 02 ®Ė	load32 gr6 gr2 0 <_cla_int_entry_group0_0>
   2b260:	84 31 03 09 	sl gr3 gr4 gr3
   2b264:	84 31 83 05 	or gr3 gr6 gr3
   2b268:	ec 30 80 02 	store32 gr3 gr2 0 <_cla_int_entry_group0_0>
    EDIS;
   2b26c:	80 00 00 14 	edis
}
   2b270:	80 00 00 04 	ret
   2b274:	80 00 00 00 	nop
   2b278:	80 00 00 00 	nop

0002b27c <Interrupt_initVectorTable>:
//
// Interrupt_initVectorTable
//
//*****************************************************************************
void Interrupt_initVectorTable(void)
{
   2b27c:	80 00 00 00 	nop
   2b280:	94 20 00 09 	moviglz gr2 0 <_cla_int_entry_group0_0>
   2b284:	94 40 00 21 	movigh gr4 2 <_cla_int_entry_group0_0+0x2>
   2b288:	94 47 c0 05 	movigl gr4 7c00 <$line_table_start0+0xed>
   2b28c:	94 50 00 21 	movigh gr5 2 <_cla_int_entry_group0_0+0x2>
   2b290:	94 59 69 05 	movigl gr5 ffff9690 <Flash0CtrlRegs+0xfef59690>

0002b294 <.L0 >:
    //
    // We set all entries to default, although, some of them are not connected to interrupt sources
    //
    for (int i = 0; i < 256; ++i)
   2b294:	94 00 9f ea 	gti gr2 ff <.L0 +0x6>
   2b298:	80 00 01 25 	jc 2b2c0 <.L0 >
   2b29c:	80 00 00 00 	nop
   2b2a0:	80 00 00 00 	nop
    {
        HWREG((Uint32)(&PIEVECTTABLE_BASE) + (i << 2)) = (Uint32)(&Interrupt_defaultHandler);
   2b2a4:	98 30 82 06 	sli gr3 gr2 2 <_cla_int_entry_group0_0+0x2>
   2b2a8:	84 31 03 00 	add gr3 gr4 gr3
   2b2ac:	18 20 80 08 ®░	addi gr2 gr2 1 <_cla_int_entry_group0_0+0x1>
   2b2b0:	ec 50 c0 02 ®Ė	store32 gr5 gr3 0 <_cla_int_entry_group0_0>
void Interrupt_initVectorTable(void)
{
    //
    // We set all entries to default, although, some of them are not connected to interrupt sources
    //
    for (int i = 0; i < 256; ++i)
   2b2b4:	83 ff fe e1 	jmp 2b294 <.L0 >
   2b2b8:	80 00 00 00 	nop
   2b2bc:	80 00 00 00 	nop

0002b2c0 <.L0 >:
    {
        HWREG((Uint32)(&PIEVECTTABLE_BASE) + (i << 2)) = (Uint32)(&Interrupt_defaultHandler);
    }
}
   2b2c0:	80 00 00 04 	ret
   2b2c4:	80 00 00 00 	nop
   2b2c8:	80 00 00 00 	nop

0002b2cc <SysCtl_isMCDClockFailureDetected>:
//! \return Returns \b true if a failure is detected or \b false if a
//! failure isn't detected
//
//*****************************************************************************
static inline bool SysCtl_isMCDClockFailureDetected(void)
{
   2b2cc:	80 00 00 00 	nop
   2b2d0:	94 20 10 71 	movigh gr2 107 <cla_interrupt_defaulthandler+0x7>
   2b2d4:	94 21 04 45 	movigl gr2 1044 <.L0 +0x20>
    //
    //  Check the status bit to determine failure
    //
    return ((HWREGH(CLKCFG_BASE + SYSCTL_O_MCDCR) & SYSCTL_MCDCR_MCLKSTS) != 0U);
   2b2d8:	14 30 00 19 ®░	moviglz gr3 1 <_cla_int_entry_group0_0+0x1>
   2b2dc:	a8 20 80 01 ®Ė	load16 gr2 gr2 0 <_cla_int_entry_group0_0>
   2b2e0:	84 20 83 04 	and gr2 gr2 gr3
   2b2e4:	80 00 00 04 	ret
   2b2e8:	80 00 00 00 	nop
   2b2ec:	80 00 00 00 	nop

0002b2f0 <SysCtl_setClock>:
//
// SysCtl_setClock()
//
//*****************************************************************************
bool SysCtl_setClock(uint32_t config)
{
   2b2f0:	99 e7 bf 40 	addi gr30 gr30 ffffffe8 <Flash0CtrlRegs+0xfef5ffe8>
   2b2f4:	ed f7 80 a2 	store32 gr31 gr30 5 <_core0_exp_start>
   2b2f8:	ed 27 80 82 	store32 gr18 gr30 4 <_cla_int_entry_group0_0+0x4>
   2b2fc:	ed 17 80 62 	store32 gr17 gr30 3 <_cla_int_entry_group0_0+0x3>
   2b300:	ed 07 80 42 	store32 gr16 gr30 2 <_cla_int_entry_group0_0+0x2>
   2b304:	91 01 00 80 	movg2g gr16 gr4
   2b308:	95 10 00 09 	moviglz gr17 0 <_cla_int_entry_group0_0>
           || ((config & SYSCTL_PLL_CONFIG_M) == SYSCTL_PLL_DISABLE));

    //
    // Don't proceed to the PLL initialization if an MCD failure is detected.
    //
    if (SysCtl_isMCDClockFailureDetected())
   2b30c:	83 ff fd ed 	call 2b2cc <SysCtl_isMCDClockFailureDetected>
   2b310:	80 00 00 00 	nop
   2b314:	80 00 00 00 	nop
   2b318:	80 00 00 00 	nop
   2b31c:	94 00 80 06 	neqi gr2 0 <_cla_int_entry_group0_0>
   2b320:	80 00 19 e5 	jc 2b660 <SysCtl_setClock+0x370>
   2b324:	80 00 00 00 	nop
   2b328:	80 00 00 00 	nop
    else
    {
        //
        // Bypass PLL
        //
        EALLOW;
   2b32c:	80 00 00 10 	eallow
   2b330:	94 20 10 71 	movigh gr2 107 <cla_interrupt_defaulthandler+0x7>
   2b334:	94 21 01 45 	movigl gr2 1014 <.L0 +0x24>
        HWREGH(CLKCFG_BASE + SYSCTL_O_SYSPLLCTL1) &= ~SYSCTL_SYSPLLCTL1_PLLCLKEN;
   2b338:	14 4f ff d9 ®░	moviglz gr4 fffffffd <Flash0CtrlRegs+0xfef5fffd>
   2b33c:	a8 30 80 01 ®Ė	load16 gr3 gr2 0 <_cla_int_entry_group0_0>
   2b340:	84 30 c4 04 	and gr3 gr3 gr4
   2b344:	ec 30 80 01 	store16 gr3 gr2 0 <_cla_int_entry_group0_0>
        EDIS;
   2b348:	80 00 00 14 	edis
   2b34c:	94 40 01 79 	moviglz gr4 17 <_core1_exp_start>

        //
        // Delay of at least 120 OSCCLK cycles required post PLL bypass
        //
        SysCtl_delay(23U);
   2b350:	80 00 19 ad 	call 2b688 <SysCtl_delay>
   2b354:	80 00 00 00 	nop
   2b358:	80 00 00 00 	nop
   2b35c:	80 00 00 00 	nop
   2b360:	94 20 10 71 	movigh gr2 107 <cla_interrupt_defaulthandler+0x7>
   2b364:	94 21 00 85 	movigl gr2 1008 <.L0 +0x18>
   2b368:	94 30 00 31 	movigh gr3 3 <_cla_int_entry_group0_0+0x3>
   2b36c:	14 30 00 05 ®░	movigl gr3 0 <_cla_int_entry_group0_0>
   2b370:	a8 20 80 01 ®Ė	load16 gr2 gr2 0 <_cla_int_entry_group0_0>
        oscclksrcsel = HWREGH(CLKCFG_BASE + SYSCTL_O_CLKSRCCTL1)
                       & (uint16_t)SYSCTL_CLKSRCCTL1_OSCCLKSRCSEL_M;

        // xtalval = (HWREGH(CLKCFG_BASE + SYSCTL_O_XTALCR) & (uint16_t)SYSCTL_XTALCR_SE);

        oscSource = (config & SYSCTL_OSCSRC_M) >> SYSCTL_OSCSRC_S;
   2b374:	84 34 03 04 	and gr3 gr16 gr3
   2b378:	94 40 00 39 	moviglz gr4 3 <_cla_int_entry_group0_0+0x3>

        //
        // Derive the current and previous oscillator clock source values
        //
        oscclksrcsel = HWREGH(CLKCFG_BASE + SYSCTL_O_CLKSRCCTL1)
                       & (uint16_t)SYSCTL_CLKSRCCTL1_OSCCLKSRCSEL_M;
   2b37c:	84 20 84 04 	and gr2 gr2 gr4

        // xtalval = (HWREGH(CLKCFG_BASE + SYSCTL_O_XTALCR) & (uint16_t)SYSCTL_XTALCR_SE);

        oscSource = (config & SYSCTL_OSCSRC_M) >> SYSCTL_OSCSRC_S;
   2b380:	98 30 d0 0e 	srli gr3 gr3 10 <_cla_int_entry_group0_1>

        //
        // Check if the oscillator clock source has changed
        //
        // if ((oscclksrcsel | xtalval) != oscSource)
        if (oscclksrcsel != oscSource)
   2b384:	90 00 83 00 	eq gr2 gr3
   2b388:	80 00 03 65 	jc 2b3f8 <SysCtl_setClock+0x108>
   2b38c:	80 00 00 00 	nop
   2b390:	80 00 00 00 	nop
        {
            //
            // Turn off PLL
            //
            EALLOW;
   2b394:	80 00 00 10 	eallow
   2b398:	94 20 10 71 	movigh gr2 107 <cla_interrupt_defaulthandler+0x7>
   2b39c:	94 21 01 45 	movigl gr2 1014 <.L0 +0x24>
            HWREGH(CLKCFG_BASE + SYSCTL_O_SYSPLLCTL1) &= ~SYSCTL_SYSPLLCTL1_PLLEN;
   2b3a0:	14 4f ff e9 ®░	moviglz gr4 fffffffe <Flash0CtrlRegs+0xfef5fffe>
   2b3a4:	a8 30 80 01 ®Ė	load16 gr3 gr2 0 <_cla_int_entry_group0_0>
   2b3a8:	84 30 c4 04 	and gr3 gr3 gr4
   2b3ac:	ec 30 80 01 	store16 gr3 gr2 0 <_cla_int_entry_group0_0>
            EDIS;
   2b3b0:	80 00 00 14 	edis
   2b3b4:	94 40 00 c9 	moviglz gr4 c <_core0_exp_start+0x7>

            //
            // Delay of at least 66 OSCCLK cycles required between
            // powerdown to powerup of PLL
            //
            SysCtl_delay(12U);
   2b3b8:	80 00 16 6d 	call 2b688 <SysCtl_delay>
   2b3bc:	80 00 00 00 	nop
   2b3c0:	80 00 00 00 	nop
   2b3c4:	80 00 00 00 	nop
   2b3c8:	94 20 00 31 	movigh gr2 3 <_cla_int_entry_group0_0+0x3>
   2b3cc:	94 20 00 05 	movigl gr2 0 <_cla_int_entry_group0_0>

            //
            // Configure oscillator source
            //
            SysCtl_selectOscSource(config & SYSCTL_OSCSRC_M);
   2b3d0:	84 44 02 04 	and gr4 gr16 gr2
   2b3d4:	80 00 16 ed 	call 2b6b4 <SysCtl_selectOscSource>
   2b3d8:	80 00 00 00 	nop
   2b3dc:	80 00 00 00 	nop
   2b3e0:	80 00 00 00 	nop
   2b3e4:	94 40 00 b9 	moviglz gr4 b <_core0_exp_start+0x6>

            //
            // Delay of at least 60 OSCCLK cycles
            //
            SysCtl_delay(11U);
   2b3e8:	80 00 14 ed 	call 2b688 <SysCtl_delay>
   2b3ec:	80 00 00 00 	nop
   2b3f0:	80 00 00 00 	nop
   2b3f4:	80 00 00 00 	nop
   2b3f8:	94 2c 00 01 	movigh gr2 ffffc000 <Flash0CtrlRegs+0xfef5c000>
   2b3fc:	94 20 00 05 	movigl gr2 0 <_cla_int_entry_group0_0>
   2b400:	94 38 00 01 	movigh gr3 ffff8000 <Flash0CtrlRegs+0xfef58000>
   2b404:	94 30 00 05 	movigl gr3 0 <_cla_int_entry_group0_0>
        }

        //
        // Configure PLL if PLL usage is enabled or bypassed in config
        //
        if (((config & SYSCTL_PLL_CONFIG_M) == SYSCTL_PLL_ENABLE)
   2b408:	84 24 02 04 	and gr2 gr16 gr2
   2b40c:	90 00 83 00 	eq gr2 gr3
            || ((config & SYSCTL_PLL_CONFIG_M) == SYSCTL_PLL_BYPASS))
   2b410:	80 00 01 05 	jc 2b434 <SysCtl_setClock+0x144>
   2b414:	80 00 00 00 	nop
   2b418:	80 00 00 00 	nop
   2b41c:	94 34 00 01 	movigh gr3 4000 <.L0 +0x11>
   2b420:	94 30 00 05 	movigl gr3 0 <_cla_int_entry_group0_0>
   2b424:	90 00 83 01 	neq gr2 gr3
   2b428:	80 00 0b e5 	jc 2b5a8 <SysCtl_setClock+0x2b8>
   2b42c:	80 00 00 00 	nop
   2b430:	80 00 00 00 	nop
   2b434:	94 20 10 71 	movigh gr2 107 <cla_interrupt_defaulthandler+0x7>
   2b438:	94 21 01 85 	movigl gr2 1018 <.L0 +0x28>
   2b43c:	94 30 07 c1 	movigh gr3 7c <.L0 +0x5>
   2b440:	94 30 00 05 	movigl gr3 0 <_cla_int_entry_group0_0>
   2b444:	94 40 0f f9 	moviglz gr4 ff <.L0 +0x6>
   2b448:	94 50 f8 01 	movigh gr5 f80 <.L0 >
            pllMult |= (((config & SYSCTL_ODIV_M) >> SYSCTL_ODIV_S) << SYSCTL_SYSPLLMULT_ODIV_S);

            //
            // Get the PLL multipliers currently programmed
            //
            mult = ((HWREG(CLKCFG_BASE + SYSCTL_O_SYSPLLMULT) & SYSCTL_SYSPLLMULT_IMULT_M)
   2b44c:	14 50 00 05 ®░	movigl gr5 0 <_cla_int_entry_group0_0>
   2b450:	a8 60 80 02 ®Ė	load32 gr6 gr2 0 <_cla_int_entry_group0_0>
            // Get the PLL multiplier settings from config
            //
            pllMult = ((config & SYSCTL_IMULT_M) << SYSCTL_SYSPLLMULT_IMULT_S);

            pllMult
                |= (((config & SYSCTL_REFDIV_M) >> SYSCTL_REFDIV_S) << SYSCTL_SYSPLLMULT_REFDIV_S);
   2b454:	04 34 03 04 ®░	and gr3 gr16 gr3
   2b458:	a8 70 80 02 ®Ė	load32 gr7 gr2 0 <_cla_int_entry_group0_0>

            pllMult |= (((config & SYSCTL_ODIV_M) >> SYSCTL_ODIV_S) << SYSCTL_SYSPLLMULT_ODIV_S);
   2b45c:	84 54 05 04 	and gr5 gr16 gr5
   2b460:	94 81 f0 01 	movigh gr8 1f00 <.L0 +0xa>
            mult = ((HWREG(CLKCFG_BASE + SYSCTL_O_SYSPLLMULT) & SYSCTL_SYSPLLMULT_IMULT_M)
                    >> SYSCTL_SYSPLLMULT_IMULT_S);

            mult |= (HWREG(CLKCFG_BASE + SYSCTL_O_SYSPLLMULT) & SYSCTL_SYSPLLMULT_REFDIV_M);

            mult |= (HWREG(CLKCFG_BASE + SYSCTL_O_SYSPLLMULT) & SYSCTL_SYSPLLMULT_ODIV_M);
   2b464:	14 80 00 05 ®░	movigl gr8 0 <_cla_int_entry_group0_0>
   2b468:	a8 20 80 02 ®Ė	load32 gr2 gr2 0 <_cla_int_entry_group0_0>
            // Get the PLL multiplier settings from config
            //
            pllMult = ((config & SYSCTL_IMULT_M) << SYSCTL_SYSPLLMULT_IMULT_S);

            pllMult
                |= (((config & SYSCTL_REFDIV_M) >> SYSCTL_REFDIV_S) << SYSCTL_SYSPLLMULT_REFDIV_S);
   2b46c:	98 30 c6 06 	sli gr3 gr3 6 <_core0_exp_start+0x1>
   2b470:	94 90 10 71 	movigh gr9 107 <cla_interrupt_defaulthandler+0x7>
   2b474:	94 91 01 45 	movigl gr9 1014 <.L0 +0x24>

            pllMult |= (((config & SYSCTL_ODIV_M) >> SYSCTL_ODIV_S) << SYSCTL_SYSPLLMULT_ODIV_S);
   2b478:	18 51 47 0e ®░	srli gr5 gr5 7 <_core0_exp_start+0x2>
   2b47c:	a8 92 40 01 ®Ė	load16 gr9 gr9 0 <_cla_int_entry_group0_0>
   2b480:	94 a0 01 f1 	movigh gr10 1f <_core1_exp_start+0x8>
   2b484:	94 a0 00 05 	movigl gr10 0 <_cla_int_entry_group0_0>
   2b488:	95 10 00 19 	moviglz gr17 1 <_cla_int_entry_group0_0+0x1>
            || ((config & SYSCTL_PLL_CONFIG_M) == SYSCTL_PLL_BYPASS))
        {
            //
            // Get the PLL multiplier settings from config
            //
            pllMult = ((config & SYSCTL_IMULT_M) << SYSCTL_SYSPLLMULT_IMULT_S);
   2b48c:	84 b4 04 04 	and gr11 gr16 gr4

            pllMult
                |= (((config & SYSCTL_REFDIV_M) >> SYSCTL_REFDIV_S) << SYSCTL_SYSPLLMULT_REFDIV_S);
   2b490:	84 32 c3 05 	or gr3 gr11 gr3
            pllMult |= (((config & SYSCTL_ODIV_M) >> SYSCTL_ODIV_S) << SYSCTL_SYSPLLMULT_ODIV_S);

            //
            // Get the PLL multipliers currently programmed
            //
            mult = ((HWREG(CLKCFG_BASE + SYSCTL_O_SYSPLLMULT) & SYSCTL_SYSPLLMULT_IMULT_M)
   2b494:	84 41 84 04 	and gr4 gr6 gr4
                    >> SYSCTL_SYSPLLMULT_IMULT_S);

            mult |= (HWREG(CLKCFG_BASE + SYSCTL_O_SYSPLLMULT) & SYSCTL_SYSPLLMULT_REFDIV_M);
   2b498:	84 61 c8 04 	and gr6 gr7 gr8

            mult |= (HWREG(CLKCFG_BASE + SYSCTL_O_SYSPLLMULT) & SYSCTL_SYSPLLMULT_ODIV_M);
   2b49c:	84 20 8a 04 	and gr2 gr2 gr10
            // Get the PLL multipliers currently programmed
            //
            mult = ((HWREG(CLKCFG_BASE + SYSCTL_O_SYSPLLMULT) & SYSCTL_SYSPLLMULT_IMULT_M)
                    >> SYSCTL_SYSPLLMULT_IMULT_S);

            mult |= (HWREG(CLKCFG_BASE + SYSCTL_O_SYSPLLMULT) & SYSCTL_SYSPLLMULT_REFDIV_M);
   2b4a0:	84 41 06 05 	or gr4 gr4 gr6
            pllMult = ((config & SYSCTL_IMULT_M) << SYSCTL_SYSPLLMULT_IMULT_S);

            pllMult
                |= (((config & SYSCTL_REFDIV_M) >> SYSCTL_REFDIV_S) << SYSCTL_SYSPLLMULT_REFDIV_S);

            pllMult |= (((config & SYSCTL_ODIV_M) >> SYSCTL_ODIV_S) << SYSCTL_SYSPLLMULT_ODIV_S);
   2b4a4:	85 20 c5 05 	or gr18 gr3 gr5
            mult = ((HWREG(CLKCFG_BASE + SYSCTL_O_SYSPLLMULT) & SYSCTL_SYSPLLMULT_IMULT_M)
                    >> SYSCTL_SYSPLLMULT_IMULT_S);

            mult |= (HWREG(CLKCFG_BASE + SYSCTL_O_SYSPLLMULT) & SYSCTL_SYSPLLMULT_REFDIV_M);

            mult |= (HWREG(CLKCFG_BASE + SYSCTL_O_SYSPLLMULT) & SYSCTL_SYSPLLMULT_ODIV_M);
   2b4a8:	84 21 02 05 	or gr2 gr4 gr2

            //
            // Lock PLL only if the multipliers need an update or PLL needs
            // to be powered on / enabled
            //
            if ((mult != pllMult) || (pllen != 1U))
   2b4ac:	90 00 92 01 	neq gr2 gr18

            mult |= (HWREG(CLKCFG_BASE + SYSCTL_O_SYSPLLMULT) & SYSCTL_SYSPLLMULT_REFDIV_M);

            mult |= (HWREG(CLKCFG_BASE + SYSCTL_O_SYSPLLMULT) & SYSCTL_SYSPLLMULT_ODIV_M);

            pllen = (HWREGH(CLKCFG_BASE + SYSCTL_O_SYSPLLCTL1) & SYSCTL_SYSPLLCTL1_PLLEN);
   2b4b0:	84 22 51 04 	and gr2 gr9 gr17

            //
            // Lock PLL only if the multipliers need an update or PLL needs
            // to be powered on / enabled
            //
            if ((mult != pllMult) || (pllen != 1U))
   2b4b4:	80 00 00 c5 	jc 2b4d0 <SysCtl_setClock+0x1e0>
   2b4b8:	80 00 00 00 	nop
   2b4bc:	80 00 00 00 	nop
   2b4c0:	94 00 80 22 	eqi gr2 1 <_cla_int_entry_group0_0+0x1>
   2b4c4:	80 00 09 25 	jc 2b5ec <SysCtl_setClock+0x2fc>
   2b4c8:	80 00 00 00 	nop
   2b4cc:	80 00 00 00 	nop
            {
                //
                // Turn off PLL
                //
                EALLOW;
   2b4d0:	80 00 00 10 	eallow
   2b4d4:	95 10 10 71 	movigh gr17 107 <cla_interrupt_defaulthandler+0x7>
   2b4d8:	95 11 01 45 	movigl gr17 1014 <.L0 +0x24>
                HWREGH(CLKCFG_BASE + SYSCTL_O_SYSPLLCTL1) &= ~SYSCTL_SYSPLLCTL1_PLLEN;
   2b4dc:	14 3f ff e9 ®░	moviglz gr3 fffffffe <Flash0CtrlRegs+0xfef5fffe>
   2b4e0:	a8 24 40 01 ®Ė	load16 gr2 gr17 0 <_cla_int_entry_group0_0>
   2b4e4:	84 20 83 04 	and gr2 gr2 gr3
   2b4e8:	ec 24 40 01 	store16 gr2 gr17 0 <_cla_int_entry_group0_0>
                EDIS;
   2b4ec:	80 00 00 14 	edis
   2b4f0:	94 40 00 c9 	moviglz gr4 c <_core0_exp_start+0x7>

                //
                // Delay of at least 66 OSCCLK cycles required between
                // powerdown to powerup of PLL
                //
                SysCtl_delay(12U);
   2b4f4:	80 00 0c 8d 	call 2b688 <SysCtl_delay>
   2b4f8:	80 00 00 00 	nop
   2b4fc:	80 00 00 00 	nop
   2b500:	80 00 00 00 	nop

                //
                // Write multiplier, which automatically turns on the PLL
                //
                EALLOW;
   2b504:	80 00 00 10 	eallow
   2b508:	94 20 10 71 	movigh gr2 107 <cla_interrupt_defaulthandler+0x7>
   2b50c:	94 21 01 85 	movigl gr2 1018 <.L0 +0x28>
   2b510:	94 30 07 c1 	movigh gr3 7c <.L0 +0x5>
                HWREG(CLKCFG_BASE + SYSCTL_O_SYSPLLMULT) = pllMult;
   2b514:	14 30 00 05 ®░	movigl gr3 0 <_cla_int_entry_group0_0>
   2b518:	ed 20 80 02 ®Ė	store32 gr18 gr2 0 <_cla_int_entry_group0_0>

                //
                // Enable/ turn on PLL
                //
                HWREGH(CLKCFG_BASE + SYSCTL_O_SYSPLLCTL1) |= SYSCTL_SYSPLLCTL1_PLLEN;
   2b51c:	a8 24 40 01 	load16 gr2 gr17 0 <_cla_int_entry_group0_0>
   2b520:	94 20 00 03 	bst gr2 0 <_cla_int_entry_group0_0>
   2b524:	14 40 40 09 ®░	moviglz gr4 400 <Cla1Task6+0x40>
   2b528:	ec 24 40 01 ®Ė	store16 gr2 gr17 0 <_cla_int_entry_group0_0>
   2b52c:	94 20 10 71 	movigh gr2 107 <cla_interrupt_defaulthandler+0x7>
   2b530:	94 21 01 c5 	movigl gr2 101c <.L0 +0x2c>
   2b534:	04 34 03 04 ®░	and gr3 gr16 gr3
   2b538:	a8 50 80 01 ®Ė	load16 gr5 gr2 0 <_cla_int_entry_group0_0>
                // with a factor of REFDIV.
                // Lock time is 1024 OSCCLK * (REFDIV+1)
                //
                refdiv = ((config & SYSCTL_REFDIV_M) >> SYSCTL_REFDIV_S);

                timeout       = (1024U * (refdiv + 1U));
   2b53c:	98 20 c8 0e 	srli gr2 gr3 8 <_core0_exp_start+0x3>
   2b540:	84 20 84 00 	add gr2 gr2 gr4
   2b544:	94 30 00 19 	moviglz gr3 1 <_cla_int_entry_group0_0+0x1>
                pllLockStatus = HWREGH(CLKCFG_BASE + SYSCTL_O_SYSPLLSTS) & SYSCTL_SYSPLLSTS_LOCKS;
   2b548:	84 31 43 04 	and gr3 gr5 gr3
   2b54c:	94 4f ff f9 	moviglz gr4 ffffffff <Flash0CtrlRegs+0xfef5ffff>

                while ((pllLockStatus != 1U) && (timeout != 0U))
   2b550:	84 30 c4 04 	and gr3 gr3 gr4
   2b554:	94 00 c0 22 	eqi gr3 1 <_cla_int_entry_group0_0+0x1>
   2b558:	80 00 01 e5 	jc 2b598 <SysCtl_setClock+0x2a8>
   2b55c:	80 00 00 00 	nop
   2b560:	80 00 00 00 	nop
   2b564:	94 00 80 02 	eqi gr2 0 <_cla_int_entry_group0_0>
   2b568:	80 00 01 65 	jc 2b598 <SysCtl_setClock+0x2a8>
   2b56c:	80 00 00 00 	nop
   2b570:	80 00 00 00 	nop
   2b574:	94 30 10 71 	movigh gr3 107 <cla_interrupt_defaulthandler+0x7>
   2b578:	94 31 01 c5 	movigl gr3 101c <.L0 +0x2c>
                {
                    pllLockStatus
                        = HWREGH(CLKCFG_BASE + SYSCTL_O_SYSPLLSTS) & SYSCTL_SYSPLLSTS_LOCKS;
   2b57c:	14 40 00 19 ®░	moviglz gr4 1 <_cla_int_entry_group0_0+0x1>
   2b580:	a8 30 c0 01 ®Ė	load16 gr3 gr3 0 <_cla_int_entry_group0_0>
                    timeout--;
   2b584:	98 20 bf f8 	addi gr2 gr2 ffffffff <Flash0CtrlRegs+0xfef5ffff>
                pllLockStatus = HWREGH(CLKCFG_BASE + SYSCTL_O_SYSPLLSTS) & SYSCTL_SYSPLLSTS_LOCKS;

                while ((pllLockStatus != 1U) && (timeout != 0U))
                {
                    pllLockStatus
                        = HWREGH(CLKCFG_BASE + SYSCTL_O_SYSPLLSTS) & SYSCTL_SYSPLLSTS_LOCKS;
   2b588:	84 30 c4 04 	and gr3 gr3 gr4
                refdiv = ((config & SYSCTL_REFDIV_M) >> SYSCTL_REFDIV_S);

                timeout       = (1024U * (refdiv + 1U));
                pllLockStatus = HWREGH(CLKCFG_BASE + SYSCTL_O_SYSPLLSTS) & SYSCTL_SYSPLLSTS_LOCKS;

                while ((pllLockStatus != 1U) && (timeout != 0U))
   2b58c:	83 ff fd e1 	jmp 2b54c <SysCtl_setClock+0x25c>
   2b590:	80 00 00 00 	nop
   2b594:	80 00 00 00 	nop
                {
                    pllLockStatus
                        = HWREGH(CLKCFG_BASE + SYSCTL_O_SYSPLLSTS) & SYSCTL_SYSPLLSTS_LOCKS;
                    timeout--;
                }
                EDIS;
   2b598:	80 00 00 14 	edis
   2b59c:	80 00 02 41 	jmp 2b5e8 <SysCtl_setClock+0x2f8>
   2b5a0:	80 00 00 00 	nop
   2b5a4:	80 00 00 00 	nop
   2b5a8:	94 2c 00 01 	movigh gr2 ffffc000 <Flash0CtrlRegs+0xfef5c000>
   2b5ac:	94 20 00 05 	movigl gr2 0 <_cla_int_entry_group0_0>
                // are not updated
                //
                status = true;
            }
        }
        else if ((config & SYSCTL_PLL_CONFIG_M) == SYSCTL_PLL_DISABLE)
   2b5b0:	84 24 02 04 	and gr2 gr16 gr2
   2b5b4:	94 00 80 06 	neqi gr2 0 <_cla_int_entry_group0_0>
   2b5b8:	95 10 00 09 	moviglz gr17 0 <_cla_int_entry_group0_0>
   2b5bc:	80 00 01 65 	jc 2b5ec <SysCtl_setClock+0x2fc>
   2b5c0:	80 00 00 00 	nop
   2b5c4:	80 00 00 00 	nop
        {
            //
            // Turn off PLL when the PLL is disabled in config
            //
            EALLOW;
   2b5c8:	80 00 00 10 	eallow
   2b5cc:	94 20 10 71 	movigh gr2 107 <cla_interrupt_defaulthandler+0x7>
   2b5d0:	94 21 01 45 	movigl gr2 1014 <.L0 +0x24>
            HWREGH(CLKCFG_BASE + SYSCTL_O_SYSPLLCTL1) &= ~SYSCTL_SYSPLLCTL1_PLLEN;
   2b5d4:	14 4f ff e9 ®░	moviglz gr4 fffffffe <Flash0CtrlRegs+0xfef5fffe>
   2b5d8:	a8 30 80 01 ®Ė	load16 gr3 gr2 0 <_cla_int_entry_group0_0>
   2b5dc:	84 30 c4 04 	and gr3 gr3 gr4
   2b5e0:	ec 30 80 01 	store16 gr3 gr2 0 <_cla_int_entry_group0_0>
            SYSCTL_REGWRITE_DELAY;
            EDIS;
   2b5e4:	80 00 00 14 	edis
   2b5e8:	95 10 00 19 	moviglz gr17 1 <_cla_int_entry_group0_0+0x1>
   2b5ec:	94 20 00 19 	moviglz gr2 1 <_cla_int_entry_group0_0+0x1>

        //
        // If PLL locked successfully, configure the dividers
        // Or if PLL is bypassed, only configure the dividers
        //
        if (status)
   2b5f0:	84 24 42 04 	and gr2 gr17 gr2
   2b5f4:	94 00 80 02 	eqi gr2 0 <_cla_int_entry_group0_0>
   2b5f8:	80 00 03 25 	jc 2b660 <SysCtl_setClock+0x370>
   2b5fc:	80 00 00 00 	nop
   2b600:	80 00 00 00 	nop
   2b604:	94 27 f0 09 	moviglz gr2 7f00 <$line_table_start0+0x3ed>
        {
            //
            // Set divider to produce slower output frequency to limit current
            // increase.
            //
            divSel = (config & SYSCTL_SYSDIV_M) >> SYSCTL_SYSDIV_S;
   2b608:	84 24 02 04 	and gr2 gr16 gr2
   2b60c:	98 40 88 0e 	srli gr4 gr2 8 <_core0_exp_start+0x3>

            SysCtl_setPLLSysClk(divSel); // Sys Clk mast set before PLLCLKEN=1
   2b610:	80 00 0a ed 	call 2b770 <SysCtl_setPLLSysClk>
   2b614:	80 00 00 00 	nop
   2b618:	80 00 00 00 	nop
   2b61c:	80 00 00 00 	nop
   2b620:	94 2c 00 01 	movigh gr2 ffffc000 <Flash0CtrlRegs+0xfef5c000>
   2b624:	94 20 00 05 	movigl gr2 0 <_cla_int_entry_group0_0>
   2b628:	94 38 00 01 	movigh gr3 ffff8000 <Flash0CtrlRegs+0xfef58000>
   2b62c:	94 30 00 05 	movigl gr3 0 <_cla_int_entry_group0_0>

            //
            // Feed system clock from SYSPLL only if PLL usage is enabled
            //
            if ((config & SYSCTL_PLL_CONFIG_M) == SYSCTL_PLL_ENABLE)
   2b630:	84 24 02 04 	and gr2 gr16 gr2
   2b634:	90 00 83 01 	neq gr2 gr3
   2b638:	80 00 01 25 	jc 2b660 <SysCtl_setClock+0x370>
   2b63c:	80 00 00 00 	nop
   2b640:	80 00 00 00 	nop
            {

                //
                // Enable PLLSYSCLK is fed from system PLL clock
                //
                EALLOW;
   2b644:	80 00 00 10 	eallow
   2b648:	94 20 10 71 	movigh gr2 107 <cla_interrupt_defaulthandler+0x7>
   2b64c:	94 21 01 45 	movigl gr2 1014 <.L0 +0x24>
                HWREGH(CLKCFG_BASE + SYSCTL_O_SYSPLLCTL1) |= SYSCTL_SYSPLLCTL1_PLLCLKEN;
   2b650:	a8 30 80 01 	load16 gr3 gr2 0 <_cla_int_entry_group0_0>
   2b654:	94 30 02 03 	bst gr3 1 <_cla_int_entry_group0_0+0x1>
   2b658:	ec 30 80 01 	store16 gr3 gr2 0 <_cla_int_entry_group0_0>
                EDIS;
   2b65c:	80 00 00 14 	edis
   2b660:	94 20 00 19 	moviglz gr2 1 <_cla_int_entry_group0_0+0x1>
        {
            ESTOP0; // If the frequency is out of range, stop here.
        }
    }

    return (status);
   2b664:	04 24 42 04 ®░	and gr2 gr17 gr2
   2b668:	a9 07 80 42 ®Ė	load32 gr16 gr30 2 <_cla_int_entry_group0_0+0x2>
   2b66c:	a9 17 80 62 	load32 gr17 gr30 3 <_cla_int_entry_group0_0+0x3>
   2b670:	a9 27 80 82 	load32 gr18 gr30 4 <_cla_int_entry_group0_0+0x4>
   2b674:	a9 f7 80 a2 	load32 gr31 gr30 5 <_core0_exp_start>
   2b678:	99 e7 80 c0 	addi gr30 gr30 18 <_core1_exp_start+0x1>
   2b67c:	80 00 00 04 	ret
   2b680:	80 00 00 00 	nop
   2b684:	80 00 00 00 	nop

0002b688 <SysCtl_delay>:
//! \return None.
//
//*****************************************************************************
extern void qx_precise_delay(uint32_t count);
static inline void SysCtl_delay(uint32_t count)
{
   2b688:	99 e7 bf 80 	addi gr30 gr30 fffffff0 <Flash0CtrlRegs+0xfef5fff0>
    qx_precise_delay(count);
   2b68c:	ed f7 80 62 	store32 gr31 gr30 3 <_cla_int_entry_group0_0+0x3>
   2b690:	83 ff 09 2d 	call 297b8 <qx_precise_delay>
   2b694:	80 00 00 00 	nop
   2b698:	80 00 00 00 	nop
   2b69c:	80 00 00 00 	nop
}
   2b6a0:	a9 f7 80 62 	load32 gr31 gr30 3 <_cla_int_entry_group0_0+0x3>
   2b6a4:	99 e7 80 80 	addi gr30 gr30 10 <_cla_int_entry_group0_1>
   2b6a8:	80 00 00 04 	ret
   2b6ac:	80 00 00 00 	nop
   2b6b0:	80 00 00 00 	nop

0002b6b4 <SysCtl_selectOscSource>:
//
// SysCtl_selectOscSource()
//
//*****************************************************************************
void SysCtl_selectOscSource(uint32_t oscSource)
{
   2b6b4:	99 e7 bf 80 	addi gr30 gr30 fffffff0 <Flash0CtrlRegs+0xfef5fff0>
           || (oscSource == SYSCTL_OSCSRC_XTAL));

    //
    // Select the specified source.
    //
    EALLOW;
   2b6b8:	ed f7 80 62 	store32 gr31 gr30 3 <_cla_int_entry_group0_0+0x3>
   2b6bc:	80 00 00 10 	eallow
    switch (oscSource)
   2b6c0:	94 01 00 02 	eqi gr4 0 <_cla_int_entry_group0_0>
   2b6c4:	80 00 03 05 	jc 2b728 <SysCtl_selectOscSource+0x74>
   2b6c8:	80 00 00 00 	nop
   2b6cc:	80 00 00 00 	nop
   2b6d0:	94 20 00 11 	movigh gr2 1 <_cla_int_entry_group0_0+0x1>
   2b6d4:	94 20 00 05 	movigl gr2 0 <_cla_int_entry_group0_0>
   2b6d8:	90 01 02 00 	eq gr4 gr2
   2b6dc:	80 00 03 45 	jc 2b748 <SysCtl_selectOscSource+0x94>
   2b6e0:	80 00 00 00 	nop
   2b6e4:	80 00 00 00 	nop
   2b6e8:	94 20 00 21 	movigh gr2 2 <_cla_int_entry_group0_0+0x2>
   2b6ec:	94 20 00 05 	movigl gr2 0 <_cla_int_entry_group0_0>
   2b6f0:	90 01 02 00 	eq gr4 gr2
   2b6f4:	80 00 03 09 	jnc 2b758 <SysCtl_selectOscSource+0xa4>
   2b6f8:	80 00 00 00 	nop
   2b6fc:	80 00 00 00 	nop
   2b700:	94 20 10 71 	movigh gr2 107 <cla_interrupt_defaulthandler+0x7>
   2b704:	94 21 00 85 	movigl gr2 1008 <.L0 +0x18>
        case SYSCTL_OSCSRC_OSC1:
            //
            // Clk Src = INTOSC1
            //
            HWREGH(CLKCFG_BASE + SYSCTL_O_CLKSRCCTL1)
                = (HWREGH(CLKCFG_BASE + SYSCTL_O_CLKSRCCTL1) & ~SYSCTL_CLKSRCCTL1_OSCCLKSRCSEL_M)
   2b708:	14 4f ff c9 ®░	moviglz gr4 fffffffc <Flash0CtrlRegs+0xfef5fffc>
   2b70c:	a8 30 80 01 ®Ė	load16 gr3 gr2 0 <_cla_int_entry_group0_0>
   2b710:	84 30 c4 04 	and gr3 gr3 gr4
                  | (SYSCTL_OSCSRC_OSC1 >> SYSCTL_OSCSRC_S);
   2b714:	94 30 02 03 	bst gr3 1 <_cla_int_entry_group0_0+0x1>
   2b718:	ec 30 80 01 	store16 gr3 gr2 0 <_cla_int_entry_group0_0>
   2b71c:	80 00 01 c1 	jmp 2b758 <SysCtl_selectOscSource+0xa4>
   2b720:	80 00 00 00 	nop
   2b724:	80 00 00 00 	nop
   2b728:	94 20 10 71 	movigh gr2 107 <cla_interrupt_defaulthandler+0x7>
   2b72c:	94 21 00 85 	movigl gr2 1008 <.L0 +0x18>
    {
        case SYSCTL_OSCSRC_OSC2:
            //
            // Clk Src = INTOSC2
            //
            HWREGH(CLKCFG_BASE + SYSCTL_O_CLKSRCCTL1) &= ~SYSCTL_CLKSRCCTL1_OSCCLKSRCSEL_M;
   2b730:	14 4f ff c9 ®░	moviglz gr4 fffffffc <Flash0CtrlRegs+0xfef5fffc>
   2b734:	a8 30 80 01 ®Ė	load16 gr3 gr2 0 <_cla_int_entry_group0_0>
   2b738:	84 30 c4 04 	and gr3 gr3 gr4
   2b73c:	83 ff fe c1 	jmp 2b718 <SysCtl_selectOscSource+0x64>
   2b740:	80 00 00 00 	nop
   2b744:	80 00 00 00 	nop

        case SYSCTL_OSCSRC_XTAL:
            //
            // Select XTAL in crystal mode and wait for it to power up
            //
            SysCtl_selectXTAL();
   2b748:	80 00 02 ed 	call 2b7a8 <SysCtl_selectXTAL>
   2b74c:	80 00 00 00 	nop
   2b750:	80 00 00 00 	nop
   2b754:	80 00 00 00 	nop
            //
            // Do nothing. Not a valid oscSource value.
            //
            break;
    }
    EDIS;
   2b758:	80 00 00 14 	edis
}
   2b75c:	a9 f7 80 62 	load32 gr31 gr30 3 <_cla_int_entry_group0_0+0x3>
   2b760:	99 e7 80 80 	addi gr30 gr30 10 <_cla_int_entry_group0_1>
   2b764:	80 00 00 04 	ret
   2b768:	80 00 00 00 	nop
   2b76c:	80 00 00 00 	nop

0002b770 <SysCtl_setPLLSysClk>:
//! \note Please make sure to check if the PLL is locked and valid using the
//! SysCtl_isPLLValid() before setting the divider.
//
//*****************************************************************************
static inline void SysCtl_setPLLSysClk(uint16_t divider)
{
   2b770:	80 00 00 00 	nop
    //
    // Clears the divider then configures it.
    //
    EALLOW;
   2b774:	80 00 00 10 	eallow
   2b778:	94 20 00 19 	moviglz gr2 1 <_cla_int_entry_group0_0+0x1>
    HWREG(CLKCFG_BASE + SYSCTL_O_SYSCLKDIVSEL)
        = (divider / 2U) | ((divider % 2U) * SYSCTL_SYSCLKDIVSEL_PLLSYSCLKDIV_LSB);
   2b77c:	84 21 02 04 	and gr2 gr4 gr2
   2b780:	98 31 01 0e 	srli gr3 gr4 1 <_cla_int_entry_group0_0+0x1>
   2b784:	98 20 88 06 	sli gr2 gr2 8 <_core0_exp_start+0x3>
   2b788:	94 40 10 71 	movigh gr4 107 <cla_interrupt_defaulthandler+0x7>
   2b78c:	94 41 02 c5 	movigl gr4 102c <.L0 +0x8>
   2b790:	84 20 c2 05 	or gr2 gr3 gr2
   2b794:	ec 21 00 02 	store32 gr2 gr4 0 <_cla_int_entry_group0_0>
    SYSCTL_REGWRITE_DELAY;
    EDIS;
   2b798:	80 00 00 14 	edis
}
   2b79c:	80 00 00 04 	ret
   2b7a0:	80 00 00 00 	nop
   2b7a4:	80 00 00 00 	nop

0002b7a8 <SysCtl_selectXTAL>:
//
// SysCtl_selectXTAL()
//
//*****************************************************************************
void SysCtl_selectXTAL(void)
{
   2b7a8:	99 e7 bf 80 	addi gr30 gr30 fffffff0 <Flash0CtrlRegs+0xfef5fff0>
   2b7ac:	ed f7 80 62 	store32 gr31 gr30 3 <_cla_int_entry_group0_0+0x3>
    bool status        = false;
    uint16_t loopCount = 0U;

    EALLOW;
   2b7b0:	80 00 00 10 	eallow
   2b7b4:	94 20 10 71 	movigh gr2 107 <cla_interrupt_defaulthandler+0x7>
   2b7b8:	94 21 05 05 	movigl gr2 1050 <.L0 +0x2c>
   2b7bc:	94 30 00 79 	moviglz gr3 7 <_core0_exp_start+0x2>
   2b7c0:	94 40 10 71 	movigh gr4 107 <cla_interrupt_defaulthandler+0x7>

    //
    // Enable XOSC pads initialization and set X1, X2 high
    //
    HWREGH(CLKCFG_BASE + SYSCTL_O_XTALCR2)
        |= SYSCTL_XTALCR2_FEN | SYSCTL_XTALCR2_XIF | SYSCTL_XTALCR2_XOF;
   2b7c4:	14 41 04 c5 ®░	movigl gr4 104c <.L0 +0x28>
   2b7c8:	a8 50 80 01 ®Ė	load16 gr5 gr2 0 <_cla_int_entry_group0_0>
   2b7cc:	84 31 43 05 	or gr3 gr5 gr3
   2b7d0:	ec 30 80 01 	store16 gr3 gr2 0 <_cla_int_entry_group0_0>
    SYSCTL_XTAL_CHARGE_DELAY;

    //
    // Turn on XTAL and select crystal mode
    //
    HWREGH(CLKCFG_BASE + SYSCTL_O_XTALCR) &= ~SYSCTL_XTALCR_OSCOFF;
   2b7d4:	14 3f ff e9 ®░	moviglz gr3 fffffffe <Flash0CtrlRegs+0xfef5fffe>
   2b7d8:	a8 21 00 01 ®Ė	load16 gr2 gr4 0 <_cla_int_entry_group0_0>
   2b7dc:	84 20 83 04 	and gr2 gr2 gr3
   2b7e0:	ec 21 00 01 	store16 gr2 gr4 0 <_cla_int_entry_group0_0>
    SYSCTL_REGWRITE_DELAY;
    // HWREGH(CLKCFG_BASE + SYSCTL_O_XTALCR) &= ~SYSCTL_XTALCR_SE;
    // SYSCTL_REGWRITE_DELAY;
    EDIS;
   2b7e4:	80 00 00 14 	edis

    //
    // Wait for the X1 clock to saturate
    //
    status = SysCtl_pollX1Counter();
   2b7e8:	80 00 02 2d 	call 2b830 <SysCtl_pollX1Counter>
   2b7ec:	80 00 00 00 	nop
   2b7f0:	80 00 00 00 	nop
   2b7f4:	80 00 00 00 	nop

    //
    // Select XTAL as the oscillator source
    //
    EALLOW;
   2b7f8:	80 00 00 10 	eallow
   2b7fc:	94 20 10 71 	movigh gr2 107 <cla_interrupt_defaulthandler+0x7>
   2b800:	94 21 00 85 	movigl gr2 1008 <.L0 +0x18>
    HWREGH(CLKCFG_BASE + SYSCTL_O_CLKSRCCTL1)
        = ((HWREGH(CLKCFG_BASE + SYSCTL_O_CLKSRCCTL1) & (~SYSCTL_CLKSRCCTL1_OSCCLKSRCSEL_M))
   2b804:	14 4f ff c9 ®░	moviglz gr4 fffffffc <Flash0CtrlRegs+0xfef5fffc>
   2b808:	a8 30 80 01 ®Ė	load16 gr3 gr2 0 <_cla_int_entry_group0_0>
   2b80c:	84 30 c4 04 	and gr3 gr3 gr4
            | (SYSCTL_OSCSRC_XTAL >> SYSCTL_OSCSRC_S));
   2b810:	94 30 00 03 	bst gr3 0 <_cla_int_entry_group0_0>
    //
    // Select XTAL as the oscillator source
    //
    EALLOW;
    HWREGH(CLKCFG_BASE + SYSCTL_O_CLKSRCCTL1)
        = ((HWREGH(CLKCFG_BASE + SYSCTL_O_CLKSRCCTL1) & (~SYSCTL_CLKSRCCTL1_OSCCLKSRCSEL_M))
   2b814:	ec 30 80 01 	store16 gr3 gr2 0 <_cla_int_entry_group0_0>
            | (SYSCTL_OSCSRC_XTAL >> SYSCTL_OSCSRC_S));
    SYSCTL_CLKSRCCTL_DELAY;
    EDIS;
   2b818:	80 00 00 14 	edis
    // If code is stuck here, it means crystal has not started.
    // Replace crystal or update code below to take necessary actions if
    // crystal is bad
    // ESTOP0;
    // }
}
   2b81c:	a9 f7 80 62 	load32 gr31 gr30 3 <_cla_int_entry_group0_0+0x3>
   2b820:	99 e7 80 80 	addi gr30 gr30 10 <_cla_int_entry_group0_1>
   2b824:	80 00 00 04 	ret
   2b828:	80 00 00 00 	nop
   2b82c:	80 00 00 00 	nop

0002b830 <SysCtl_pollX1Counter>:
//
// SysCtl_pollX1Counter()
//
//*****************************************************************************
static bool SysCtl_pollX1Counter(void)
{
   2b830:	99 e7 bf 80 	addi gr30 gr30 fffffff0 <Flash0CtrlRegs+0xfef5fff0>
   2b834:	ed f7 80 62 	store32 gr31 gr30 3 <_cla_int_entry_group0_0+0x3>
   2b838:	94 40 7d 09 	moviglz gr4 7d0 <.L0 +0x14>
    //
    // Delay for 1 ms while the XTAL powers up
    //
    // 2000 loops, 5 cycles per loop + 9 cycles overhead = 10009 cycles
    //
    SysCtl_delay(2000);
   2b83c:	83 ff f2 4d 	call 2b688 <SysCtl_delay>
   2b840:	80 00 00 00 	nop
   2b844:	80 00 00 00 	nop
   2b848:	80 00 00 00 	nop
   2b84c:	94 20 00 09 	moviglz gr2 0 <_cla_int_entry_group0_0>
   2b850:	90 30 80 80 	movg2g gr3 gr2
   2b854:	94 40 10 71 	movigh gr4 107 <cla_interrupt_defaulthandler+0x7>
   2b858:	94 41 04 85 	movigl gr4 1048 <.L0 +0x24>
    do
    {
        //
        // Keep clearing the counter until it is no longer saturated
        //
        while (HWREG(CLKCFG_BASE + SYSCTL_O_X1CNT) > 0x1FFU)
   2b85c:	14 50 20 09 ®░	moviglz gr5 200 <$line_table_start0+0x9>
   2b860:	a8 41 00 02 ®Ė	load32 gr4 gr4 0 <_cla_int_entry_group0_0>
   2b864:	90 01 05 0b 	ltu gr4 gr5
   2b868:	94 40 00 09 	moviglz gr4 0 <_cla_int_entry_group0_0>
   2b86c:	80 00 01 45 	jc 2b898 <SysCtl_pollX1Counter+0x68>
   2b870:	80 00 00 00 	nop
   2b874:	80 00 00 00 	nop
   2b878:	94 40 10 71 	movigh gr4 107 <cla_interrupt_defaulthandler+0x7>
   2b87c:	94 41 04 85 	movigl gr4 1048 <.L0 +0x24>
        {
            HWREG(CLKCFG_BASE + SYSCTL_O_X1CNT) |= SYSCTL_X1CNT_CLR;
   2b880:	a8 51 00 02 	load32 gr5 gr4 0 <_cla_int_entry_group0_0>
   2b884:	94 50 20 03 	bst gr5 fffffff0 <Flash0CtrlRegs+0xfef5fff0>
   2b888:	ec 51 00 02 	store32 gr5 gr4 0 <_cla_int_entry_group0_0>
    do
    {
        //
        // Keep clearing the counter until it is no longer saturated
        //
        while (HWREG(CLKCFG_BASE + SYSCTL_O_X1CNT) > 0x1FFU)
   2b88c:	83 ff fe 21 	jmp 2b854 <SysCtl_pollX1Counter+0x24>
   2b890:	80 00 00 00 	nop
   2b894:	80 00 00 00 	nop
   2b898:	94 50 10 71 	movigh gr5 107 <cla_interrupt_defaulthandler+0x7>
   2b89c:	94 51 04 85 	movigl gr5 1048 <.L0 +0x24>
        }

        //
        // Wait for the X1 clock to saturate
        //
        while (HWREGH(CLKCFG_BASE + SYSCTL_O_X1CNT) != SYSCTL_X1CNT_X1CNT_M)
   2b8a0:	14 60 7f f9 ®░	moviglz gr6 7ff <.L0 +0xd>
   2b8a4:	a8 51 40 01 ®Ė	load16 gr5 gr5 0 <_cla_int_entry_group0_0>
   2b8a8:	90 01 46 00 	eq gr5 gr6
   2b8ac:	80 00 01 c5 	jc 2b8e8 <SysCtl_pollX1Counter+0xb8>
   2b8b0:	80 00 00 00 	nop
   2b8b4:	80 00 00 00 	nop
        {
            //
            // If your application is stuck in this loop, please check if the
            // input clock source is valid.
            //
            localCounter++;
   2b8b8:	98 41 00 08 	addi gr4 gr4 1 <_cla_int_entry_group0_0+0x1>
   2b8bc:	94 50 02 61 	movigh gr5 26 <.L0 >
   2b8c0:	94 52 5a 15 	movigl gr5 25a1 <.L0 +0x13>
            if (localCounter > 2500000U)
   2b8c4:	90 01 05 0b 	ltu gr4 gr5
   2b8c8:	83 ff fe 65 	jc 2b898 <SysCtl_pollX1Counter+0x68>
   2b8cc:	80 00 00 00 	nop
   2b8d0:	80 00 00 00 	nop
   2b8d4:	94 4f ff f9 	moviglz gr4 ffffffff <Flash0CtrlRegs+0xfef5ffff>
            {
                if (loopCount == 3U)
   2b8d8:	84 40 c4 04 	and gr4 gr3 gr4
   2b8dc:	94 01 00 62 	eqi gr4 3 <_cla_int_entry_group0_0+0x3>
   2b8e0:	94 40 00 09 	moviglz gr4 0 <_cla_int_entry_group0_0>
   2b8e4:	90 21 02 42 	select gr2 gr4 gr2
   2b8e8:	94 4f ff f9 	moviglz gr4 ffffffff <Flash0CtrlRegs+0xfef5ffff>
                }
                break;
            }
        }

        if (loopCount == 3U && (HWREGH(CLKCFG_BASE + SYSCTL_O_X1CNT) == SYSCTL_X1CNT_X1CNT_M))
   2b8ec:	84 40 c4 04 	and gr4 gr3 gr4
   2b8f0:	94 01 00 66 	neqi gr4 3 <_cla_int_entry_group0_0+0x3>
   2b8f4:	80 00 01 25 	jc 2b91c <SysCtl_pollX1Counter+0xec>
   2b8f8:	80 00 00 00 	nop
   2b8fc:	80 00 00 00 	nop
   2b900:	94 40 10 71 	movigh gr4 107 <cla_interrupt_defaulthandler+0x7>
   2b904:	94 41 04 85 	movigl gr4 1048 <.L0 +0x24>
   2b908:	14 50 7f f9 ®░	moviglz gr5 7ff <.L0 +0xd>
   2b90c:	a8 41 00 01 ®Ė	load16 gr4 gr4 0 <_cla_int_entry_group0_0>
   2b910:	94 60 00 19 	moviglz gr6 1 <_cla_int_entry_group0_0+0x1>
   2b914:	90 01 05 00 	eq gr4 gr5
   2b918:	90 21 82 42 	select gr2 gr6 gr2
            status = true;
        }
        //
        // Increment the counter
        //
        loopCount++;
   2b91c:	98 30 c0 08 	addi gr3 gr3 1 <_cla_int_entry_group0_0+0x1>
   2b920:	94 4f ff f9 	moviglz gr4 ffffffff <Flash0CtrlRegs+0xfef5ffff>
   2b924:	84 40 c4 04 	and gr4 gr3 gr4
        localCounter = 0U;
    } while (loopCount < 4U);
   2b928:	94 01 00 97 	ltiu gr4 4 <_cla_int_entry_group0_0+0x4>
   2b92c:	83 ff f9 25 	jc 2b854 <SysCtl_pollX1Counter+0x24>
   2b930:	80 00 00 00 	nop
   2b934:	80 00 00 00 	nop
   2b938:	94 30 00 19 	moviglz gr3 1 <_cla_int_entry_group0_0+0x1>

    return status;
   2b93c:	04 20 83 04 ®░	and gr2 gr2 gr3
   2b940:	a9 f7 80 62 ®Ė	load32 gr31 gr30 3 <_cla_int_entry_group0_0+0x3>
   2b944:	99 e7 80 80 	addi gr30 gr30 10 <_cla_int_entry_group0_1>
   2b948:	80 00 00 04 	ret
   2b94c:	80 00 00 00 	nop
   2b950:	80 00 00 00 	nop

0002b954 <main>:
// õĖ║ÕŖĀÕ┐½õ╗┐ń£¤ķĆ¤Õ║”’╝īµēōÕŹ░õĖ▓ÕÅŻµ│óńē╣ńÄćÕ£©ÕēŹõ╗┐ńÄ»ÕóāõĖŁķ╗śĶ«żķģŹńĮ«õĖ║ÕĮōÕēŹń│╗ń╗¤µŚČķÆ¤µö»µīüńÜäµ£Ćķ½śķĆ¤Õ║”
// FPGA ÕÆīĶŖ»ńēćÕø×ńēćõ╗┐ń£¤µŚČķ£ĆĶ”üÕ╝ĆÕÉ» FPGA_TEST Õ«Å, µŁżµŚČõĖ▓ÕÅŻµēōÕŹ░ķĆ¤Õ║”õĖ║ StdOutInit ÕćĮµĢ░ÕÅéµĢ░ķģŹńĮ«ńÜäķĆ¤Õ║”
// ķ╗śĶ«żõĖŹÕ╝ĆÕÉ»µĀĖ2ńÜäµŚČķÆ¤, Õ”éµ×£ķ£ĆĶ”üÕ╝ĆÕÉ»µĀĖ2µŚČķÆ¤ķ£ĆĶ”üÕ£©CPU1ńÜäµĄŗĶ»Ģńö©õŠŗķćīķćŖµöŠCPU2ńÜäÕżŹõĮŹõ┐ĪÕÅĘ

int main(void)
{
   2b954:	99 e7 bf 80 	addi gr30 gr30 fffffff0 <Flash0CtrlRegs+0xfef5fff0>
    chipAutotestCaseStart();                   // ńö©õ║ÄĶć¬ÕŖ©Õī¢µĄŗĶ»ĢµŚČńÜäÕłØÕ¦ŗÕī¢
   2b958:	ed f7 80 62 	store32 gr31 gr30 3 <_cla_int_entry_group0_0+0x3>
   2b95c:	83 ff 5c cd 	call 2a4f8 <chipAutotestCaseStart>
   2b960:	80 00 00 00 	nop
   2b964:	80 00 00 00 	nop
   2b968:	80 00 00 00 	nop
    sim_env_flag = CpuTimer0Regs.TCR.bit.FREE; // ÕĆ¤ńö©TIMER.FREEķ╗śĶ«żÕĆ╝µØźÕī║ÕłåÕēŹõ╗┐ÕÆīń£¤Õ«×ńÜäĶŖ»ńēćńÄ»Õóā
   2b96c:	94 20 07 f1 	movigh gr2 7f <.L0 +0x8>
   2b970:	94 20 30 05 	movigl gr2 300 <.L0 +0x3c>
   2b974:	14 30 00 19 ®░	moviglz gr3 1 <_cla_int_entry_group0_0+0x1>
   2b978:	a8 20 80 81 ®Ė	load16 gr2 gr2 4 <_cla_int_entry_group0_0+0x4>
   2b97c:	94 40 00 11 	movigh gr4 1 <_cla_int_entry_group0_0+0x1>
   2b980:	94 40 4f 05 	movigl gr4 4f0 <.L0 >
   2b984:	98 20 8b 0e 	srli gr2 gr2 b <_core0_exp_start+0x6>
   2b988:	84 20 83 04 	and gr2 gr2 gr3
   2b98c:	ec 21 00 00 	store8 gr2 gr4 0 <_cla_int_entry_group0_0>

    if (!sim_env_flag)
   2b990:	a8 21 00 00 	load8 gr2 gr4 0 <_cla_int_entry_group0_0>
   2b994:	94 00 80 06 	neqi gr2 0 <_cla_int_entry_group0_0>
   2b998:	80 00 00 c5 	jc 2b9b4 <main+0x60>
   2b99c:	80 00 00 00 	nop
   2b9a0:	80 00 00 00 	nop
        Interrupt_initVectorTable();
   2b9a4:	83 ff c6 ad 	call 2b27c <Interrupt_initVectorTable>
   2b9a8:	80 00 00 00 	nop
   2b9ac:	80 00 00 00 	nop
   2b9b0:	80 00 00 00 	nop

    Device_init();
   2b9b4:	83 ff ad cd 	call 2af70 <Device_init>
   2b9b8:	80 00 00 00 	nop
   2b9bc:	80 00 00 00 	nop
   2b9c0:	80 00 00 00 	nop

#if 1
    StdOutInit(&SciaRegs, 921600, 12, GPIO_12_SCIA_TX);
   2b9c4:	94 40 10 91 	movigh gr4 109 <cla_interrupt_defaulthandler+0x9>
   2b9c8:	94 46 00 05 	movigl gr4 6000 <$line_table_start0+0x129>
   2b9cc:	94 50 00 e1 	movigh gr5 e <_core0_exp_start+0x9>
   2b9d0:	94 51 00 05 	movigl gr5 1000 <.L0 +0x10>
   2b9d4:	94 60 00 c9 	moviglz gr6 c <_core0_exp_start+0x7>
   2b9d8:	94 70 00 c1 	movigh gr7 c <_core0_exp_start+0x7>
   2b9dc:	94 71 80 65 	movigl gr7 1806 <.L0 +0x34>
   2b9e0:	83 ff 59 ad 	call 2a518 <StdOutInit>
   2b9e4:	80 00 00 00 	nop
   2b9e8:	80 00 00 00 	nop
   2b9ec:	80 00 00 00 	nop
    // SysCtl_controlCPU2Reset(SYSCTL_CORE_DEACTIVE);
    // while(1){};

    //puts("0");

    tests_core0();
   2b9f0:	83 ff 42 6d 	call 2a240 <tests_core0>
   2b9f4:	80 00 00 00 	nop
   2b9f8:	80 00 00 00 	nop
   2b9fc:	80 00 00 00 	nop

    EndSimulation();
   2ba00:	83 ff 64 ed 	call 2a6a0 <EndSimulation>
   2ba04:	80 00 00 00 	nop
   2ba08:	80 00 00 00 	nop
   2ba0c:	80 00 00 00 	nop

    return 0;
   2ba10:	14 20 00 09 ®░	moviglz gr2 0 <_cla_int_entry_group0_0>
   2ba14:	a9 f7 80 62 ®Ė	load32 gr31 gr30 3 <_cla_int_entry_group0_0+0x3>
   2ba18:	99 e7 80 80 	addi gr30 gr30 10 <_cla_int_entry_group0_1>
   2ba1c:	80 00 00 04 	ret
   2ba20:	80 00 00 00 	nop
   2ba24:	80 00 00 00 	nop

0002ba28 <.L0 >:
   2ba28:	80 00 00 00 	nop
   2ba2c:	80 00 00 00 	nop

Disassembly of section .cla.text:

00000000 <_cla_int_entry_group0_0>:
nop||
nop||

.section .text.qxboot1debug
# set exp start for DSP cores and CLA
movigh gr2 0x0107||
       0:	80 00 07 e1 	jmp 100 <cla_interrupt_defaulthandler>
movigl gr2 0x2000||
       4:	80 00 00 00 	nop
movigh gr4 0x0||
       8:	80 00 00 00 	nop
movigl gr4 %lo16(_core1_exp_start)||
       c:	80 00 00 00 	nop

00000010 <_cla_int_entry_group0_1>:
||store32 gr4 gr2 0x35
      10:	80 00 07 61 	jmp 100 <cla_interrupt_defaulthandler>
# enable far ram prefetch
movigh gr2 0x0107||
      14:	80 00 00 00 	nop
movigl gr2 0x20DC||
      18:	80 00 00 00 	nop
moviglz gr3 1||
      1c:	80 00 00 00 	nop

00000020 <_cla_int_entry_group0_2>:
||store32 gr3 gr2 0
      20:	80 00 06 e1 	jmp 100 <cla_interrupt_defaulthandler>
jmp _dsp_start||
      24:	80 00 00 00 	nop
nop||
      28:	80 00 00 00 	nop
nop||
      2c:	80 00 00 00 	nop

00000030 <_cla_int_entry_group0_3>:
    uint32_t inputMask;

    //
    // Determine flag clear register offset.
    //
    switch((uint16_t)inputFlag & XBAR_INPUT_FLG_REG_M)
      30:	80 00 06 61 	jmp 100 <cla_interrupt_defaulthandler>
      34:	80 00 00 00 	nop
      38:	80 00 00 00 	nop
      3c:	80 00 00 00 	nop

00000040 <_cla_int_entry_group0_4>:
      40:	80 00 05 e1 	jmp 100 <cla_interrupt_defaulthandler>
      44:	80 00 00 00 	nop
            offset = XBAR_O_CLR1;
            break;

        case XBAR_INPUT_FLG_REG_2:
            offset = XBAR_O_CLR2;
            break;
      48:	80 00 00 00 	nop
      4c:	80 00 00 00 	nop

00000050 <_cla_int_entry_group0_5>:
      50:	80 00 05 61 	jmp 100 <cla_interrupt_defaulthandler>
      54:	80 00 00 00 	nop

        case XBAR_INPUT_FLG_REG_3:
            offset = XBAR_O_CLR3;
            break;
      58:	80 00 00 00 	nop
      5c:	80 00 00 00 	nop

00000060 <_cla_int_entry_group0_6>:
      60:	80 00 04 e1 	jmp 100 <cla_interrupt_defaulthandler>
      64:	80 00 00 00 	nop

        case XBAR_INPUT_FLG_REG_4:
            offset = XBAR_O_CLR4;
            break;
      68:	80 00 00 00 	nop
      6c:	80 00 00 00 	nop

00000070 <_cla_int_entry_group0_7>:
      70:	80 00 04 61 	jmp 100 <cla_interrupt_defaulthandler>
      74:	80 00 00 00 	nop

        case XBAR_INPUT_FLG_REG_5:
            offset = XBAR_O_CLR5;
            break;
      78:	80 00 00 00 	nop
      7c:	80 00 00 00 	nop

00000080 <_cla_int_entry_group0_8>:
      80:	80 00 03 e1 	jmp 100 <cla_interrupt_defaulthandler>
      84:	80 00 00 00 	nop

       case XBAR_INPUT_FLG_REG_6:
            offset = XBAR_O_CLR6;
            break;
      88:	80 00 00 00 	nop
      8c:	80 00 00 00 	nop

00000090 <_cla_int_entry_group0_9>:
      90:	80 00 03 61 	jmp 100 <cla_interrupt_defaulthandler>
      94:	80 00 00 00 	nop

        case XBAR_INPUT_FLG_REG_7:
            offset = XBAR_O_CLR7;
            break;
      98:	80 00 00 00 	nop
      9c:	80 00 00 00 	nop

000000a0 <_cla_int_entry_group0_10>:
      a0:	80 00 02 e1 	jmp 100 <cla_interrupt_defaulthandler>
      a4:	80 00 00 00 	nop

        case XBAR_INPUT_FLG_REG_8:
            offset = XBAR_O_CLR8;
            break;
      a8:	80 00 00 00 	nop
      ac:	80 00 00 00 	nop

000000b0 <_cla_int_entry_group0_11>:
      b0:	80 00 02 61 	jmp 100 <cla_interrupt_defaulthandler>
      b4:	80 00 00 00 	nop

        case XBAR_INPUT_FLG_REG_9:
            offset = XBAR_O_CLR9;
            break;
      b8:	80 00 00 00 	nop
      bc:	80 00 00 00 	nop

000000c0 <_cla_int_entry_group0_12>:
      c0:	80 00 01 e1 	jmp 100 <cla_interrupt_defaulthandler>
      c4:	80 00 00 00 	nop

        case XBAR_INPUT_FLG_REG_10:
            offset = XBAR_O_CLR10;
            break;
      c8:	80 00 00 00 	nop
      cc:	80 00 00 00 	nop

000000d0 <_cla_int_entry_group0_13>:
      d0:	80 00 01 61 	jmp 100 <cla_interrupt_defaulthandler>
      d4:	80 00 00 00 	nop

        case XBAR_INPUT_FLG_REG_11:
            offset = XBAR_O_CLR11;
            break;
      d8:	80 00 00 00 	nop
      dc:	80 00 00 00 	nop

000000e0 <_cla_int_entry_group0_14>:
      e0:	80 00 00 e1 	jmp 100 <cla_interrupt_defaulthandler>
      e4:	80 00 00 00 	nop

        case XBAR_INPUT_FLG_REG_12:
            offset = XBAR_O_CLR12;
            break;
      e8:	80 00 00 00 	nop
      ec:	80 00 00 00 	nop

000000f0 <_cla_int_entry_group0_15>:
      f0:	80 00 00 61 	jmp 100 <cla_interrupt_defaulthandler>
      f4:	80 00 00 00 	nop

        case XBAR_INPUT_FLG_REG_13:
            offset = XBAR_O_CLR13;
            break;
      f8:	80 00 00 00 	nop
      fc:	80 00 00 00 	nop

00000100 <cla_interrupt_defaulthandler>:
     100:	83 ff ff e1 	jmp 100 <cla_interrupt_defaulthandler>
     104:	80 00 00 00 	nop

        case XBAR_INPUT_FLG_REG_14:
            offset = XBAR_O_CLR14;
            break;
     108:	80 00 00 00 	nop

0000010c <Cla1Task1>:
     10c:	a0 00 00 00 	nop
     110:	a0 00 00 00 	nop
     114:	a0 00 00 00 	nop

        case XBAR_INPUT_FLG_REG_15:
            offset = XBAR_O_CLR15;
            break;
     118:	a0 00 00 00 	nop
     11c:	a0 00 00 00 	nop
     120:	80 00 00 0f 	movc2g gr0
     124:	94 07 80 06 	neqi gr30 0 <_cla_int_entry_group0_0>

        case XBAR_INPUT_FLG_REG_16:
            offset = XBAR_O_CLR16;
            break;
     128:	80 00 00 85 	jc 13c <.L0 +0x1d>
     12c:	80 00 00 00 	nop
     130:	80 00 00 00 	nop
     134:	95 e0 00 11 	movigh gr30 1 <_cla_int_entry_group0_0+0x1>
     138:	95 e0 00 05 	movigl gr30 0 <_cla_int_entry_group0_0>
     13c:	99 e7 bf 80 	addi gr30 gr30 fffffff0 <Flash0CtrlRegs+0xfef5fff0>
     140:	ec 27 80 62 	store32 gr2 gr30 3 <_cla_int_entry_group0_0+0x3>
    }

    //
    // Set the bit that clears the X-BAR input latch.
    //
    inputMask = 1UL << ((uint32_t)inputFlag & XBAR_INPUT_FLG_INPUT_M);
     144:	ec 37 80 42 	store32 gr3 gr30 2 <_cla_int_entry_group0_0+0x2>
    HWREG(XBAR_BASE + offset) = inputMask;
     148:	94 24 10 01 	movigh gr2 4100 <.L0 +0x18>
     14c:	94 20 00 05 	movigl gr2 0 <_cla_int_entry_group0_0>
    }

    //
    // Set the bit that clears the X-BAR input latch.
    //
    inputMask = 1UL << ((uint32_t)inputFlag & XBAR_INPUT_FLG_INPUT_M);
     150:	94 34 08 01 	movigh gr3 4080 <.L0 +0xf>
    HWREG(XBAR_BASE + offset) = inputMask;
     154:	14 30 00 05 ®░	movigl gr3 0 <_cla_int_entry_group0_0>
}
     158:	ec 27 80 22 ®Ė	store32 gr2 gr30 1 <_cla_int_entry_group0_0+0x1>
     15c:	ec 37 80 02 	store32 gr3 gr30 0 <_cla_int_entry_group0_0>
     160:	14 30 02 01 ®░	movigh gr3 20 <_cla_int_entry_group0_2>

            //
            // Allow auto clearing of RxPktRdy when packet of size max packet
            // has been unloaded from the FIFO.
            //
            if (ui32Flags & USB_EP_AUTO_CLEAR)
     164:	a8 27 80 02 ®Ė	load32 gr2 gr30 0 <_cla_int_entry_group0_0>

00000168 <.L0 >:
            }

            //
            // Allow auto generation of DMA requests.
            //
            if (ui32Flags & USB_EP_AUTO_REQUEST)
     168:	14 33 00 05 ®░	movigl gr3 3000 <.L0 +0x3>
     16c:	f0 20 80 cf ®Ė	fseisqrt gr2 gr2

00000170 <.L0 >:
     170:	ec 20 c0 02 	store32 gr2 gr3 0 <_cla_int_entry_group0_0>

            //
            // Allow auto clearing of RxPktRdy when packet of size max packet
            // has been unloaded from the FIFO.
            //
            if (ui32Flags & USB_EP_AUTO_CLEAR)
     174:	a8 37 80 42 	load32 gr3 gr30 2 <_cla_int_entry_group0_0+0x2>
        else
        {
            //
            // Set the transfer type information.
            //
            HWREGB(ui32Base + EP_OFFSET(ui32Endpoint) + USB_O_RXTYPE1) = ui32Register;
     178:	a8 27 80 62 	load32 gr2 gr30 3 <_cla_int_entry_group0_0+0x3>
            }

            //
            // Allow auto generation of DMA requests.
            //
            if (ui32Flags & USB_EP_AUTO_REQUEST)
     17c:	99 e7 80 80 	addi gr30 gr30 10 <_cla_int_entry_group0_1>
     180:	80 00 00 0b 	movg2c gr0
     184:	80 00 00 0a 	mstop
        else
        {
            //
            // Set the transfer type information.
            //
            HWREGB(ui32Base + EP_OFFSET(ui32Endpoint) + USB_O_RXTYPE1) = ui32Register;
     188:	80 00 00 00 	nop
     18c:	80 00 00 00 	nop

00000190 <Cla1Task2>:

            //
            // Set the NAK timeout or polling interval.
            //
            HWREGB(ui32Base + EP_OFFSET(ui32Endpoint) + USB_O_RXINTERVAL1) = ui32NAKPollInterval;
     190:	a0 00 00 00 	nop
     194:	a0 00 00 00 	nop
     198:	a0 00 00 00 	nop
     19c:	a0 00 00 00 	nop
            }

            //
            // Allow auto generation of DMA requests.
            //
            if (ui32Flags & USB_EP_AUTO_REQUEST)
     1a0:	a0 00 00 00 	nop
     1a4:	80 00 00 0f 	movc2g gr0
            }

            //
            // Configure the DMA Mode.
            //
            if (ui32Flags & USB_EP_DMA_MODE_1)
     1a8:	94 07 80 06 	neqi gr30 0 <_cla_int_entry_group0_0>
     1ac:	80 00 00 85 	jc 1c0 <.L0 +0x9>
     1b0:	80 00 00 00 	nop
     1b4:	80 00 00 00 	nop
     1b8:	95 e0 00 11 	movigh gr30 1 <_cla_int_entry_group0_0+0x1>
            {
                ui32Register |= USB_RXCSRH1_DMAEN | USB_RXCSRH1_DMAMOD;
     1bc:	95 e0 00 05 	movigl gr30 0 <_cla_int_entry_group0_0>
            }
     1c0:	99 e7 bf 40 	addi gr30 gr30 ffffffe8 <Flash0CtrlRegs+0xfef5ffe8>
     1c4:	ec 27 80 a2 	store32 gr2 gr30 5 <_core0_exp_start>
     1c8:	ec 37 80 82 	store32 gr3 gr30 4 <_cla_int_entry_group0_0+0x4>
     1cc:	ec 47 80 62 	store32 gr4 gr30 3 <_cla_int_entry_group0_0+0x3>
     1d0:	94 24 10 01 	movigh gr2 4100 <.L0 +0x18>
            else if (ui32Flags & USB_EP_DMA_MODE_0)
     1d4:	94 20 00 05 	movigl gr2 0 <_cla_int_entry_group0_0>
     1d8:	94 34 00 01 	movigh gr3 4000 <.L0 +0x11>
     1dc:	94 30 00 05 	movigl gr3 0 <_cla_int_entry_group0_0>
     1e0:	94 40 02 01 	movigh gr4 20 <_cla_int_entry_group0_2>
     1e4:	14 43 00 45 ®░	movigl gr4 3004 <.L0 +0x7>
            }

            //
            // Write out the receive control value.
            //
            HWREGB(ui32Base + EP_OFFSET(ui32Endpoint) + USB_O_RXCSRH1) = (uint8_t)ui32Register;
     1e8:	ec 27 80 42 ®Ė	store32 gr2 gr30 2 <_cla_int_entry_group0_0+0x2>
     1ec:	28 27 80 42 ®░	load32 gr2 gr30 2 <_cla_int_entry_group0_0+0x2>
     1f0:	ec 37 80 22 ®Ė	store32 gr3 gr30 1 <_cla_int_entry_group0_0+0x1>
        }
    }
}
     1f4:	a8 37 80 22 	load32 gr3 gr30 1 <_cla_int_entry_group0_0+0x1>
     1f8:	84 20 83 6e 	fsdiv gr2 gr2 gr3
     1fc:	ec 21 00 02 	store32 gr2 gr4 0 <_cla_int_entry_group0_0>
            SYSCTL_REGWRITE_DELAY;

            //
            // Enable AUXPLL
            //
            HWREGH(CLKCFG_BASE + SYSCTL_O_AUXPLLCTL1) |= SYSCTL_AUXPLLCTL1_PLLEN;
     200:	a8 47 80 62 	load32 gr4 gr30 3 <_cla_int_entry_group0_0+0x3>
            EDIS;
     204:	a8 37 80 82 	load32 gr3 gr30 4 <_cla_int_entry_group0_0+0x4>
     208:	a8 27 80 a2 	load32 gr2 gr30 5 <_core0_exp_start>
     20c:	99 e7 80 c0 	addi gr30 gr30 18 <_core1_exp_start+0x1>
     210:	80 00 00 0b 	movg2c gr0

            //
            // Wait for the AUXPLL lock counter
            //

            while ((HWREGH(CLKCFG_BASE + SYSCTL_O_AUXPLLSTS) & SYSCTL_AUXPLLSTS_LOCKS) != 1U)
     214:	80 00 00 0a 	mstop
     218:	80 00 00 00 	nop
     21c:	80 00 00 00 	nop

00000220 <Cla1Task3>:
     220:	a0 00 00 00 	nop
     224:	a0 00 00 00 	nop
     228:	a0 00 00 00 	nop
     22c:	a0 00 00 00 	nop
     230:	a0 00 00 00 	nop
     234:	80 00 00 0f 	movc2g gr0
     238:	94 07 80 06 	neqi gr30 0 <_cla_int_entry_group0_0>
            else
            {
                ESTOP0;
            }

            if ((config & SYSCTL_PLL_CONFIG_M) == SYSCTL_AUXPLL_ENABLE)
     23c:	80 00 00 85 	jc 250 <Cla1Task3+0x30>
     240:	80 00 00 00 	nop
     244:	80 00 00 00 	nop
     248:	95 e0 00 11 	movigh gr30 1 <_cla_int_entry_group0_0+0x1>
     24c:	95 e0 00 05 	movigl gr30 0 <_cla_int_entry_group0_0>
     250:	99 e7 bf 40 	addi gr30 gr30 ffffffe8 <Flash0CtrlRegs+0xfef5ffe8>
            {
                //
                // Set divider to desired value
                //
                EALLOW;
     254:	ec 27 80 a2 	store32 gr2 gr30 5 <_core0_exp_start>
     258:	ec 37 80 82 	store32 gr3 gr30 4 <_cla_int_entry_group0_0+0x4>
     25c:	ec 47 80 62 	store32 gr4 gr30 3 <_cla_int_entry_group0_0+0x3>
     260:	94 24 10 01 	movigh gr2 4100 <.L0 +0x18>
                HWREGH(CLKCFG_BASE + SYSCTL_O_AUXCLKDIVSEL)
                    = (config & SYSCTL_SYSDIV_M) >> SYSCTL_SYSDIV_S;
     264:	94 20 00 05 	movigl gr2 0 <_cla_int_entry_group0_0>
     268:	94 34 00 01 	movigh gr3 4000 <.L0 +0x11>
     26c:	94 30 00 05 	movigl gr3 0 <_cla_int_entry_group0_0>
                EDIS;
     270:	94 40 02 01 	movigh gr4 20 <_cla_int_entry_group0_2>

                //
                // Enable AUXPLLCLK to be fed from AUXPLL
                //
                EALLOW;
     274:	14 43 00 85 ®░	movigl gr4 3008 <.L0 +0xb>
     278:	ec 27 80 42 ®Ė	store32 gr2 gr30 2 <_cla_int_entry_group0_0+0x2>
     27c:	28 27 80 42 ®░	load32 gr2 gr30 2 <_cla_int_entry_group0_0+0x2>
                HWREGH(CLKCFG_BASE + SYSCTL_O_AUXPLLCTL1) |= SYSCTL_AUXPLLCTL1_PLLCLKEN;
     280:	ec 37 80 22 ®Ė	store32 gr3 gr30 1 <_cla_int_entry_group0_0+0x1>
     284:	a8 37 80 22 	load32 gr3 gr30 1 <_cla_int_entry_group0_0+0x1>
     288:	84 20 83 62 	fsadd gr2 gr2 gr3
     28c:	ec 21 00 02 	store32 gr2 gr4 0 <_cla_int_entry_group0_0>
                SysCtl_delay(3U);
     290:	a8 47 80 62 	load32 gr4 gr30 3 <_cla_int_entry_group0_0+0x3>
     294:	a8 37 80 82 	load32 gr3 gr30 4 <_cla_int_entry_group0_0+0x4>
     298:	a8 27 80 a2 	load32 gr2 gr30 5 <_core0_exp_start>
     29c:	99 e7 80 c0 	addi gr30 gr30 18 <_core1_exp_start+0x1>

                EDIS;
     2a0:	80 00 00 0b 	movg2c gr0
     2a4:	80 00 00 0a 	mstop
            }

            if (started == 0U)
     2a8:	80 00 00 00 	nop
     2ac:	80 00 00 00 	nop

000002b0 <Cla1Task4>:
     2b0:	a0 00 00 00 	nop
     2b4:	a0 00 00 00 	nop
     2b8:	a0 00 00 00 	nop
            {
                //
                // AUX PLL may not have started. Reset multiplier to 0 (bypass
                // PLL).
                //
                EALLOW;
     2bc:	a0 00 00 00 	nop
     2c0:	a0 00 00 00 	nop
     2c4:	80 00 00 0f 	movc2g gr0
     2c8:	94 07 80 06 	neqi gr30 0 <_cla_int_entry_group0_0>
                HWREGH(CLKCFG_BASE + SYSCTL_O_AUXPLLMULT) = 0U;
     2cc:	80 00 00 85 	jc 2e0 <.L0 +0x1c>
                EDIS;
     2d0:	80 00 00 00 	nop
     2d4:	80 00 00 00 	nop
     2d8:	95 e0 00 11 	movigh gr30 1 <_cla_int_entry_group0_0+0x1>
     2dc:	95 e0 00 05 	movigl gr30 0 <_cla_int_entry_group0_0>
        else
        {
            //
            // Set divider to desired value
            //
            EALLOW;
     2e0:	99 e7 bf 40 	addi gr30 gr30 ffffffe8 <Flash0CtrlRegs+0xfef5ffe8>
     2e4:	ec 27 80 a2 	store32 gr2 gr30 5 <_core0_exp_start>
     2e8:	ec 37 80 82 	store32 gr3 gr30 4 <_cla_int_entry_group0_0+0x4>
     2ec:	ec 47 80 62 	store32 gr4 gr30 3 <_cla_int_entry_group0_0+0x3>
            HWREGH(CLKCFG_BASE + SYSCTL_O_AUXCLKDIVSEL)
                = (config & SYSCTL_SYSDIV_M) >> SYSCTL_SYSDIV_S;
     2f0:	94 24 10 01 	movigh gr2 4100 <.L0 +0x18>
     2f4:	94 20 00 05 	movigl gr2 0 <_cla_int_entry_group0_0>
     2f8:	94 34 00 01 	movigh gr3 4000 <.L0 +0x11>
            EDIS;
     2fc:	94 30 00 05 	movigl gr3 0 <_cla_int_entry_group0_0>
     300:	94 40 02 01 	movigh gr4 20 <_cla_int_entry_group0_2>
     304:	14 43 00 c5 ®░	movigl gr4 300c <.L0 +0xf>
     308:	ec 27 80 42 ®Ė	store32 gr2 gr30 2 <_cla_int_entry_group0_0+0x2>
     30c:	28 27 80 42 ®░	load32 gr2 gr30 2 <_cla_int_entry_group0_0+0x2>

            if ((config & SYSCTL_PLL_CONFIG_M) == SYSCTL_AUXPLL_ENABLE)
     310:	ec 37 80 22 ®Ė	store32 gr3 gr30 1 <_cla_int_entry_group0_0+0x1>
     314:	a8 37 80 22 	load32 gr3 gr30 1 <_cla_int_entry_group0_0+0x1>
     318:	84 20 83 66 	fssub gr2 gr2 gr3
     31c:	ec 21 00 02 	store32 gr2 gr4 0 <_cla_int_entry_group0_0>
     320:	a8 47 80 62 	load32 gr4 gr30 3 <_cla_int_entry_group0_0+0x3>
            {
                //
                // Enable AUXPLLCLK to be fed from AUXPLL
                //
                EALLOW;
     324:	a8 37 80 82 	load32 gr3 gr30 4 <_cla_int_entry_group0_0+0x4>
     328:	a8 27 80 a2 	load32 gr2 gr30 5 <_core0_exp_start>
     32c:	99 e7 80 c0 	addi gr30 gr30 18 <_core1_exp_start+0x1>
                HWREGH(CLKCFG_BASE + SYSCTL_O_AUXPLLCTL1) |= SYSCTL_AUXPLLCTL1_PLLCLKEN;
     330:	80 00 00 0b 	movg2c gr0
     334:	80 00 00 0a 	mstop
     338:	80 00 00 00 	nop
     33c:	80 00 00 00 	nop

00000340 <Cla1Task5>:
                SysCtl_delay(3U);
     340:	a0 00 00 00 	nop
     344:	a0 00 00 00 	nop
     348:	a0 00 00 00 	nop
     34c:	a0 00 00 00 	nop

                EDIS;
     350:	a0 00 00 00 	nop
     354:	80 00 00 0f 	movc2g gr0
     358:	94 07 80 06 	neqi gr30 0 <_cla_int_entry_group0_0>
     35c:	80 00 00 85 	jc 370 <.L0 +0x10>
     360:	80 00 00 00 	nop
     364:	80 00 00 00 	nop
            }
        }
    }
    else if ((config & SYSCTL_PLL_CONFIG_M) == SYSCTL_AUXPLL_DISABLE)
     368:	95 e0 00 11 	movigh gr30 1 <_cla_int_entry_group0_0+0x1>
     36c:	95 e0 00 05 	movigl gr30 0 <_cla_int_entry_group0_0>
     370:	99 e7 bf 80 	addi gr30 gr30 fffffff0 <Flash0CtrlRegs+0xfef5fff0>
     374:	ec 27 80 62 	store32 gr2 gr30 3 <_cla_int_entry_group0_0+0x3>
     378:	ec 37 80 42 	store32 gr3 gr30 2 <_cla_int_entry_group0_0+0x2>
    {
        //
        // Turn off PLL when the PLL is disabled in config
        //
        EALLOW;
     37c:	94 24 10 01 	movigh gr2 4100 <.L0 +0x18>
     380:	94 20 00 05 	movigl gr2 0 <_cla_int_entry_group0_0>
     384:	94 34 00 01 	movigh gr3 4000 <.L0 +0x11>
        HWREGH(CLKCFG_BASE + SYSCTL_O_AUXPLLCTL1) &= ~SYSCTL_AUXPLLCTL1_PLLEN;
     388:	14 30 00 05 ®░	movigl gr3 0 <_cla_int_entry_group0_0>
     38c:	ec 27 80 22 ®Ė	store32 gr2 gr30 1 <_cla_int_entry_group0_0+0x1>
     390:	ec 37 80 02 	store32 gr3 gr30 0 <_cla_int_entry_group0_0>
     394:	14 30 02 01 ®░	movigh gr3 20 <_cla_int_entry_group0_2>
        EDIS;
     398:	a8 27 80 02 ®Ė	load32 gr2 gr30 0 <_cla_int_entry_group0_0>
    {
        //
        // Empty
        //
    }
}
     39c:	94 33 01 05 	movigl gr3 3010 <.L0 +0x13>
     3a0:	ec 20 c0 02 	store32 gr2 gr3 0 <_cla_int_entry_group0_0>
     3a4:	a8 37 80 42 	load32 gr3 gr30 2 <_cla_int_entry_group0_0+0x2>
     3a8:	a8 27 80 62 	load32 gr2 gr30 3 <_cla_int_entry_group0_0+0x3>
     3ac:	99 e7 80 80 	addi gr30 gr30 10 <_cla_int_entry_group0_1>
     3b0:	80 00 00 0b 	movg2c gr0
     3b4:	80 00 00 0a 	mstop
     3b8:	80 00 00 00 	nop
            //
            EPWM_setActionQualifierAction(
                base, EPWM_AQ_OUTPUT_B, EPWM_AQ_OUTPUT_LOW, EPWM_AQ_OUTPUT_ON_TIMEBASE_UP_CMPB);
        }
    }
    else if ((signalParams->tbCtrMode == EPWM_COUNTER_MODE_DOWN))
     3bc:	80 00 00 00 	nop

000003c0 <Cla1Task6>:
     3c0:	a0 00 00 00 	nop
     3c4:	a0 00 00 00 	nop
     3c8:	a0 00 00 00 	nop
     3cc:	a0 00 00 00 	nop
     3d0:	a0 00 00 00 	nop
     3d4:	80 00 00 0f 	movc2g gr0
    {
        //
        // Set PWMxA on Zero
        //
        EPWM_setActionQualifierAction(
     3d8:	94 07 80 06 	neqi gr30 0 <_cla_int_entry_group0_0>
     3dc:	80 00 00 85 	jc 3f0 <Cla1Task6+0x30>
     3e0:	80 00 00 00 	nop
     3e4:	80 00 00 00 	nop
     3e8:	95 e0 00 11 	movigh gr30 1 <_cla_int_entry_group0_0+0x1>
     3ec:	95 e0 00 05 	movigl gr30 0 <_cla_int_entry_group0_0>
     3f0:	99 e7 bf 40 	addi gr30 gr30 ffffffe8 <Flash0CtrlRegs+0xfef5ffe8>
     3f4:	ec 27 80 a2 	store32 gr2 gr30 5 <_core0_exp_start>
     3f8:	ec 37 80 82 	store32 gr3 gr30 4 <_cla_int_entry_group0_0+0x4>
            base, EPWM_AQ_OUTPUT_A, EPWM_AQ_OUTPUT_HIGH, EPWM_AQ_OUTPUT_ON_TIMEBASE_ZERO);

        //
        // Clear PWMxA on event A, down count
        //
        EPWM_setActionQualifierAction(
     3fc:	ec 47 80 62 	store32 gr4 gr30 3 <_cla_int_entry_group0_0+0x3>
     400:	84 20 82 06 	xor gr2 gr2 gr2
     404:	94 34 00 01 	movigh gr3 4000 <.L0 +0x11>
     408:	94 30 00 05 	movigl gr3 0 <_cla_int_entry_group0_0>
     40c:	94 40 02 01 	movigh gr4 20 <_cla_int_entry_group0_2>
     410:	14 43 01 45 ®░	movigl gr4 3014 <.L0 +0x17>
     414:	ec 27 80 42 ®Ė	store32 gr2 gr30 2 <_cla_int_entry_group0_0+0x2>
            base, EPWM_AQ_OUTPUT_A, EPWM_AQ_OUTPUT_LOW, EPWM_AQ_OUTPUT_ON_TIMEBASE_DOWN_CMPA);

        if (signalParams->invertSignalB == true)
     418:	ec 37 80 22 	store32 gr3 gr30 1 <_cla_int_entry_group0_0+0x1>
     41c:	a8 27 80 22 	load32 gr2 gr30 1 <_cla_int_entry_group0_0+0x1>
     420:	a8 37 80 42 	load32 gr3 gr30 2 <_cla_int_entry_group0_0+0x2>
     424:	84 20 83 8a 	fsmul gr2 gr2 gr3
     428:	ec 21 00 02 	store32 gr2 gr4 0 <_cla_int_entry_group0_0>
     42c:	a8 47 80 62 	load32 gr4 gr30 3 <_cla_int_entry_group0_0+0x3>
     430:	a8 37 80 82 	load32 gr3 gr30 4 <_cla_int_entry_group0_0+0x4>
     434:	a8 27 80 a2 	load32 gr2 gr30 5 <_core0_exp_start>
     438:	99 e7 80 c0 	addi gr30 gr30 18 <_core1_exp_start+0x1>
        {
            //
            // Clear PWMxB on Zero
            //
            EPWM_setActionQualifierAction(
     43c:	80 00 00 0b 	movg2c gr0
     440:	80 00 00 0a 	mstop
     444:	80 00 00 00 	nop
     448:	80 00 00 00 	nop

0000044c <Cla1Task7>:
     44c:	a0 00 00 00 	nop
     450:	a0 00 00 00 	nop
     454:	a0 00 00 00 	nop
     458:	a0 00 00 00 	nop
     45c:	a0 00 00 00 	nop
     460:	80 00 00 0f 	movc2g gr0
     464:	94 07 80 06 	neqi gr30 0 <_cla_int_entry_group0_0>
     468:	80 00 00 85 	jc 47c <.L0 +0x4>
     46c:	80 00 00 00 	nop
        else
        {
            //
            // Set PWMxB on Zero
            //
            EPWM_setActionQualifierAction(
     470:	80 00 00 00 	nop
     474:	95 e0 00 11 	movigh gr30 1 <_cla_int_entry_group0_0+0x1>
     478:	95 e0 00 05 	movigl gr30 0 <_cla_int_entry_group0_0>
     47c:	99 e7 bf 40 	addi gr30 gr30 ffffffe8 <Flash0CtrlRegs+0xfef5ffe8>
     480:	ec 27 80 a2 	store32 gr2 gr30 5 <_core0_exp_start>
     484:	ec 37 80 82 	store32 gr3 gr30 4 <_cla_int_entry_group0_0+0x4>
     488:	ec 47 80 62 	store32 gr4 gr30 3 <_cla_int_entry_group0_0+0x3>
     48c:	84 20 82 06 	xor gr2 gr2 gr2
     490:	94 34 00 01 	movigh gr3 4000 <.L0 +0x11>
     494:	94 30 00 05 	movigl gr3 0 <_cla_int_entry_group0_0>
     498:	94 40 02 01 	movigh gr4 20 <_cla_int_entry_group0_2>
     49c:	14 43 01 85 ®░	movigl gr4 3018 <.L0 +0x1b>
    else
    {
        //
        // Clear PWMxA on Zero
        //
        EPWM_setActionQualifierAction(
     4a0:	ec 27 80 42 ®Ė	store32 gr2 gr30 2 <_cla_int_entry_group0_0+0x2>
     4a4:	28 27 80 42 ®░	load32 gr2 gr30 2 <_cla_int_entry_group0_0+0x2>
     4a8:	ec 37 80 22 ®Ė	store32 gr3 gr30 1 <_cla_int_entry_group0_0+0x1>
     4ac:	a8 37 80 22 	load32 gr3 gr30 1 <_cla_int_entry_group0_0+0x1>
     4b0:	84 20 83 66 	fssub gr2 gr2 gr3
     4b4:	ec 21 00 02 	store32 gr2 gr4 0 <_cla_int_entry_group0_0>
     4b8:	a8 47 80 62 	load32 gr4 gr30 3 <_cla_int_entry_group0_0+0x3>
     4bc:	a8 37 80 82 	load32 gr3 gr30 4 <_cla_int_entry_group0_0+0x4>
     4c0:	a8 27 80 a2 	load32 gr2 gr30 5 <_core0_exp_start>
     4c4:	99 e7 80 c0 	addi gr30 gr30 18 <_core1_exp_start+0x1>
            base, EPWM_AQ_OUTPUT_A, EPWM_AQ_OUTPUT_LOW, EPWM_AQ_OUTPUT_ON_TIMEBASE_ZERO);

        //
        // Set PWMxA on event A, up count
        //
        EPWM_setActionQualifierAction(
     4c8:	80 00 00 0b 	movg2c gr0
     4cc:	80 00 00 0a 	mstop
     4d0:	80 00 00 00 	nop
     4d4:	80 00 00 00 	nop

000004d8 <Cla1Task8>:
     4d8:	80 00 00 17 	setcintm
     4dc:	94 07 80 06 	neqi gr30 0 <_cla_int_entry_group0_0>
     4e0:	80 00 00 85 	jc 4f4 <.L0 +0x4>
            base, EPWM_AQ_OUTPUT_A, EPWM_AQ_OUTPUT_HIGH, EPWM_AQ_OUTPUT_ON_TIMEBASE_UP_CMPA);

        //
        // Clear PWMxA on event A, down count
        //
        EPWM_setActionQualifierAction(
     4e4:	80 00 00 00 	nop
     4e8:	80 00 00 00 	nop
     4ec:	95 e0 00 11 	movigh gr30 1 <_cla_int_entry_group0_0+0x1>
     4f0:	95 e0 00 05 	movigl gr30 0 <_cla_int_entry_group0_0>
     4f4:	a0 00 00 00 	nop
     4f8:	a0 00 00 00 	nop
     4fc:	a0 00 00 00 	nop
            base, EPWM_AQ_OUTPUT_A, EPWM_AQ_OUTPUT_LOW, EPWM_AQ_OUTPUT_ON_TIMEBASE_DOWN_CMPA);

        if (signalParams->invertSignalB == true)
     500:	a0 00 00 00 	nop
     504:	a0 00 00 00 	nop
     508:	80 00 00 16 	clrcintm
     50c:	99 e7 bf 80 	addi gr30 gr30 fffffff0 <Flash0CtrlRegs+0xfef5fff0>
     510:	ed f7 80 62 	store32 gr31 gr30 3 <_cla_int_entry_group0_0+0x3>
     514:	80 00 01 0d 	call 538 <task8>
     518:	80 00 00 00 	nop
     51c:	80 00 00 00 	nop
     520:	80 00 00 00 	nop
        {
            //
            // Set PWMxB on Zero
            //
            EPWM_setActionQualifierAction(
     524:	a9 f7 80 62 	load32 gr31 gr30 3 <_cla_int_entry_group0_0+0x3>
     528:	99 e7 80 80 	addi gr30 gr30 10 <_cla_int_entry_group0_1>
     52c:	80 00 00 0a 	mstop
     530:	80 00 00 00 	nop
     534:	80 00 00 00 	nop

00000538 <task8>:
     538:	94 10 12 85 	movigl gr1 128 <.L0 +0x9>
     53c:	94 10 10 71 	movigh gr1 107 <cla_interrupt_defaulthandler+0x7>
     540:	94 20 00 05 	movigl gr2 0 <_cla_int_entry_group0_0>
     544:	94 20 00 01 	movigh gr2 0 <_cla_int_entry_group0_0>
     548:	ec 20 40 02 	store32 gr2 gr1 0 <_cla_int_entry_group0_0>
     54c:	80 00 80 0b 	movg2c gr2
     550:	94 c2 46 85 	movigl gr12 2468 <.L0 +0x3>
     554:	94 c1 35 71 	movigh gr12 1357 <.L0 +0xd>
        else
        {
            //
            // Clear PWMxB on Zero
            //
            EPWM_setActionQualifierAction(
     558:	94 d1 35 75 	movigl gr13 1357 <.L0 +0xd>
     55c:	94 d2 46 81 	movigh gr13 2468 <.L0 +0x3>
     560:	94 e3 04 05 	movigl gr14 3040 <.L0 +0x1d>
     564:	94 e1 02 01 	movigh gr14 1020 <.L0 +0x30>
     568:	94 f7 78 85 	movigl gr15 7788 <$line_table_start0+0x840>
     56c:	94 f5 56 61 	movigh gr15 5566 <.L0 >
     570:	80 40 00 0f 	movc2g gr4
     574:	94 40 10 05 	movigl gr4 100 <cla_interrupt_defaulthandler>
     578:	94 40 00 01 	movigh gr4 0 <_cla_int_entry_group0_0>
     57c:	95 44 01 15 	movigl gr20 4011 <.L0 +0x7>
     580:	95 40 00 01 	movigh gr20 0 <_cla_int_entry_group0_0>
     584:	80 05 00 0b 	movg2c gr20
     588:	84 c3 14 00 	add gr12 gr12 gr20
     58c:	84 d3 44 06 	xor gr13 gr13 gr4
     590:	84 e3 8c 00 	add gr14 gr14 gr12
     594:	84 f3 cd 06 	xor gr15 gr15 gr13
     598:	84 c3 0f 00 	add gr12 gr12 gr15
     59c:	80 00 00 00 	nop
     5a0:	80 50 00 0f 	movc2g gr5
     5a4:	94 50 10 15 	movigl gr5 101 <cla_interrupt_defaulthandler+0x1>
     5a8:	94 50 00 01 	movigh gr5 0 <_cla_int_entry_group0_0>
     5ac:	95 54 00 15 	movigl gr21 4001 <.L0 +0x12>
     5b0:	95 50 00 01 	movigh gr21 0 <_cla_int_entry_group0_0>
            //
            EPWM_setActionQualifierAction(
                base, EPWM_AQ_OUTPUT_B, EPWM_AQ_OUTPUT_LOW, EPWM_AQ_OUTPUT_ON_TIMEBASE_DOWN_CMPB);
        }
    }
}
     5b4:	80 05 40 0b 	movg2c gr21
     5b8:	84 c3 15 00 	add gr12 gr12 gr21
     5bc:	84 d3 45 06 	xor gr13 gr13 gr5
     5c0:	84 e3 8c 00 	add gr14 gr14 gr12
     5c4:	84 f3 cd 06 	xor gr15 gr15 gr13
     5c8:	84 c3 0f 00 	add gr12 gr12 gr15
     5cc:	80 00 00 00 	nop
     5d0:	80 60 00 0f 	movc2g gr6
     5d4:	94 60 10 25 	movigl gr6 102 <cla_interrupt_defaulthandler+0x2>
     5d8:	94 60 00 01 	movigh gr6 0 <_cla_int_entry_group0_0>
     5dc:	95 64 00 15 	movigl gr22 4001 <.L0 +0x12>
     5e0:	95 60 00 01 	movigh gr22 0 <_cla_int_entry_group0_0>
    SysCtl_enablePeripheral(SYSCTL_PERIPH_CLK_CMPSS3);
    SysCtl_enablePeripheral(SYSCTL_PERIPH_CLK_CMPSS4);
    SysCtl_enablePeripheral(SYSCTL_PERIPH_CLK_CMPSS5);
    SysCtl_enablePeripheral(SYSCTL_PERIPH_CLK_CMPSS6);
    SysCtl_enablePeripheral(SYSCTL_PERIPH_CLK_CMPSS7);
    SysCtl_enablePeripheral(SYSCTL_PERIPH_CLK_CMPSS8);
     5e4:	80 05 80 0b 	movg2c gr22
     5e8:	84 c3 16 00 	add gr12 gr12 gr22
    SysCtl_enablePeripheral(SYSCTL_PERIPH_CLK_CMPSS9);
     5ec:	84 d3 46 06 	xor gr13 gr13 gr6
     5f0:	84 e3 8c 00 	add gr14 gr14 gr12
     5f4:	84 f3 cd 06 	xor gr15 gr15 gr13
     5f8:	84 c3 0f 00 	add gr12 gr12 gr15
     5fc:	80 00 00 00 	nop
    SysCtl_enablePeripheral(SYSCTL_PERIPH_CLK_CMPSS10);
     600:	80 70 00 0f 	movc2g gr7
     604:	94 70 10 35 	movigl gr7 103 <cla_interrupt_defaulthandler+0x3>
     608:	94 70 00 01 	movigh gr7 0 <_cla_int_entry_group0_0>
     60c:	95 74 01 15 	movigl gr23 4011 <.L0 +0x7>
     610:	95 70 00 01 	movigh gr23 0 <_cla_int_entry_group0_0>
    SysCtl_enablePeripheral(SYSCTL_PERIPH_CLK_CMPSS11);
     614:	80 05 c0 0b 	movg2c gr23
     618:	84 c3 17 00 	add gr12 gr12 gr23
     61c:	84 d3 47 06 	xor gr13 gr13 gr7
     620:	84 e3 8c 00 	add gr14 gr14 gr12
     624:	84 f3 cd 06 	xor gr15 gr15 gr13

    SysCtl_enablePeripheral(SYSCTL_PERIPH_CLK_DACA);
     628:	84 c3 0f 00 	add gr12 gr12 gr15
     62c:	80 00 00 00 	nop
     630:	80 80 00 0f 	movc2g gr8
     634:	94 80 10 45 	movigl gr8 104 <cla_interrupt_defaulthandler+0x4>
     638:	94 80 00 01 	movigh gr8 0 <_cla_int_entry_group0_0>
    SysCtl_enablePeripheral(SYSCTL_PERIPH_CLK_DACC);
     63c:	95 84 00 15 	movigl gr24 4001 <.L0 +0x12>
     640:	95 80 00 01 	movigh gr24 0 <_cla_int_entry_group0_0>
     644:	80 06 00 0b 	movg2c gr24
     648:	84 c3 18 00 	add gr12 gr12 gr24
     64c:	84 d3 48 06 	xor gr13 gr13 gr8

    SysCtl_enablePeripheral(SYSCTL_PERIPH_CLK_CLB1);
     650:	84 e3 8c 00 	add gr14 gr14 gr12
     654:	84 f3 cd 06 	xor gr15 gr15 gr13
     658:	84 c3 0f 00 	add gr12 gr12 gr15
     65c:	80 00 00 00 	nop
     660:	80 90 00 0f 	movc2g gr9
    SysCtl_enablePeripheral(SYSCTL_PERIPH_CLK_CLB2);
     664:	94 90 10 55 	movigl gr9 105 <cla_interrupt_defaulthandler+0x5>
     668:	94 90 00 01 	movigh gr9 0 <_cla_int_entry_group0_0>
     66c:	95 94 00 15 	movigl gr25 4001 <.L0 +0x12>
     670:	95 90 00 01 	movigh gr25 0 <_cla_int_entry_group0_0>
     674:	80 06 40 0b 	movg2c gr25
    SysCtl_enablePeripheral(SYSCTL_PERIPH_CLK_CLB3);
     678:	84 c3 19 00 	add gr12 gr12 gr25
     67c:	84 d3 49 06 	xor gr13 gr13 gr9
     680:	84 e3 8c 00 	add gr14 gr14 gr12
     684:	84 f3 cd 06 	xor gr15 gr15 gr13
     688:	84 c3 0f 00 	add gr12 gr12 gr15
    SysCtl_enablePeripheral(SYSCTL_PERIPH_CLK_CLB4);
     68c:	80 00 00 00 	nop
     690:	80 a0 00 0f 	movc2g gr10
     694:	94 a0 10 65 	movigl gr10 106 <cla_interrupt_defaulthandler+0x6>
     698:	94 a0 00 01 	movigh gr10 0 <_cla_int_entry_group0_0>
     69c:	95 a4 01 15 	movigl gr26 4011 <.L0 +0x7>
    SysCtl_enablePeripheral(SYSCTL_PERIPH_CLK_CLB5);
     6a0:	95 a0 00 01 	movigh gr26 0 <_cla_int_entry_group0_0>
     6a4:	80 06 80 0b 	movg2c gr26
     6a8:	84 c3 1a 00 	add gr12 gr12 gr26
     6ac:	84 d3 4a 06 	xor gr13 gr13 gr10
     6b0:	84 e3 8c 00 	add gr14 gr14 gr12
    SysCtl_enablePeripheral(SYSCTL_PERIPH_CLK_CLB6);
     6b4:	84 f3 cd 06 	xor gr15 gr15 gr13
     6b8:	84 c3 0f 00 	add gr12 gr12 gr15
     6bc:	80 00 00 00 	nop
     6c0:	80 b0 00 0f 	movc2g gr11
     6c4:	94 b0 10 75 	movigl gr11 107 <cla_interrupt_defaulthandler+0x7>

    SysCtl_enablePeripheral(SYSCTL_PERIPH_CLK_FSITXA);
     6c8:	94 b0 00 01 	movigh gr11 0 <_cla_int_entry_group0_0>
     6cc:	95 b4 00 15 	movigl gr27 4001 <.L0 +0x12>
     6d0:	95 b0 00 01 	movigh gr27 0 <_cla_int_entry_group0_0>
     6d4:	80 06 c0 0b 	movg2c gr27
     6d8:	84 c3 1b 00 	add gr12 gr12 gr27
    SysCtl_enablePeripheral(SYSCTL_PERIPH_CLK_FSITXB);
     6dc:	84 d3 4b 06 	xor gr13 gr13 gr11
     6e0:	84 e3 8c 00 	add gr14 gr14 gr12
     6e4:	84 f3 cd 06 	xor gr15 gr15 gr13
     6e8:	84 c3 0f 00 	add gr12 gr12 gr15
     6ec:	80 00 00 00 	nop
    SysCtl_enablePeripheral(SYSCTL_PERIPH_CLK_FSIRXA);
     6f0:	80 40 00 0f 	movc2g gr4
     6f4:	94 40 10 85 	movigl gr4 108 <cla_interrupt_defaulthandler+0x8>
     6f8:	94 40 00 01 	movigh gr4 0 <_cla_int_entry_group0_0>
     6fc:	95 44 00 15 	movigl gr20 4001 <.L0 +0x12>
     700:	95 40 00 01 	movigh gr20 0 <_cla_int_entry_group0_0>
    SysCtl_enablePeripheral(SYSCTL_PERIPH_CLK_FSIRXB);
     704:	80 05 00 0b 	movg2c gr20
     708:	84 c3 14 00 	add gr12 gr12 gr20
     70c:	84 d3 44 06 	xor gr13 gr13 gr4
     710:	84 e3 8c 00 	add gr14 gr14 gr12
     714:	84 f3 cd 06 	xor gr15 gr15 gr13
    SysCtl_enablePeripheral(SYSCTL_PERIPH_CLK_FSIRXC);
     718:	84 c3 0f 00 	add gr12 gr12 gr15
     71c:	80 00 00 00 	nop
     720:	80 50 00 0f 	movc2g gr5
     724:	94 50 10 95 	movigl gr5 109 <cla_interrupt_defaulthandler+0x9>
     728:	94 50 00 01 	movigh gr5 0 <_cla_int_entry_group0_0>
    SysCtl_enablePeripheral(SYSCTL_PERIPH_CLK_FSIRXD);
     72c:	95 54 01 15 	movigl gr21 4011 <.L0 +0x7>
     730:	95 50 00 01 	movigh gr21 0 <_cla_int_entry_group0_0>
     734:	80 05 40 0b 	movg2c gr21
     738:	84 c3 15 00 	add gr12 gr12 gr21
     73c:	84 d3 45 06 	xor gr13 gr13 gr5

    SysCtl_enablePeripheral(SYSCTL_PERIPH_CLK_LINA);
     740:	84 e3 8c 00 	add gr14 gr14 gr12
     744:	84 f3 cd 06 	xor gr15 gr15 gr13
     748:	84 c3 0f 00 	add gr12 gr12 gr15
     74c:	80 00 00 00 	nop
     750:	80 60 00 0f 	movc2g gr6
    SysCtl_enablePeripheral(SYSCTL_PERIPH_CLK_LINB);
     754:	94 60 10 a5 	movigl gr6 10a <cla_interrupt_defaulthandler+0xa>
     758:	94 60 00 01 	movigh gr6 0 <_cla_int_entry_group0_0>
     75c:	95 64 00 15 	movigl gr22 4001 <.L0 +0x12>
     760:	95 60 00 01 	movigh gr22 0 <_cla_int_entry_group0_0>
     764:	80 05 80 0b 	movg2c gr22

    SysCtl_enablePeripheral(SYSCTL_PERIPH_CLK_DCC0);
     768:	84 c3 16 00 	add gr12 gr12 gr22
     76c:	84 d3 46 06 	xor gr13 gr13 gr6
     770:	84 e3 8c 00 	add gr14 gr14 gr12
     774:	84 f3 cd 06 	xor gr15 gr15 gr13
     778:	84 c3 0f 00 	add gr12 gr12 gr15
    SysCtl_enablePeripheral(SYSCTL_PERIPH_CLK_DCC1);
     77c:	80 00 00 00 	nop
     780:	80 70 00 0f 	movc2g gr7
     784:	94 70 10 b5 	movigl gr7 10b <cla_interrupt_defaulthandler+0xb>
     788:	94 70 00 01 	movigh gr7 0 <_cla_int_entry_group0_0>
     78c:	95 74 00 15 	movigl gr23 4001 <.L0 +0x12>
    SysCtl_enablePeripheral(SYSCTL_PERIPH_CLK_DCC2);
     790:	95 70 00 01 	movigh gr23 0 <_cla_int_entry_group0_0>
     794:	80 05 c0 0b 	movg2c gr23
     798:	84 c3 17 00 	add gr12 gr12 gr23
     79c:	84 d3 47 06 	xor gr13 gr13 gr7
     7a0:	84 e3 8c 00 	add gr14 gr14 gr12

    SysCtl_enablePeripheral(SYSCTL_PERIPH_CLK_ECAT);
     7a4:	84 f3 cd 06 	xor gr15 gr15 gr13
     7a8:	84 c3 0f 00 	add gr12 gr12 gr15
     7ac:	80 00 00 00 	nop
     7b0:	80 80 00 0f 	movc2g gr8
     7b4:	94 80 10 c5 	movigl gr8 10c <Cla1Task1>

    SysCtl_enablePeripheral(SYSCTL_PERIPH_CLK_HRCAL0);
     7b8:	94 80 00 01 	movigh gr8 0 <_cla_int_entry_group0_0>
     7bc:	95 84 01 15 	movigl gr24 4011 <.L0 +0x7>
     7c0:	95 80 00 01 	movigh gr24 0 <_cla_int_entry_group0_0>
     7c4:	80 06 00 0b 	movg2c gr24
     7c8:	84 c3 18 00 	add gr12 gr12 gr24
    SysCtl_enablePeripheral(SYSCTL_PERIPH_CLK_HRCAL1);
     7cc:	84 d3 48 06 	xor gr13 gr13 gr8
     7d0:	84 e3 8c 00 	add gr14 gr14 gr12
     7d4:	84 f3 cd 06 	xor gr15 gr15 gr13
     7d8:	84 c3 0f 00 	add gr12 gr12 gr15
     7dc:	80 00 00 00 	nop
    SysCtl_enablePeripheral(SYSCTL_PERIPH_CLK_HRCAL2);
     7e0:	80 90 00 0f 	movc2g gr9
     7e4:	94 90 10 d5 	movigl gr9 10d <Cla1Task1+0x1>
     7e8:	94 90 00 01 	movigh gr9 0 <_cla_int_entry_group0_0>
     7ec:	95 94 00 15 	movigl gr25 4001 <.L0 +0x12>
     7f0:	95 90 00 01 	movigh gr25 0 <_cla_int_entry_group0_0>

    SysCtl_enablePeripheral(SYSCTL_PERIPH_CLK_AESA);
     7f4:	80 06 40 0b 	movg2c gr25
     7f8:	84 c3 19 00 	add gr12 gr12 gr25
     7fc:	84 d3 49 06 	xor gr13 gr13 gr9
     800:	84 e3 8c 00 	add gr14 gr14 gr12
     804:	84 f3 cd 06 	xor gr15 gr15 gr13

    SysCtl_enablePeripheral(SYSCTL_PERIPH_CLK_EPG1);
     808:	84 c3 0f 00 	add gr12 gr12 gr15
     80c:	80 00 00 00 	nop
     810:	80 a0 00 0f 	movc2g gr10
     814:	94 a0 10 e5 	movigl gr10 10e <Cla1Task1+0x2>
     818:	94 a0 00 01 	movigh gr10 0 <_cla_int_entry_group0_0>

    SysCtl_enablePeripheral(SYSCTL_PERIPH_CLK_ADCCHECKER1);
     81c:	95 a4 00 15 	movigl gr26 4001 <.L0 +0x12>
     820:	95 a0 00 01 	movigh gr26 0 <_cla_int_entry_group0_0>
     824:	80 06 80 0b 	movg2c gr26
     828:	84 c3 1a 00 	add gr12 gr12 gr26
     82c:	84 d3 4a 06 	xor gr13 gr13 gr10
    SysCtl_enablePeripheral(SYSCTL_PERIPH_CLK_ADCCHECKER2);
     830:	84 e3 8c 00 	add gr14 gr14 gr12
     834:	84 f3 cd 06 	xor gr15 gr15 gr13
     838:	84 c3 0f 00 	add gr12 gr12 gr15
     83c:	80 00 00 00 	nop
     840:	80 b0 00 0f 	movc2g gr11
    SysCtl_enablePeripheral(SYSCTL_PERIPH_CLK_ADCCHECKER3);
     844:	94 b0 10 f5 	movigl gr11 10f <Cla1Task1+0x3>
     848:	94 b0 00 01 	movigh gr11 0 <_cla_int_entry_group0_0>
     84c:	95 b4 01 15 	movigl gr27 4011 <.L0 +0x7>
     850:	95 b0 00 01 	movigh gr27 0 <_cla_int_entry_group0_0>
     854:	80 06 c0 0b 	movg2c gr27
    SysCtl_enablePeripheral(SYSCTL_PERIPH_CLK_ADCCHECKER4);
     858:	84 c3 1b 00 	add gr12 gr12 gr27
     85c:	84 d3 4b 06 	xor gr13 gr13 gr11
     860:	84 e3 8c 00 	add gr14 gr14 gr12
     864:	84 f3 cd 06 	xor gr15 gr15 gr13
     868:	84 c3 0f 00 	add gr12 gr12 gr15
    SysCtl_enablePeripheral(SYSCTL_PERIPH_CLK_ADCCHECKER5);
     86c:	80 00 00 00 	nop
     870:	80 40 00 0f 	movc2g gr4
     874:	94 40 11 05 	movigl gr4 110 <.L0 >
     878:	94 40 00 01 	movigh gr4 0 <_cla_int_entry_group0_0>
     87c:	95 44 00 15 	movigl gr20 4001 <.L0 +0x12>
    SysCtl_enablePeripheral(SYSCTL_PERIPH_CLK_ADCCHECKER6);
     880:	95 40 00 01 	movigh gr20 0 <_cla_int_entry_group0_0>
     884:	80 05 00 0b 	movg2c gr20
     888:	84 c3 14 00 	add gr12 gr12 gr20
     88c:	84 d3 44 06 	xor gr13 gr13 gr4
     890:	84 e3 8c 00 	add gr14 gr14 gr12
    SysCtl_enablePeripheral(SYSCTL_PERIPH_CLK_ADCCHECKER7);
     894:	84 f3 cd 06 	xor gr15 gr15 gr13
     898:	84 c3 0f 00 	add gr12 gr12 gr15
     89c:	80 00 00 00 	nop
     8a0:	80 50 00 0f 	movc2g gr5
     8a4:	94 50 11 15 	movigl gr5 111 <.L0 +0x1>
    SysCtl_enablePeripheral(SYSCTL_PERIPH_CLK_ADCCHECKER8);
     8a8:	94 50 00 01 	movigh gr5 0 <_cla_int_entry_group0_0>
     8ac:	95 54 00 15 	movigl gr21 4001 <.L0 +0x12>
     8b0:	95 50 00 01 	movigh gr21 0 <_cla_int_entry_group0_0>
     8b4:	80 05 40 0b 	movg2c gr21
     8b8:	84 c3 15 00 	add gr12 gr12 gr21
    SysCtl_enablePeripheral(SYSCTL_PERIPH_CLK_ADCSEAGGRCPU1);
     8bc:	84 d3 45 06 	xor gr13 gr13 gr5
     8c0:	84 e3 8c 00 	add gr14 gr14 gr12
     8c4:	84 f3 cd 06 	xor gr15 gr15 gr13
     8c8:	84 c3 0f 00 	add gr12 gr12 gr15
     8cc:	80 00 00 00 	nop
    SysCtl_enablePeripheral(SYSCTL_PERIPH_CLK_ADCSEAGGRCPU2);
     8d0:	80 60 00 0f 	movc2g gr6
     8d4:	94 60 11 25 	movigl gr6 112 <.L0 +0x2>
     8d8:	94 60 00 01 	movigh gr6 0 <_cla_int_entry_group0_0>
     8dc:	95 64 01 15 	movigl gr22 4011 <.L0 +0x7>
     8e0:	95 60 00 01 	movigh gr22 0 <_cla_int_entry_group0_0>
}
     8e4:	80 05 80 0b 	movg2c gr22
     8e8:	84 c3 16 00 	add gr12 gr12 gr22
     8ec:	84 d3 46 06 	xor gr13 gr13 gr6
     8f0:	84 e3 8c 00 	add gr14 gr14 gr12
     8f4:	84 f3 cd 06 	xor gr15 gr15 gr13
     8f8:	84 c3 0f 00 	add gr12 gr12 gr15
     8fc:	80 00 00 00 	nop
     900:	80 70 00 0f 	movc2g gr7
     904:	94 70 11 35 	movigl gr7 113 <.L0 +0x3>
     908:	94 70 00 01 	movigh gr7 0 <_cla_int_entry_group0_0>
     90c:	95 74 00 15 	movigl gr23 4001 <.L0 +0x12>
     910:	95 70 00 01 	movigh gr23 0 <_cla_int_entry_group0_0>
     914:	80 05 c0 0b 	movg2c gr23
     918:	84 c3 17 00 	add gr12 gr12 gr23
     91c:	84 d3 47 06 	xor gr13 gr13 gr7
     920:	84 e3 8c 00 	add gr14 gr14 gr12
     924:	84 f3 cd 06 	xor gr15 gr15 gr13
     928:	84 c3 0f 00 	add gr12 gr12 gr15
     92c:	80 00 00 00 	nop
     930:	80 80 00 0f 	movc2g gr8
     934:	94 80 11 45 	movigl gr8 114 <.L0 +0x4>
     938:	94 80 00 01 	movigh gr8 0 <_cla_int_entry_group0_0>
     93c:	95 84 00 15 	movigl gr24 4001 <.L0 +0x12>
     940:	95 80 00 01 	movigh gr24 0 <_cla_int_entry_group0_0>
     944:	80 06 00 0b 	movg2c gr24
     948:	84 c3 18 00 	add gr12 gr12 gr24
     94c:	84 d3 48 06 	xor gr13 gr13 gr8
     950:	84 e3 8c 00 	add gr14 gr14 gr12
     954:	84 f3 cd 06 	xor gr15 gr15 gr13
     958:	84 c3 0f 00 	add gr12 gr12 gr15
     95c:	80 00 00 00 	nop
     960:	80 90 00 0f 	movc2g gr9
     964:	94 90 11 55 	movigl gr9 115 <.L0 +0x5>
     968:	94 90 00 01 	movigh gr9 0 <_cla_int_entry_group0_0>
     96c:	95 94 01 15 	movigl gr25 4011 <.L0 +0x7>
     970:	95 90 00 01 	movigh gr25 0 <_cla_int_entry_group0_0>
     974:	80 06 40 0b 	movg2c gr25
     978:	84 c3 19 00 	add gr12 gr12 gr25
     97c:	84 d3 49 06 	xor gr13 gr13 gr9
     980:	84 e3 8c 00 	add gr14 gr14 gr12
     984:	84 f3 cd 06 	xor gr15 gr15 gr13
     988:	84 c3 0f 00 	add gr12 gr12 gr15
     98c:	80 00 00 00 	nop
     990:	80 a0 00 0f 	movc2g gr10
     994:	94 a0 11 65 	movigl gr10 116 <.L0 +0x6>
     998:	94 a0 00 01 	movigh gr10 0 <_cla_int_entry_group0_0>
     99c:	95 a4 00 15 	movigl gr26 4001 <.L0 +0x12>
     9a0:	95 a0 00 01 	movigh gr26 0 <_cla_int_entry_group0_0>
     9a4:	80 06 80 0b 	movg2c gr26
     9a8:	84 c3 1a 00 	add gr12 gr12 gr26
     9ac:	84 d3 4a 06 	xor gr13 gr13 gr10
     9b0:	84 e3 8c 00 	add gr14 gr14 gr12
     9b4:	84 f3 cd 06 	xor gr15 gr15 gr13
     9b8:	84 c3 0f 00 	add gr12 gr12 gr15
     9bc:	80 00 00 00 	nop
     9c0:	80 b0 00 0f 	movc2g gr11
     9c4:	94 b0 11 75 	movigl gr11 117 <.L0 +0x7>
     9c8:	94 b0 00 01 	movigh gr11 0 <_cla_int_entry_group0_0>
     9cc:	95 b4 00 15 	movigl gr27 4001 <.L0 +0x12>
     9d0:	95 b0 00 01 	movigh gr27 0 <_cla_int_entry_group0_0>
     9d4:	80 06 c0 0b 	movg2c gr27
     9d8:	84 c3 1b 00 	add gr12 gr12 gr27
     9dc:	84 d3 4b 06 	xor gr13 gr13 gr11
     9e0:	84 e3 8c 00 	add gr14 gr14 gr12
     9e4:	84 f3 cd 06 	xor gr15 gr15 gr13
     9e8:	84 c3 0f 00 	add gr12 gr12 gr15
     9ec:	80 00 00 00 	nop
     9f0:	80 40 00 0f 	movc2g gr4
     9f4:	94 40 11 85 	movigl gr4 118 <.L0 +0x8>
     9f8:	94 40 00 01 	movigh gr4 0 <_cla_int_entry_group0_0>
     9fc:	95 44 01 15 	movigl gr20 4011 <.L0 +0x7>
     a00:	95 40 00 01 	movigh gr20 0 <_cla_int_entry_group0_0>
     a04:	80 05 00 0b 	movg2c gr20
     a08:	84 c3 14 00 	add gr12 gr12 gr20
     a0c:	84 d3 44 06 	xor gr13 gr13 gr4
     a10:	84 e3 8c 00 	add gr14 gr14 gr12
     a14:	84 f3 cd 06 	xor gr15 gr15 gr13
     a18:	84 c3 0f 00 	add gr12 gr12 gr15
     a1c:	80 00 00 00 	nop
     a20:	80 50 00 0f 	movc2g gr5
     a24:	94 50 11 95 	movigl gr5 119 <.L0 +0x9>
     a28:	94 50 00 01 	movigh gr5 0 <_cla_int_entry_group0_0>
     a2c:	95 54 00 15 	movigl gr21 4001 <.L0 +0x12>
     a30:	95 50 00 01 	movigh gr21 0 <_cla_int_entry_group0_0>
     a34:	80 05 40 0b 	movg2c gr21
     a38:	84 c3 15 00 	add gr12 gr12 gr21
     a3c:	84 d3 45 06 	xor gr13 gr13 gr5
     a40:	84 e3 8c 00 	add gr14 gr14 gr12
     a44:	84 f3 cd 06 	xor gr15 gr15 gr13
     a48:	84 c3 0f 00 	add gr12 gr12 gr15
     a4c:	80 00 00 00 	nop
     a50:	80 60 00 0f 	movc2g gr6
     a54:	94 60 11 a5 	movigl gr6 11a <.L0 +0xa>
     a58:	94 60 00 01 	movigh gr6 0 <_cla_int_entry_group0_0>
     a5c:	95 64 00 15 	movigl gr22 4001 <.L0 +0x12>
     a60:	95 60 00 01 	movigh gr22 0 <_cla_int_entry_group0_0>
     a64:	80 05 80 0b 	movg2c gr22
     a68:	84 c3 16 00 	add gr12 gr12 gr22
     a6c:	84 d3 46 06 	xor gr13 gr13 gr6
     a70:	84 e3 8c 00 	add gr14 gr14 gr12
     a74:	84 f3 cd 06 	xor gr15 gr15 gr13
     a78:	84 c3 0f 00 	add gr12 gr12 gr15
     a7c:	80 00 00 00 	nop
     a80:	80 70 00 0f 	movc2g gr7
     a84:	94 70 11 b5 	movigl gr7 11b <.L0 +0xb>
     a88:	94 70 00 01 	movigh gr7 0 <_cla_int_entry_group0_0>
     a8c:	95 74 01 15 	movigl gr23 4011 <.L0 +0x7>
     a90:	95 70 00 01 	movigh gr23 0 <_cla_int_entry_group0_0>
     a94:	80 05 c0 0b 	movg2c gr23
     a98:	84 c3 17 00 	add gr12 gr12 gr23
     a9c:	84 d3 47 06 	xor gr13 gr13 gr7
     aa0:	84 e3 8c 00 	add gr14 gr14 gr12
     aa4:	84 f3 cd 06 	xor gr15 gr15 gr13
     aa8:	84 c3 0f 00 	add gr12 gr12 gr15
     aac:	80 00 00 00 	nop
     ab0:	80 80 00 0f 	movc2g gr8
     ab4:	94 80 11 c5 	movigl gr8 11c <.L0 +0xc>
     ab8:	94 80 00 01 	movigh gr8 0 <_cla_int_entry_group0_0>
     abc:	95 84 00 15 	movigl gr24 4001 <.L0 +0x12>
     ac0:	95 80 00 01 	movigh gr24 0 <_cla_int_entry_group0_0>
     ac4:	80 06 00 0b 	movg2c gr24
     ac8:	84 c3 18 00 	add gr12 gr12 gr24
     acc:	84 d3 48 06 	xor gr13 gr13 gr8
     ad0:	84 e3 8c 00 	add gr14 gr14 gr12
     ad4:	84 f3 cd 06 	xor gr15 gr15 gr13
     ad8:	84 c3 0f 00 	add gr12 gr12 gr15
     adc:	80 00 00 00 	nop
     ae0:	80 90 00 0f 	movc2g gr9
     ae4:	94 90 11 d5 	movigl gr9 11d <.L0 +0xd>
     ae8:	94 90 00 01 	movigh gr9 0 <_cla_int_entry_group0_0>
     aec:	95 94 00 15 	movigl gr25 4001 <.L0 +0x12>
     af0:	95 90 00 01 	movigh gr25 0 <_cla_int_entry_group0_0>
     af4:	80 06 40 0b 	movg2c gr25
     af8:	84 c3 19 00 	add gr12 gr12 gr25
     afc:	84 d3 49 06 	xor gr13 gr13 gr9
     b00:	84 e3 8c 00 	add gr14 gr14 gr12
     b04:	84 f3 cd 06 	xor gr15 gr15 gr13
     b08:	84 c3 0f 00 	add gr12 gr12 gr15
     b0c:	80 00 00 00 	nop
     b10:	80 a0 00 0f 	movc2g gr10
     b14:	94 a0 11 e5 	movigl gr10 11e <.L0 +0xe>
     b18:	94 a0 00 01 	movigh gr10 0 <_cla_int_entry_group0_0>
     b1c:	95 a4 01 15 	movigl gr26 4011 <.L0 +0x7>
     b20:	95 a0 00 01 	movigh gr26 0 <_cla_int_entry_group0_0>
     b24:	80 06 80 0b 	movg2c gr26
     b28:	84 c3 1a 00 	add gr12 gr12 gr26
     b2c:	84 d3 4a 06 	xor gr13 gr13 gr10
     b30:	84 e3 8c 00 	add gr14 gr14 gr12
     b34:	84 f3 cd 06 	xor gr15 gr15 gr13
     b38:	84 c3 0f 00 	add gr12 gr12 gr15
     b3c:	80 00 00 00 	nop
     b40:	80 b0 00 0f 	movc2g gr11
     b44:	94 b0 11 f5 	movigl gr11 11f <.L0 >
     b48:	94 b0 00 01 	movigh gr11 0 <_cla_int_entry_group0_0>
     b4c:	95 b4 00 15 	movigl gr27 4001 <.L0 +0x12>
     b50:	95 b0 00 01 	movigh gr27 0 <_cla_int_entry_group0_0>
     b54:	80 06 c0 0b 	movg2c gr27
     b58:	84 c3 1b 00 	add gr12 gr12 gr27
     b5c:	84 d3 4b 06 	xor gr13 gr13 gr11
     b60:	84 e3 8c 00 	add gr14 gr14 gr12
     b64:	84 f3 cd 06 	xor gr15 gr15 gr13
     b68:	84 c3 0f 00 	add gr12 gr12 gr15
     b6c:	80 00 00 00 	nop
     b70:	80 40 00 0f 	movc2g gr4
     b74:	94 40 12 05 	movigl gr4 120 <.L0 +0x1>
     b78:	94 40 00 01 	movigh gr4 0 <_cla_int_entry_group0_0>
     b7c:	95 44 00 15 	movigl gr20 4001 <.L0 +0x12>
     b80:	95 40 00 01 	movigh gr20 0 <_cla_int_entry_group0_0>
     b84:	80 05 00 0b 	movg2c gr20
     b88:	84 c3 14 00 	add gr12 gr12 gr20
     b8c:	84 d3 44 06 	xor gr13 gr13 gr4
     b90:	84 e3 8c 00 	add gr14 gr14 gr12
     b94:	84 f3 cd 06 	xor gr15 gr15 gr13
     b98:	84 c3 0f 00 	add gr12 gr12 gr15
     b9c:	80 00 00 00 	nop
     ba0:	80 50 00 0f 	movc2g gr5
     ba4:	94 50 12 15 	movigl gr5 121 <.L0 +0x2>
     ba8:	94 50 00 01 	movigh gr5 0 <_cla_int_entry_group0_0>
     bac:	95 54 01 15 	movigl gr21 4011 <.L0 +0x7>
     bb0:	95 50 00 01 	movigh gr21 0 <_cla_int_entry_group0_0>
     bb4:	80 05 40 0b 	movg2c gr21
     bb8:	84 c3 15 00 	add gr12 gr12 gr21
     bbc:	84 d3 45 06 	xor gr13 gr13 gr5
     bc0:	84 e3 8c 00 	add gr14 gr14 gr12
     bc4:	84 f3 cd 06 	xor gr15 gr15 gr13
     bc8:	84 c3 0f 00 	add gr12 gr12 gr15
     bcc:	80 00 00 00 	nop
     bd0:	80 60 00 0f 	movc2g gr6
     bd4:	94 60 12 25 	movigl gr6 122 <.L0 +0x3>
     bd8:	94 60 00 01 	movigh gr6 0 <_cla_int_entry_group0_0>
     bdc:	95 64 00 15 	movigl gr22 4001 <.L0 +0x12>
     be0:	95 60 00 01 	movigh gr22 0 <_cla_int_entry_group0_0>
     be4:	80 05 80 0b 	movg2c gr22
     be8:	84 c3 16 00 	add gr12 gr12 gr22
     bec:	84 d3 46 06 	xor gr13 gr13 gr6
     bf0:	84 e3 8c 00 	add gr14 gr14 gr12
     bf4:	84 f3 cd 06 	xor gr15 gr15 gr13
     bf8:	84 c3 0f 00 	add gr12 gr12 gr15
     bfc:	80 00 00 00 	nop
     c00:	80 70 00 0f 	movc2g gr7
     c04:	94 70 12 35 	movigl gr7 123 <.L0 +0x4>
     c08:	94 70 00 01 	movigh gr7 0 <_cla_int_entry_group0_0>
     c0c:	95 74 00 15 	movigl gr23 4001 <.L0 +0x12>
     c10:	95 70 00 01 	movigh gr23 0 <_cla_int_entry_group0_0>
     c14:	80 05 c0 0b 	movg2c gr23
     c18:	84 c3 17 00 	add gr12 gr12 gr23
     c1c:	84 d3 47 06 	xor gr13 gr13 gr7
     c20:	84 e3 8c 00 	add gr14 gr14 gr12
     c24:	84 f3 cd 06 	xor gr15 gr15 gr13
     c28:	84 c3 0f 00 	add gr12 gr12 gr15
     c2c:	80 00 00 00 	nop
     c30:	80 80 00 0f 	movc2g gr8
     c34:	94 80 12 45 	movigl gr8 124 <.L0 +0x5>
     c38:	94 80 00 01 	movigh gr8 0 <_cla_int_entry_group0_0>
     c3c:	95 84 01 15 	movigl gr24 4011 <.L0 +0x7>
     c40:	95 80 00 01 	movigh gr24 0 <_cla_int_entry_group0_0>
     c44:	80 06 00 0b 	movg2c gr24
     c48:	84 c3 18 00 	add gr12 gr12 gr24
     c4c:	84 d3 48 06 	xor gr13 gr13 gr8
     c50:	84 e3 8c 00 	add gr14 gr14 gr12
     c54:	84 f3 cd 06 	xor gr15 gr15 gr13
     c58:	84 c3 0f 00 	add gr12 gr12 gr15
     c5c:	80 00 00 00 	nop
     c60:	80 90 00 0f 	movc2g gr9
     c64:	94 90 12 55 	movigl gr9 125 <.L0 +0x6>
     c68:	94 90 00 01 	movigh gr9 0 <_cla_int_entry_group0_0>
     c6c:	95 94 00 15 	movigl gr25 4001 <.L0 +0x12>
     c70:	95 90 00 01 	movigh gr25 0 <_cla_int_entry_group0_0>
     c74:	80 06 40 0b 	movg2c gr25
     c78:	84 c3 19 00 	add gr12 gr12 gr25
     c7c:	84 d3 49 06 	xor gr13 gr13 gr9
     c80:	84 e3 8c 00 	add gr14 gr14 gr12
     c84:	84 f3 cd 06 	xor gr15 gr15 gr13
     c88:	84 c3 0f 00 	add gr12 gr12 gr15
     c8c:	80 00 00 00 	nop
     c90:	80 a0 00 0f 	movc2g gr10
     c94:	94 a0 12 65 	movigl gr10 126 <.L0 +0x7>
     c98:	94 a0 00 01 	movigh gr10 0 <_cla_int_entry_group0_0>
     c9c:	95 a4 00 15 	movigl gr26 4001 <.L0 +0x12>
     ca0:	95 a0 00 01 	movigh gr26 0 <_cla_int_entry_group0_0>
     ca4:	80 06 80 0b 	movg2c gr26
     ca8:	84 c3 1a 00 	add gr12 gr12 gr26
     cac:	84 d3 4a 06 	xor gr13 gr13 gr10
     cb0:	84 e3 8c 00 	add gr14 gr14 gr12
     cb4:	84 f3 cd 06 	xor gr15 gr15 gr13
     cb8:	84 c3 0f 00 	add gr12 gr12 gr15
     cbc:	80 00 00 00 	nop
     cc0:	80 b0 00 0f 	movc2g gr11
     cc4:	94 b0 12 75 	movigl gr11 127 <.L0 +0x8>
     cc8:	94 b0 00 01 	movigh gr11 0 <_cla_int_entry_group0_0>
     ccc:	95 b4 01 15 	movigl gr27 4011 <.L0 +0x7>
     cd0:	95 b0 00 01 	movigh gr27 0 <_cla_int_entry_group0_0>
     cd4:	80 06 c0 0b 	movg2c gr27
     cd8:	84 c3 1b 00 	add gr12 gr12 gr27
     cdc:	84 d3 4b 06 	xor gr13 gr13 gr11
     ce0:	84 e3 8c 00 	add gr14 gr14 gr12
     ce4:	84 f3 cd 06 	xor gr15 gr15 gr13
     ce8:	84 c3 0f 00 	add gr12 gr12 gr15
     cec:	80 00 00 00 	nop
     cf0:	80 40 00 0f 	movc2g gr4
     cf4:	94 40 12 85 	movigl gr4 128 <.L0 +0x9>
     cf8:	94 40 00 01 	movigh gr4 0 <_cla_int_entry_group0_0>
     cfc:	95 44 00 15 	movigl gr20 4001 <.L0 +0x12>
     d00:	95 40 00 01 	movigh gr20 0 <_cla_int_entry_group0_0>
     d04:	80 05 00 0b 	movg2c gr20
     d08:	84 c3 14 00 	add gr12 gr12 gr20
     d0c:	84 d3 44 06 	xor gr13 gr13 gr4
     d10:	84 e3 8c 00 	add gr14 gr14 gr12
     d14:	84 f3 cd 06 	xor gr15 gr15 gr13
     d18:	84 c3 0f 00 	add gr12 gr12 gr15
     d1c:	80 00 00 00 	nop
     d20:	80 50 00 0f 	movc2g gr5
     d24:	94 50 12 95 	movigl gr5 129 <.L0 +0xa>
     d28:	94 50 00 01 	movigh gr5 0 <_cla_int_entry_group0_0>
     d2c:	95 54 00 15 	movigl gr21 4001 <.L0 +0x12>
     d30:	95 50 00 01 	movigh gr21 0 <_cla_int_entry_group0_0>
     d34:	80 05 40 0b 	movg2c gr21
     d38:	84 c3 15 00 	add gr12 gr12 gr21
     d3c:	84 d3 45 06 	xor gr13 gr13 gr5
     d40:	84 e3 8c 00 	add gr14 gr14 gr12
     d44:	84 f3 cd 06 	xor gr15 gr15 gr13
     d48:	84 c3 0f 00 	add gr12 gr12 gr15
     d4c:	80 00 00 00 	nop
     d50:	80 60 00 0f 	movc2g gr6
     d54:	94 60 12 a5 	movigl gr6 12a <.L0 +0xb>
     d58:	94 60 00 01 	movigh gr6 0 <_cla_int_entry_group0_0>
     d5c:	95 64 01 15 	movigl gr22 4011 <.L0 +0x7>
     d60:	95 60 00 01 	movigh gr22 0 <_cla_int_entry_group0_0>
     d64:	80 05 80 0b 	movg2c gr22
     d68:	84 c3 16 00 	add gr12 gr12 gr22
     d6c:	84 d3 46 06 	xor gr13 gr13 gr6
     d70:	84 e3 8c 00 	add gr14 gr14 gr12
     d74:	84 f3 cd 06 	xor gr15 gr15 gr13
     d78:	84 c3 0f 00 	add gr12 gr12 gr15
     d7c:	80 00 00 00 	nop
     d80:	80 70 00 0f 	movc2g gr7
     d84:	94 70 12 b5 	movigl gr7 12b <.L0 +0xc>
     d88:	94 70 00 01 	movigh gr7 0 <_cla_int_entry_group0_0>
     d8c:	95 74 00 15 	movigl gr23 4001 <.L0 +0x12>
     d90:	95 70 00 01 	movigh gr23 0 <_cla_int_entry_group0_0>
     d94:	80 05 c0 0b 	movg2c gr23
     d98:	84 c3 17 00 	add gr12 gr12 gr23
     d9c:	84 d3 47 06 	xor gr13 gr13 gr7
     da0:	84 e3 8c 00 	add gr14 gr14 gr12
     da4:	84 f3 cd 06 	xor gr15 gr15 gr13
     da8:	84 c3 0f 00 	add gr12 gr12 gr15
     dac:	80 00 00 00 	nop
     db0:	80 80 00 0f 	movc2g gr8
     db4:	94 80 12 c5 	movigl gr8 12c <.L0 +0xd>
     db8:	94 80 00 01 	movigh gr8 0 <_cla_int_entry_group0_0>
     dbc:	95 84 00 15 	movigl gr24 4001 <.L0 +0x12>
     dc0:	95 80 00 01 	movigh gr24 0 <_cla_int_entry_group0_0>
     dc4:	80 06 00 0b 	movg2c gr24
     dc8:	84 c3 18 00 	add gr12 gr12 gr24
     dcc:	84 d3 48 06 	xor gr13 gr13 gr8
     dd0:	84 e3 8c 00 	add gr14 gr14 gr12
     dd4:	84 f3 cd 06 	xor gr15 gr15 gr13
     dd8:	84 c3 0f 00 	add gr12 gr12 gr15
     ddc:	80 00 00 00 	nop
     de0:	80 90 00 0f 	movc2g gr9
     de4:	94 90 12 d5 	movigl gr9 12d <.L0 +0xe>
     de8:	94 90 00 01 	movigh gr9 0 <_cla_int_entry_group0_0>
     dec:	95 94 01 15 	movigl gr25 4011 <.L0 +0x7>
     df0:	95 90 00 01 	movigh gr25 0 <_cla_int_entry_group0_0>
     df4:	80 06 40 0b 	movg2c gr25
     df8:	84 c3 19 00 	add gr12 gr12 gr25
     dfc:	84 d3 49 06 	xor gr13 gr13 gr9
     e00:	84 e3 8c 00 	add gr14 gr14 gr12
     e04:	84 f3 cd 06 	xor gr15 gr15 gr13
     e08:	84 c3 0f 00 	add gr12 gr12 gr15
     e0c:	80 00 00 00 	nop
     e10:	80 a0 00 0f 	movc2g gr10
     e14:	94 a0 12 e5 	movigl gr10 12e <.L0 +0xf>
     e18:	94 a0 00 01 	movigh gr10 0 <_cla_int_entry_group0_0>
     e1c:	95 a4 00 15 	movigl gr26 4001 <.L0 +0x12>
     e20:	95 a0 00 01 	movigh gr26 0 <_cla_int_entry_group0_0>
     e24:	80 06 80 0b 	movg2c gr26
     e28:	84 c3 1a 00 	add gr12 gr12 gr26
     e2c:	84 d3 4a 06 	xor gr13 gr13 gr10
     e30:	84 e3 8c 00 	add gr14 gr14 gr12
     e34:	84 f3 cd 06 	xor gr15 gr15 gr13
     e38:	84 c3 0f 00 	add gr12 gr12 gr15
     e3c:	80 00 00 00 	nop
     e40:	80 b0 00 0f 	movc2g gr11
     e44:	94 b0 12 f5 	movigl gr11 12f <.L0 +0x10>
     e48:	94 b0 00 01 	movigh gr11 0 <_cla_int_entry_group0_0>
     e4c:	95 b4 00 15 	movigl gr27 4001 <.L0 +0x12>
     e50:	95 b0 00 01 	movigh gr27 0 <_cla_int_entry_group0_0>
     e54:	80 06 c0 0b 	movg2c gr27
     e58:	84 c3 1b 00 	add gr12 gr12 gr27
     e5c:	84 d3 4b 06 	xor gr13 gr13 gr11
     e60:	84 e3 8c 00 	add gr14 gr14 gr12
     e64:	84 f3 cd 06 	xor gr15 gr15 gr13
     e68:	84 c3 0f 00 	add gr12 gr12 gr15
     e6c:	80 00 00 00 	nop
     e70:	80 40 00 0f 	movc2g gr4
     e74:	94 40 13 05 	movigl gr4 130 <.L0 +0x11>
     e78:	94 40 00 01 	movigh gr4 0 <_cla_int_entry_group0_0>
     e7c:	95 44 01 15 	movigl gr20 4011 <.L0 +0x7>
     e80:	95 40 00 01 	movigh gr20 0 <_cla_int_entry_group0_0>
     e84:	80 05 00 0b 	movg2c gr20
     e88:	84 c3 14 00 	add gr12 gr12 gr20
     e8c:	84 d3 44 06 	xor gr13 gr13 gr4
     e90:	84 e3 8c 00 	add gr14 gr14 gr12
     e94:	84 f3 cd 06 	xor gr15 gr15 gr13
     e98:	84 c3 0f 00 	add gr12 gr12 gr15
     e9c:	80 00 00 00 	nop
     ea0:	80 50 00 0f 	movc2g gr5
     ea4:	94 50 13 15 	movigl gr5 131 <.L0 +0x12>
     ea8:	94 50 00 01 	movigh gr5 0 <_cla_int_entry_group0_0>
     eac:	95 54 00 15 	movigl gr21 4001 <.L0 +0x12>
     eb0:	95 50 00 01 	movigh gr21 0 <_cla_int_entry_group0_0>
     eb4:	80 05 40 0b 	movg2c gr21
     eb8:	84 c3 15 00 	add gr12 gr12 gr21
     ebc:	84 d3 45 06 	xor gr13 gr13 gr5
     ec0:	84 e3 8c 00 	add gr14 gr14 gr12
     ec4:	84 f3 cd 06 	xor gr15 gr15 gr13
     ec8:	84 c3 0f 00 	add gr12 gr12 gr15
     ecc:	80 00 00 00 	nop
     ed0:	80 60 00 0f 	movc2g gr6
     ed4:	94 60 13 25 	movigl gr6 132 <.L0 +0x13>
     ed8:	94 60 00 01 	movigh gr6 0 <_cla_int_entry_group0_0>
     edc:	95 64 00 15 	movigl gr22 4001 <.L0 +0x12>
     ee0:	95 60 00 01 	movigh gr22 0 <_cla_int_entry_group0_0>
     ee4:	80 05 80 0b 	movg2c gr22
     ee8:	84 c3 16 00 	add gr12 gr12 gr22
     eec:	84 d3 46 06 	xor gr13 gr13 gr6
     ef0:	84 e3 8c 00 	add gr14 gr14 gr12
     ef4:	84 f3 cd 06 	xor gr15 gr15 gr13
     ef8:	84 c3 0f 00 	add gr12 gr12 gr15
     efc:	80 00 00 00 	nop
     f00:	80 70 00 0f 	movc2g gr7
     f04:	94 70 13 35 	movigl gr7 133 <.L0 +0x14>
     f08:	94 70 00 01 	movigh gr7 0 <_cla_int_entry_group0_0>
     f0c:	95 74 01 15 	movigl gr23 4011 <.L0 +0x7>
     f10:	95 70 00 01 	movigh gr23 0 <_cla_int_entry_group0_0>
     f14:	80 05 c0 0b 	movg2c gr23
     f18:	84 c3 17 00 	add gr12 gr12 gr23
     f1c:	84 d3 47 06 	xor gr13 gr13 gr7
     f20:	84 e3 8c 00 	add gr14 gr14 gr12
     f24:	84 f3 cd 06 	xor gr15 gr15 gr13
     f28:	84 c3 0f 00 	add gr12 gr12 gr15
     f2c:	80 00 00 00 	nop
     f30:	80 80 00 0f 	movc2g gr8
     f34:	94 80 13 45 	movigl gr8 134 <.L0 +0x15>
     f38:	94 80 00 01 	movigh gr8 0 <_cla_int_entry_group0_0>
     f3c:	95 84 00 15 	movigl gr24 4001 <.L0 +0x12>
     f40:	95 80 00 01 	movigh gr24 0 <_cla_int_entry_group0_0>
     f44:	80 06 00 0b 	movg2c gr24
     f48:	84 c3 18 00 	add gr12 gr12 gr24
     f4c:	84 d3 48 06 	xor gr13 gr13 gr8
     f50:	84 e3 8c 00 	add gr14 gr14 gr12
     f54:	84 f3 cd 06 	xor gr15 gr15 gr13
     f58:	84 c3 0f 00 	add gr12 gr12 gr15
     f5c:	80 00 00 00 	nop
     f60:	80 90 00 0f 	movc2g gr9
     f64:	94 90 13 55 	movigl gr9 135 <.L0 +0x16>
     f68:	94 90 00 01 	movigh gr9 0 <_cla_int_entry_group0_0>
     f6c:	95 94 00 15 	movigl gr25 4001 <.L0 +0x12>
     f70:	95 90 00 01 	movigh gr25 0 <_cla_int_entry_group0_0>
     f74:	80 06 40 0b 	movg2c gr25
     f78:	84 c3 19 00 	add gr12 gr12 gr25
     f7c:	84 d3 49 06 	xor gr13 gr13 gr9
     f80:	84 e3 8c 00 	add gr14 gr14 gr12
     f84:	84 f3 cd 06 	xor gr15 gr15 gr13
     f88:	84 c3 0f 00 	add gr12 gr12 gr15
     f8c:	80 00 00 00 	nop
     f90:	80 a0 00 0f 	movc2g gr10
     f94:	94 a0 13 65 	movigl gr10 136 <.L0 +0x17>
     f98:	94 a0 00 01 	movigh gr10 0 <_cla_int_entry_group0_0>
     f9c:	95 a4 01 15 	movigl gr26 4011 <.L0 +0x7>
     fa0:	95 a0 00 01 	movigh gr26 0 <_cla_int_entry_group0_0>
     fa4:	80 06 80 0b 	movg2c gr26
     fa8:	84 c3 1a 00 	add gr12 gr12 gr26
     fac:	84 d3 4a 06 	xor gr13 gr13 gr10
     fb0:	84 e3 8c 00 	add gr14 gr14 gr12
     fb4:	84 f3 cd 06 	xor gr15 gr15 gr13
     fb8:	84 c3 0f 00 	add gr12 gr12 gr15
     fbc:	80 00 00 00 	nop
     fc0:	80 b0 00 0f 	movc2g gr11
     fc4:	94 b0 13 75 	movigl gr11 137 <.L0 +0x18>
     fc8:	94 b0 00 01 	movigh gr11 0 <_cla_int_entry_group0_0>
     fcc:	95 b4 00 15 	movigl gr27 4001 <.L0 +0x12>
     fd0:	95 b0 00 01 	movigh gr27 0 <_cla_int_entry_group0_0>
     fd4:	80 06 c0 0b 	movg2c gr27
     fd8:	84 c3 1b 00 	add gr12 gr12 gr27
     fdc:	84 d3 4b 06 	xor gr13 gr13 gr11
     fe0:	84 e3 8c 00 	add gr14 gr14 gr12
     fe4:	84 f3 cd 06 	xor gr15 gr15 gr13
     fe8:	84 c3 0f 00 	add gr12 gr12 gr15
     fec:	80 00 00 00 	nop
     ff0:	80 40 00 0f 	movc2g gr4
     ff4:	94 40 13 85 	movigl gr4 138 <.L0 +0x19>
     ff8:	94 40 00 01 	movigh gr4 0 <_cla_int_entry_group0_0>
     ffc:	95 44 00 15 	movigl gr20 4001 <.L0 +0x12>
    1000:	95 40 00 01 	movigh gr20 0 <_cla_int_entry_group0_0>
    1004:	80 05 00 0b 	movg2c gr20
    1008:	84 c3 14 00 	add gr12 gr12 gr20
    100c:	84 d3 44 06 	xor gr13 gr13 gr4
    1010:	84 e3 8c 00 	add gr14 gr14 gr12
    1014:	84 f3 cd 06 	xor gr15 gr15 gr13
    1018:	84 c3 0f 00 	add gr12 gr12 gr15
    101c:	80 00 00 00 	nop
    1020:	80 50 00 0f 	movc2g gr5
    1024:	94 50 13 95 	movigl gr5 139 <.L0 +0x1a>
    1028:	94 50 00 01 	movigh gr5 0 <_cla_int_entry_group0_0>
    102c:	95 54 01 15 	movigl gr21 4011 <.L0 +0x7>
    1030:	95 50 00 01 	movigh gr21 0 <_cla_int_entry_group0_0>
    1034:	80 05 40 0b 	movg2c gr21
    1038:	84 c3 15 00 	add gr12 gr12 gr21
    103c:	84 d3 45 06 	xor gr13 gr13 gr5
    1040:	84 e3 8c 00 	add gr14 gr14 gr12
    1044:	84 f3 cd 06 	xor gr15 gr15 gr13
    1048:	84 c3 0f 00 	add gr12 gr12 gr15
    104c:	80 00 00 00 	nop
    1050:	80 60 00 0f 	movc2g gr6
    1054:	94 60 13 a5 	movigl gr6 13a <.L0 +0x1b>
    1058:	94 60 00 01 	movigh gr6 0 <_cla_int_entry_group0_0>
    105c:	95 64 00 15 	movigl gr22 4001 <.L0 +0x12>
    1060:	95 60 00 01 	movigh gr22 0 <_cla_int_entry_group0_0>
    1064:	80 05 80 0b 	movg2c gr22
    1068:	84 c3 16 00 	add gr12 gr12 gr22
    106c:	84 d3 46 06 	xor gr13 gr13 gr6
    1070:	84 e3 8c 00 	add gr14 gr14 gr12
    1074:	84 f3 cd 06 	xor gr15 gr15 gr13
    1078:	84 c3 0f 00 	add gr12 gr12 gr15
    107c:	80 00 00 00 	nop
    1080:	80 70 00 0f 	movc2g gr7
    1084:	94 70 13 b5 	movigl gr7 13b <.L0 +0x1c>
    1088:	94 70 00 01 	movigh gr7 0 <_cla_int_entry_group0_0>
    108c:	95 74 00 15 	movigl gr23 4001 <.L0 +0x12>
    1090:	95 70 00 01 	movigh gr23 0 <_cla_int_entry_group0_0>
    1094:	80 05 c0 0b 	movg2c gr23
    1098:	84 c3 17 00 	add gr12 gr12 gr23
    109c:	84 d3 47 06 	xor gr13 gr13 gr7
    10a0:	84 e3 8c 00 	add gr14 gr14 gr12
    10a4:	84 f3 cd 06 	xor gr15 gr15 gr13
    10a8:	84 c3 0f 00 	add gr12 gr12 gr15
    10ac:	80 00 00 00 	nop
    10b0:	80 80 00 0f 	movc2g gr8
    10b4:	94 80 13 c5 	movigl gr8 13c <.L0 +0x1d>
    10b8:	94 80 00 01 	movigh gr8 0 <_cla_int_entry_group0_0>
    10bc:	95 84 01 15 	movigl gr24 4011 <.L0 +0x7>
    10c0:	95 80 00 01 	movigh gr24 0 <_cla_int_entry_group0_0>
    10c4:	80 06 00 0b 	movg2c gr24
    10c8:	84 c3 18 00 	add gr12 gr12 gr24
    10cc:	84 d3 48 06 	xor gr13 gr13 gr8
    10d0:	84 e3 8c 00 	add gr14 gr14 gr12
    10d4:	84 f3 cd 06 	xor gr15 gr15 gr13
    10d8:	84 c3 0f 00 	add gr12 gr12 gr15
    10dc:	80 00 00 00 	nop
    10e0:	80 90 00 0f 	movc2g gr9
    10e4:	94 90 13 d5 	movigl gr9 13d <.L0 +0x1e>
    10e8:	94 90 00 01 	movigh gr9 0 <_cla_int_entry_group0_0>
    10ec:	95 94 00 15 	movigl gr25 4001 <.L0 +0x12>
    10f0:	95 90 00 01 	movigh gr25 0 <_cla_int_entry_group0_0>
    10f4:	80 06 40 0b 	movg2c gr25
    10f8:	84 c3 19 00 	add gr12 gr12 gr25
    10fc:	84 d3 49 06 	xor gr13 gr13 gr9
    1100:	84 e3 8c 00 	add gr14 gr14 gr12
    1104:	84 f3 cd 06 	xor gr15 gr15 gr13
    1108:	84 c3 0f 00 	add gr12 gr12 gr15
    110c:	80 00 00 00 	nop
    1110:	80 a0 00 0f 	movc2g gr10
    1114:	94 a0 13 e5 	movigl gr10 13e <.L0 +0x1f>
    1118:	94 a0 00 01 	movigh gr10 0 <_cla_int_entry_group0_0>
    111c:	95 a4 00 15 	movigl gr26 4001 <.L0 +0x12>
    1120:	95 a0 00 01 	movigh gr26 0 <_cla_int_entry_group0_0>
    1124:	80 06 80 0b 	movg2c gr26
    1128:	84 c3 1a 00 	add gr12 gr12 gr26
    112c:	84 d3 4a 06 	xor gr13 gr13 gr10
    1130:	84 e3 8c 00 	add gr14 gr14 gr12
    1134:	84 f3 cd 06 	xor gr15 gr15 gr13
    1138:	84 c3 0f 00 	add gr12 gr12 gr15
    113c:	80 00 00 00 	nop
    1140:	80 b0 00 0f 	movc2g gr11
    1144:	94 b0 13 f5 	movigl gr11 13f <.L0 +0x20>
    1148:	94 b0 00 01 	movigh gr11 0 <_cla_int_entry_group0_0>
    114c:	95 b4 01 15 	movigl gr27 4011 <.L0 +0x7>
    1150:	95 b0 00 01 	movigh gr27 0 <_cla_int_entry_group0_0>
    1154:	80 06 c0 0b 	movg2c gr27
    1158:	84 c3 1b 00 	add gr12 gr12 gr27
    115c:	84 d3 4b 06 	xor gr13 gr13 gr11
    1160:	84 e3 8c 00 	add gr14 gr14 gr12
    1164:	84 f3 cd 06 	xor gr15 gr15 gr13
    1168:	84 c3 0f 00 	add gr12 gr12 gr15
    116c:	80 00 00 00 	nop
    1170:	80 40 00 0f 	movc2g gr4
    1174:	94 40 14 05 	movigl gr4 140 <.L0 +0x21>
    1178:	94 40 00 01 	movigh gr4 0 <_cla_int_entry_group0_0>
    117c:	95 44 00 15 	movigl gr20 4001 <.L0 +0x12>
    1180:	95 40 00 01 	movigh gr20 0 <_cla_int_entry_group0_0>
    1184:	80 05 00 0b 	movg2c gr20
    1188:	84 c3 14 00 	add gr12 gr12 gr20
    118c:	84 d3 44 06 	xor gr13 gr13 gr4
    1190:	84 e3 8c 00 	add gr14 gr14 gr12
    1194:	84 f3 cd 06 	xor gr15 gr15 gr13
    1198:	84 c3 0f 00 	add gr12 gr12 gr15
    119c:	80 00 00 00 	nop
    11a0:	80 50 00 0f 	movc2g gr5
    11a4:	94 50 14 15 	movigl gr5 141 <.L0 +0x22>
    11a8:	94 50 00 01 	movigh gr5 0 <_cla_int_entry_group0_0>
    11ac:	95 54 00 15 	movigl gr21 4001 <.L0 +0x12>
    11b0:	95 50 00 01 	movigh gr21 0 <_cla_int_entry_group0_0>
    11b4:	80 05 40 0b 	movg2c gr21
    11b8:	84 c3 15 00 	add gr12 gr12 gr21
    11bc:	84 d3 45 06 	xor gr13 gr13 gr5
    11c0:	84 e3 8c 00 	add gr14 gr14 gr12
    11c4:	84 f3 cd 06 	xor gr15 gr15 gr13
    11c8:	84 c3 0f 00 	add gr12 gr12 gr15
    11cc:	80 00 00 00 	nop
    11d0:	80 60 00 0f 	movc2g gr6
    11d4:	94 60 14 25 	movigl gr6 142 <.L0 +0x23>
    11d8:	94 60 00 01 	movigh gr6 0 <_cla_int_entry_group0_0>
    11dc:	95 64 01 15 	movigl gr22 4011 <.L0 +0x7>
    11e0:	95 60 00 01 	movigh gr22 0 <_cla_int_entry_group0_0>
    11e4:	80 05 80 0b 	movg2c gr22
    11e8:	84 c3 16 00 	add gr12 gr12 gr22
    11ec:	84 d3 46 06 	xor gr13 gr13 gr6
    11f0:	84 e3 8c 00 	add gr14 gr14 gr12
    11f4:	84 f3 cd 06 	xor gr15 gr15 gr13
    11f8:	84 c3 0f 00 	add gr12 gr12 gr15
    11fc:	80 00 00 00 	nop
    1200:	80 70 00 0f 	movc2g gr7
    1204:	94 70 14 35 	movigl gr7 143 <.L0 +0x24>
    1208:	94 70 00 01 	movigh gr7 0 <_cla_int_entry_group0_0>
    120c:	95 74 00 15 	movigl gr23 4001 <.L0 +0x12>
    1210:	95 70 00 01 	movigh gr23 0 <_cla_int_entry_group0_0>
    1214:	80 05 c0 0b 	movg2c gr23
    1218:	84 c3 17 00 	add gr12 gr12 gr23
    121c:	84 d3 47 06 	xor gr13 gr13 gr7
    1220:	84 e3 8c 00 	add gr14 gr14 gr12
    1224:	84 f3 cd 06 	xor gr15 gr15 gr13
    1228:	84 c3 0f 00 	add gr12 gr12 gr15
    122c:	80 00 00 00 	nop
    1230:	80 80 00 0f 	movc2g gr8
    1234:	94 80 14 45 	movigl gr8 144 <.L0 +0x25>
    1238:	94 80 00 01 	movigh gr8 0 <_cla_int_entry_group0_0>
    123c:	95 84 00 15 	movigl gr24 4001 <.L0 +0x12>
    1240:	95 80 00 01 	movigh gr24 0 <_cla_int_entry_group0_0>
    1244:	80 06 00 0b 	movg2c gr24
    1248:	84 c3 18 00 	add gr12 gr12 gr24
    124c:	84 d3 48 06 	xor gr13 gr13 gr8
    1250:	84 e3 8c 00 	add gr14 gr14 gr12
    1254:	84 f3 cd 06 	xor gr15 gr15 gr13
    1258:	84 c3 0f 00 	add gr12 gr12 gr15
    125c:	80 00 00 00 	nop
    1260:	80 90 00 0f 	movc2g gr9
    1264:	94 90 14 55 	movigl gr9 145 <.L0 +0x26>
    1268:	94 90 00 01 	movigh gr9 0 <_cla_int_entry_group0_0>
    126c:	95 94 01 15 	movigl gr25 4011 <.L0 +0x7>
    1270:	95 90 00 01 	movigh gr25 0 <_cla_int_entry_group0_0>
    1274:	80 06 40 0b 	movg2c gr25
    1278:	84 c3 19 00 	add gr12 gr12 gr25
    127c:	84 d3 49 06 	xor gr13 gr13 gr9
    1280:	84 e3 8c 00 	add gr14 gr14 gr12
    1284:	84 f3 cd 06 	xor gr15 gr15 gr13
    1288:	84 c3 0f 00 	add gr12 gr12 gr15
    128c:	80 00 00 00 	nop
    1290:	80 a0 00 0f 	movc2g gr10
    1294:	94 a0 14 65 	movigl gr10 146 <.L0 +0x27>
    1298:	94 a0 00 01 	movigh gr10 0 <_cla_int_entry_group0_0>
    129c:	95 a4 00 15 	movigl gr26 4001 <.L0 +0x12>
    12a0:	95 a0 00 01 	movigh gr26 0 <_cla_int_entry_group0_0>
    12a4:	80 06 80 0b 	movg2c gr26
    12a8:	84 c3 1a 00 	add gr12 gr12 gr26
    12ac:	84 d3 4a 06 	xor gr13 gr13 gr10
    12b0:	84 e3 8c 00 	add gr14 gr14 gr12
    12b4:	84 f3 cd 06 	xor gr15 gr15 gr13
    12b8:	84 c3 0f 00 	add gr12 gr12 gr15
    12bc:	80 00 00 00 	nop
    12c0:	80 b0 00 0f 	movc2g gr11
    12c4:	94 b0 14 75 	movigl gr11 147 <.L0 +0x28>
    12c8:	94 b0 00 01 	movigh gr11 0 <_cla_int_entry_group0_0>
    12cc:	95 b4 00 15 	movigl gr27 4001 <.L0 +0x12>
    12d0:	95 b0 00 01 	movigh gr27 0 <_cla_int_entry_group0_0>
    12d4:	80 06 c0 0b 	movg2c gr27
    12d8:	84 c3 1b 00 	add gr12 gr12 gr27
    12dc:	84 d3 4b 06 	xor gr13 gr13 gr11
    12e0:	84 e3 8c 00 	add gr14 gr14 gr12
    12e4:	84 f3 cd 06 	xor gr15 gr15 gr13
    12e8:	84 c3 0f 00 	add gr12 gr12 gr15
    12ec:	80 00 00 00 	nop
    12f0:	80 40 00 0f 	movc2g gr4
    12f4:	94 40 14 85 	movigl gr4 148 <.L0 +0x29>
    12f8:	94 40 00 01 	movigh gr4 0 <_cla_int_entry_group0_0>
    12fc:	95 44 01 15 	movigl gr20 4011 <.L0 +0x7>
    1300:	95 40 00 01 	movigh gr20 0 <_cla_int_entry_group0_0>
    1304:	80 05 00 0b 	movg2c gr20
    1308:	84 c3 14 00 	add gr12 gr12 gr20
    130c:	84 d3 44 06 	xor gr13 gr13 gr4
    1310:	84 e3 8c 00 	add gr14 gr14 gr12
    1314:	84 f3 cd 06 	xor gr15 gr15 gr13
    1318:	84 c3 0f 00 	add gr12 gr12 gr15
    131c:	80 00 00 00 	nop
    1320:	80 50 00 0f 	movc2g gr5
    1324:	94 50 14 95 	movigl gr5 149 <.L0 +0x2a>
    1328:	94 50 00 01 	movigh gr5 0 <_cla_int_entry_group0_0>
    132c:	95 54 00 15 	movigl gr21 4001 <.L0 +0x12>
    1330:	95 50 00 01 	movigh gr21 0 <_cla_int_entry_group0_0>
    1334:	80 05 40 0b 	movg2c gr21
    1338:	84 c3 15 00 	add gr12 gr12 gr21
    133c:	84 d3 45 06 	xor gr13 gr13 gr5
    1340:	84 e3 8c 00 	add gr14 gr14 gr12
    1344:	84 f3 cd 06 	xor gr15 gr15 gr13
    1348:	84 c3 0f 00 	add gr12 gr12 gr15
    134c:	80 00 00 00 	nop
    1350:	80 60 00 0f 	movc2g gr6
    1354:	94 60 14 a5 	movigl gr6 14a <.L0 +0x2b>
    1358:	94 60 00 01 	movigh gr6 0 <_cla_int_entry_group0_0>
    135c:	95 64 00 15 	movigl gr22 4001 <.L0 +0x12>
    1360:	95 60 00 01 	movigh gr22 0 <_cla_int_entry_group0_0>
    1364:	80 05 80 0b 	movg2c gr22
    1368:	84 c3 16 00 	add gr12 gr12 gr22
    136c:	84 d3 46 06 	xor gr13 gr13 gr6
    1370:	84 e3 8c 00 	add gr14 gr14 gr12
    1374:	84 f3 cd 06 	xor gr15 gr15 gr13
    1378:	84 c3 0f 00 	add gr12 gr12 gr15
    137c:	80 00 00 00 	nop
    1380:	80 70 00 0f 	movc2g gr7
    1384:	94 70 14 b5 	movigl gr7 14b <.L0 +0x2c>
    1388:	94 70 00 01 	movigh gr7 0 <_cla_int_entry_group0_0>
    138c:	95 74 01 15 	movigl gr23 4011 <.L0 +0x7>
    1390:	95 70 00 01 	movigh gr23 0 <_cla_int_entry_group0_0>
    1394:	80 05 c0 0b 	movg2c gr23
    1398:	84 c3 17 00 	add gr12 gr12 gr23
    139c:	84 d3 47 06 	xor gr13 gr13 gr7
    13a0:	84 e3 8c 00 	add gr14 gr14 gr12
    13a4:	84 f3 cd 06 	xor gr15 gr15 gr13
    13a8:	84 c3 0f 00 	add gr12 gr12 gr15
    13ac:	80 00 00 00 	nop
    13b0:	80 80 00 0f 	movc2g gr8
    13b4:	94 80 14 c5 	movigl gr8 14c <.L0 +0x2d>
    13b8:	94 80 00 01 	movigh gr8 0 <_cla_int_entry_group0_0>
    13bc:	95 84 00 15 	movigl gr24 4001 <.L0 +0x12>
    13c0:	95 80 00 01 	movigh gr24 0 <_cla_int_entry_group0_0>
    13c4:	80 06 00 0b 	movg2c gr24
    13c8:	84 c3 18 00 	add gr12 gr12 gr24
    13cc:	84 d3 48 06 	xor gr13 gr13 gr8
    13d0:	84 e3 8c 00 	add gr14 gr14 gr12
    13d4:	84 f3 cd 06 	xor gr15 gr15 gr13
    13d8:	84 c3 0f 00 	add gr12 gr12 gr15
    13dc:	80 00 00 00 	nop
    13e0:	80 90 00 0f 	movc2g gr9
    13e4:	94 90 14 d5 	movigl gr9 14d <.L0 +0x2e>
    13e8:	94 90 00 01 	movigh gr9 0 <_cla_int_entry_group0_0>
    13ec:	95 94 00 15 	movigl gr25 4001 <.L0 +0x12>
    13f0:	95 90 00 01 	movigh gr25 0 <_cla_int_entry_group0_0>
    13f4:	80 06 40 0b 	movg2c gr25
    13f8:	84 c3 19 00 	add gr12 gr12 gr25
    13fc:	84 d3 49 06 	xor gr13 gr13 gr9
    1400:	84 e3 8c 00 	add gr14 gr14 gr12
    1404:	84 f3 cd 06 	xor gr15 gr15 gr13
    1408:	84 c3 0f 00 	add gr12 gr12 gr15
    140c:	80 00 00 00 	nop
    1410:	80 a0 00 0f 	movc2g gr10
    1414:	94 a0 14 e5 	movigl gr10 14e <.L0 +0x2f>
    1418:	94 a0 00 01 	movigh gr10 0 <_cla_int_entry_group0_0>
    141c:	95 a4 01 15 	movigl gr26 4011 <.L0 +0x7>
    1420:	95 a0 00 01 	movigh gr26 0 <_cla_int_entry_group0_0>
    1424:	80 06 80 0b 	movg2c gr26
    1428:	84 c3 1a 00 	add gr12 gr12 gr26
    142c:	84 d3 4a 06 	xor gr13 gr13 gr10
    1430:	84 e3 8c 00 	add gr14 gr14 gr12
    1434:	84 f3 cd 06 	xor gr15 gr15 gr13
    1438:	84 c3 0f 00 	add gr12 gr12 gr15
    143c:	80 00 00 00 	nop
    1440:	80 b0 00 0f 	movc2g gr11
    1444:	94 b0 14 f5 	movigl gr11 14f <.L0 +0x30>
    1448:	94 b0 00 01 	movigh gr11 0 <_cla_int_entry_group0_0>
    144c:	95 b4 00 15 	movigl gr27 4001 <.L0 +0x12>
    1450:	95 b0 00 01 	movigh gr27 0 <_cla_int_entry_group0_0>
    1454:	80 06 c0 0b 	movg2c gr27
    1458:	84 c3 1b 00 	add gr12 gr12 gr27
    145c:	84 d3 4b 06 	xor gr13 gr13 gr11
    1460:	84 e3 8c 00 	add gr14 gr14 gr12
    1464:	84 f3 cd 06 	xor gr15 gr15 gr13
    1468:	84 c3 0f 00 	add gr12 gr12 gr15
    146c:	80 00 00 00 	nop
    1470:	80 40 00 0f 	movc2g gr4
    1474:	94 40 15 05 	movigl gr4 150 <.L0 >
    1478:	94 40 00 01 	movigh gr4 0 <_cla_int_entry_group0_0>
    147c:	95 44 00 15 	movigl gr20 4001 <.L0 +0x12>
    1480:	95 40 00 01 	movigh gr20 0 <_cla_int_entry_group0_0>
    1484:	80 05 00 0b 	movg2c gr20
    1488:	84 c3 14 00 	add gr12 gr12 gr20
    148c:	84 d3 44 06 	xor gr13 gr13 gr4
    1490:	84 e3 8c 00 	add gr14 gr14 gr12
    1494:	84 f3 cd 06 	xor gr15 gr15 gr13
    1498:	84 c3 0f 00 	add gr12 gr12 gr15
    149c:	80 00 00 00 	nop
    14a0:	80 50 00 0f 	movc2g gr5
    14a4:	94 50 15 15 	movigl gr5 151 <.L0 +0x1>
    14a8:	94 50 00 01 	movigh gr5 0 <_cla_int_entry_group0_0>
    14ac:	95 54 01 15 	movigl gr21 4011 <.L0 +0x7>
    14b0:	95 50 00 01 	movigh gr21 0 <_cla_int_entry_group0_0>
    14b4:	80 05 40 0b 	movg2c gr21
    14b8:	84 c3 15 00 	add gr12 gr12 gr21
    14bc:	84 d3 45 06 	xor gr13 gr13 gr5
    14c0:	84 e3 8c 00 	add gr14 gr14 gr12
    14c4:	84 f3 cd 06 	xor gr15 gr15 gr13
    14c8:	84 c3 0f 00 	add gr12 gr12 gr15
    14cc:	80 00 00 00 	nop
    14d0:	80 60 00 0f 	movc2g gr6
    14d4:	94 60 15 25 	movigl gr6 152 <.L0 +0x2>
    14d8:	94 60 00 01 	movigh gr6 0 <_cla_int_entry_group0_0>
    14dc:	95 64 00 15 	movigl gr22 4001 <.L0 +0x12>
    14e0:	95 60 00 01 	movigh gr22 0 <_cla_int_entry_group0_0>
    14e4:	80 05 80 0b 	movg2c gr22
    14e8:	84 c3 16 00 	add gr12 gr12 gr22
    14ec:	84 d3 46 06 	xor gr13 gr13 gr6
    14f0:	84 e3 8c 00 	add gr14 gr14 gr12
    14f4:	84 f3 cd 06 	xor gr15 gr15 gr13
    14f8:	84 c3 0f 00 	add gr12 gr12 gr15
    14fc:	80 00 00 00 	nop
    1500:	80 70 00 0f 	movc2g gr7
    1504:	94 70 15 35 	movigl gr7 153 <.L0 +0x3>
    1508:	94 70 00 01 	movigh gr7 0 <_cla_int_entry_group0_0>
    150c:	95 74 00 15 	movigl gr23 4001 <.L0 +0x12>
    1510:	95 70 00 01 	movigh gr23 0 <_cla_int_entry_group0_0>
    1514:	80 05 c0 0b 	movg2c gr23
    1518:	84 c3 17 00 	add gr12 gr12 gr23
    151c:	84 d3 47 06 	xor gr13 gr13 gr7
    1520:	84 e3 8c 00 	add gr14 gr14 gr12
    1524:	84 f3 cd 06 	xor gr15 gr15 gr13
    1528:	84 c3 0f 00 	add gr12 gr12 gr15
    152c:	80 00 00 00 	nop
    1530:	80 80 00 0f 	movc2g gr8
    1534:	94 80 15 45 	movigl gr8 154 <.L0 +0x4>
    1538:	94 80 00 01 	movigh gr8 0 <_cla_int_entry_group0_0>
    153c:	95 84 01 15 	movigl gr24 4011 <.L0 +0x7>
    1540:	95 80 00 01 	movigh gr24 0 <_cla_int_entry_group0_0>
    1544:	80 06 00 0b 	movg2c gr24
    1548:	84 c3 18 00 	add gr12 gr12 gr24
    154c:	84 d3 48 06 	xor gr13 gr13 gr8
    1550:	84 e3 8c 00 	add gr14 gr14 gr12
    1554:	84 f3 cd 06 	xor gr15 gr15 gr13
    1558:	84 c3 0f 00 	add gr12 gr12 gr15
    155c:	80 00 00 00 	nop
    1560:	80 90 00 0f 	movc2g gr9
    1564:	94 90 15 55 	movigl gr9 155 <.L0 +0x5>
    1568:	94 90 00 01 	movigh gr9 0 <_cla_int_entry_group0_0>
    156c:	95 94 00 15 	movigl gr25 4001 <.L0 +0x12>
    1570:	95 90 00 01 	movigh gr25 0 <_cla_int_entry_group0_0>
    1574:	80 06 40 0b 	movg2c gr25
    1578:	84 c3 19 00 	add gr12 gr12 gr25
    157c:	84 d3 49 06 	xor gr13 gr13 gr9
    1580:	84 e3 8c 00 	add gr14 gr14 gr12
    1584:	84 f3 cd 06 	xor gr15 gr15 gr13
    1588:	84 c3 0f 00 	add gr12 gr12 gr15
    158c:	80 00 00 00 	nop
    1590:	80 a0 00 0f 	movc2g gr10
    1594:	94 a0 15 65 	movigl gr10 156 <.L0 +0x6>
    1598:	94 a0 00 01 	movigh gr10 0 <_cla_int_entry_group0_0>
    159c:	95 a4 00 15 	movigl gr26 4001 <.L0 +0x12>
    15a0:	95 a0 00 01 	movigh gr26 0 <_cla_int_entry_group0_0>
    15a4:	80 06 80 0b 	movg2c gr26
    15a8:	84 c3 1a 00 	add gr12 gr12 gr26
    15ac:	84 d3 4a 06 	xor gr13 gr13 gr10
    15b0:	84 e3 8c 00 	add gr14 gr14 gr12
    15b4:	84 f3 cd 06 	xor gr15 gr15 gr13
    15b8:	84 c3 0f 00 	add gr12 gr12 gr15
    15bc:	80 00 00 00 	nop
    15c0:	80 b0 00 0f 	movc2g gr11
    15c4:	94 b0 15 75 	movigl gr11 157 <.L0 +0x7>
    15c8:	94 b0 00 01 	movigh gr11 0 <_cla_int_entry_group0_0>
    15cc:	95 b4 01 15 	movigl gr27 4011 <.L0 +0x7>
    15d0:	95 b0 00 01 	movigh gr27 0 <_cla_int_entry_group0_0>
    15d4:	80 06 c0 0b 	movg2c gr27
    15d8:	84 c3 1b 00 	add gr12 gr12 gr27
    15dc:	84 d3 4b 06 	xor gr13 gr13 gr11
    15e0:	84 e3 8c 00 	add gr14 gr14 gr12
    15e4:	84 f3 cd 06 	xor gr15 gr15 gr13
    15e8:	84 c3 0f 00 	add gr12 gr12 gr15
    15ec:	80 00 00 00 	nop
    15f0:	80 40 00 0f 	movc2g gr4
    15f4:	94 40 15 85 	movigl gr4 158 <.L0 +0x8>
    15f8:	94 40 00 01 	movigh gr4 0 <_cla_int_entry_group0_0>
    15fc:	95 44 00 15 	movigl gr20 4001 <.L0 +0x12>
    1600:	95 40 00 01 	movigh gr20 0 <_cla_int_entry_group0_0>
    1604:	80 05 00 0b 	movg2c gr20
    1608:	84 c3 14 00 	add gr12 gr12 gr20
    160c:	84 d3 44 06 	xor gr13 gr13 gr4
    1610:	84 e3 8c 00 	add gr14 gr14 gr12
    1614:	84 f3 cd 06 	xor gr15 gr15 gr13
    1618:	84 c3 0f 00 	add gr12 gr12 gr15
    161c:	80 00 00 00 	nop
    1620:	80 50 00 0f 	movc2g gr5
    1624:	94 50 15 95 	movigl gr5 159 <.L0 +0x9>
    1628:	94 50 00 01 	movigh gr5 0 <_cla_int_entry_group0_0>
    162c:	95 54 00 15 	movigl gr21 4001 <.L0 +0x12>
    1630:	95 50 00 01 	movigh gr21 0 <_cla_int_entry_group0_0>
    1634:	80 05 40 0b 	movg2c gr21
    1638:	84 c3 15 00 	add gr12 gr12 gr21
    163c:	84 d3 45 06 	xor gr13 gr13 gr5
    1640:	84 e3 8c 00 	add gr14 gr14 gr12
    1644:	84 f3 cd 06 	xor gr15 gr15 gr13
    1648:	84 c3 0f 00 	add gr12 gr12 gr15
    164c:	80 00 00 00 	nop
    1650:	80 60 00 0f 	movc2g gr6
    1654:	94 60 15 a5 	movigl gr6 15a <.L0 +0xa>
    1658:	94 60 00 01 	movigh gr6 0 <_cla_int_entry_group0_0>
    165c:	95 64 01 15 	movigl gr22 4011 <.L0 +0x7>
    1660:	95 60 00 01 	movigh gr22 0 <_cla_int_entry_group0_0>
    1664:	80 05 80 0b 	movg2c gr22
    1668:	84 c3 16 00 	add gr12 gr12 gr22
    166c:	84 d3 46 06 	xor gr13 gr13 gr6
    1670:	84 e3 8c 00 	add gr14 gr14 gr12
    1674:	84 f3 cd 06 	xor gr15 gr15 gr13
    1678:	84 c3 0f 00 	add gr12 gr12 gr15
    167c:	80 00 00 00 	nop
    1680:	80 70 00 0f 	movc2g gr7
    1684:	94 70 15 b5 	movigl gr7 15b <.L0 +0xb>
    1688:	94 70 00 01 	movigh gr7 0 <_cla_int_entry_group0_0>
    168c:	95 74 00 15 	movigl gr23 4001 <.L0 +0x12>
    1690:	95 70 00 01 	movigh gr23 0 <_cla_int_entry_group0_0>
    1694:	80 05 c0 0b 	movg2c gr23
    1698:	84 c3 17 00 	add gr12 gr12 gr23
    169c:	84 d3 47 06 	xor gr13 gr13 gr7
    16a0:	84 e3 8c 00 	add gr14 gr14 gr12
    16a4:	84 f3 cd 06 	xor gr15 gr15 gr13
    16a8:	84 c3 0f 00 	add gr12 gr12 gr15
    16ac:	80 00 00 00 	nop
    16b0:	80 80 00 0f 	movc2g gr8
    16b4:	94 80 15 c5 	movigl gr8 15c <.L0 +0xc>
    16b8:	94 80 00 01 	movigh gr8 0 <_cla_int_entry_group0_0>
    16bc:	95 84 00 15 	movigl gr24 4001 <.L0 +0x12>
    16c0:	95 80 00 01 	movigh gr24 0 <_cla_int_entry_group0_0>
    16c4:	80 06 00 0b 	movg2c gr24
    16c8:	84 c3 18 00 	add gr12 gr12 gr24
    16cc:	84 d3 48 06 	xor gr13 gr13 gr8
    16d0:	84 e3 8c 00 	add gr14 gr14 gr12
    16d4:	84 f3 cd 06 	xor gr15 gr15 gr13
    16d8:	84 c3 0f 00 	add gr12 gr12 gr15
    16dc:	80 00 00 00 	nop
    16e0:	80 90 00 0f 	movc2g gr9
    16e4:	94 90 15 d5 	movigl gr9 15d <.L0 +0xd>
    16e8:	94 90 00 01 	movigh gr9 0 <_cla_int_entry_group0_0>
    16ec:	95 94 01 15 	movigl gr25 4011 <.L0 +0x7>
    16f0:	95 90 00 01 	movigh gr25 0 <_cla_int_entry_group0_0>
    16f4:	80 06 40 0b 	movg2c gr25
    16f8:	84 c3 19 00 	add gr12 gr12 gr25
    16fc:	84 d3 49 06 	xor gr13 gr13 gr9
    1700:	84 e3 8c 00 	add gr14 gr14 gr12
    1704:	84 f3 cd 06 	xor gr15 gr15 gr13
    1708:	84 c3 0f 00 	add gr12 gr12 gr15
    170c:	80 00 00 00 	nop
    1710:	80 a0 00 0f 	movc2g gr10
    1714:	94 a0 15 e5 	movigl gr10 15e <.L0 +0xe>
    1718:	94 a0 00 01 	movigh gr10 0 <_cla_int_entry_group0_0>
    171c:	95 a4 00 15 	movigl gr26 4001 <.L0 +0x12>
    1720:	95 a0 00 01 	movigh gr26 0 <_cla_int_entry_group0_0>
    1724:	80 06 80 0b 	movg2c gr26
    1728:	84 c3 1a 00 	add gr12 gr12 gr26
    172c:	84 d3 4a 06 	xor gr13 gr13 gr10
    1730:	84 e3 8c 00 	add gr14 gr14 gr12
    1734:	84 f3 cd 06 	xor gr15 gr15 gr13
    1738:	84 c3 0f 00 	add gr12 gr12 gr15
    173c:	80 00 00 00 	nop
    1740:	80 b0 00 0f 	movc2g gr11
    1744:	94 b0 15 f5 	movigl gr11 15f <.L0 +0xf>
    1748:	94 b0 00 01 	movigh gr11 0 <_cla_int_entry_group0_0>
    174c:	95 b4 00 15 	movigl gr27 4001 <.L0 +0x12>
    1750:	95 b0 00 01 	movigh gr27 0 <_cla_int_entry_group0_0>
    1754:	80 06 c0 0b 	movg2c gr27
    1758:	84 c3 1b 00 	add gr12 gr12 gr27
    175c:	84 d3 4b 06 	xor gr13 gr13 gr11
    1760:	84 e3 8c 00 	add gr14 gr14 gr12
    1764:	84 f3 cd 06 	xor gr15 gr15 gr13
    1768:	84 c3 0f 00 	add gr12 gr12 gr15
    176c:	80 00 00 00 	nop
    1770:	80 40 00 0f 	movc2g gr4
    1774:	94 40 16 05 	movigl gr4 160 <.L0 +0x10>
    1778:	94 40 00 01 	movigh gr4 0 <_cla_int_entry_group0_0>
    177c:	95 44 01 15 	movigl gr20 4011 <.L0 +0x7>
    1780:	95 40 00 01 	movigh gr20 0 <_cla_int_entry_group0_0>
    1784:	80 05 00 0b 	movg2c gr20
    1788:	84 c3 14 00 	add gr12 gr12 gr20
    178c:	84 d3 44 06 	xor gr13 gr13 gr4
    1790:	84 e3 8c 00 	add gr14 gr14 gr12
    1794:	84 f3 cd 06 	xor gr15 gr15 gr13
    1798:	84 c3 0f 00 	add gr12 gr12 gr15
    179c:	80 00 00 00 	nop
    17a0:	80 50 00 0f 	movc2g gr5
    17a4:	94 50 16 15 	movigl gr5 161 <.L0 +0x11>
    17a8:	94 50 00 01 	movigh gr5 0 <_cla_int_entry_group0_0>
    17ac:	95 54 00 15 	movigl gr21 4001 <.L0 +0x12>
    17b0:	95 50 00 01 	movigh gr21 0 <_cla_int_entry_group0_0>
    17b4:	80 05 40 0b 	movg2c gr21
    17b8:	84 c3 15 00 	add gr12 gr12 gr21
    17bc:	84 d3 45 06 	xor gr13 gr13 gr5
    17c0:	84 e3 8c 00 	add gr14 gr14 gr12
    17c4:	84 f3 cd 06 	xor gr15 gr15 gr13
    17c8:	84 c3 0f 00 	add gr12 gr12 gr15
    17cc:	80 00 00 00 	nop
    17d0:	80 60 00 0f 	movc2g gr6
    17d4:	94 60 16 25 	movigl gr6 162 <.L0 +0x12>
    17d8:	94 60 00 01 	movigh gr6 0 <_cla_int_entry_group0_0>
    17dc:	95 64 00 15 	movigl gr22 4001 <.L0 +0x12>
    17e0:	95 60 00 01 	movigh gr22 0 <_cla_int_entry_group0_0>
    17e4:	80 05 80 0b 	movg2c gr22
    17e8:	84 c3 16 00 	add gr12 gr12 gr22
    17ec:	84 d3 46 06 	xor gr13 gr13 gr6
    17f0:	84 e3 8c 00 	add gr14 gr14 gr12
    17f4:	84 f3 cd 06 	xor gr15 gr15 gr13
    17f8:	84 c3 0f 00 	add gr12 gr12 gr15
    17fc:	80 00 00 00 	nop
    1800:	80 70 00 0f 	movc2g gr7
    1804:	94 70 16 35 	movigl gr7 163 <.L0 +0x13>
    1808:	94 70 00 01 	movigh gr7 0 <_cla_int_entry_group0_0>
    180c:	95 74 01 15 	movigl gr23 4011 <.L0 +0x7>
    1810:	95 70 00 01 	movigh gr23 0 <_cla_int_entry_group0_0>
    1814:	80 05 c0 0b 	movg2c gr23
    1818:	84 c3 17 00 	add gr12 gr12 gr23
    181c:	84 d3 47 06 	xor gr13 gr13 gr7
    1820:	84 e3 8c 00 	add gr14 gr14 gr12
    1824:	84 f3 cd 06 	xor gr15 gr15 gr13
    1828:	84 c3 0f 00 	add gr12 gr12 gr15
    182c:	80 00 00 00 	nop
    1830:	80 80 00 0f 	movc2g gr8
    1834:	94 80 16 45 	movigl gr8 164 <.L0 +0x14>
    1838:	94 80 00 01 	movigh gr8 0 <_cla_int_entry_group0_0>
    183c:	95 84 00 15 	movigl gr24 4001 <.L0 +0x12>
    1840:	95 80 00 01 	movigh gr24 0 <_cla_int_entry_group0_0>
    1844:	80 06 00 0b 	movg2c gr24
    1848:	84 c3 18 00 	add gr12 gr12 gr24
    184c:	84 d3 48 06 	xor gr13 gr13 gr8
    1850:	84 e3 8c 00 	add gr14 gr14 gr12
    1854:	84 f3 cd 06 	xor gr15 gr15 gr13
    1858:	84 c3 0f 00 	add gr12 gr12 gr15
    185c:	80 00 00 00 	nop
    1860:	80 90 00 0f 	movc2g gr9
    1864:	94 90 16 55 	movigl gr9 165 <.L0 +0x15>
    1868:	94 90 00 01 	movigh gr9 0 <_cla_int_entry_group0_0>
    186c:	95 94 00 15 	movigl gr25 4001 <.L0 +0x12>
    1870:	95 90 00 01 	movigh gr25 0 <_cla_int_entry_group0_0>
    1874:	80 06 40 0b 	movg2c gr25
    1878:	84 c3 19 00 	add gr12 gr12 gr25
    187c:	84 d3 49 06 	xor gr13 gr13 gr9
    1880:	84 e3 8c 00 	add gr14 gr14 gr12
    1884:	84 f3 cd 06 	xor gr15 gr15 gr13
    1888:	84 c3 0f 00 	add gr12 gr12 gr15
    188c:	80 00 00 00 	nop
    1890:	80 a0 00 0f 	movc2g gr10
    1894:	94 a0 16 65 	movigl gr10 166 <.L0 +0x16>
    1898:	94 a0 00 01 	movigh gr10 0 <_cla_int_entry_group0_0>
    189c:	95 a4 01 15 	movigl gr26 4011 <.L0 +0x7>
    18a0:	95 a0 00 01 	movigh gr26 0 <_cla_int_entry_group0_0>
    18a4:	80 06 80 0b 	movg2c gr26
    18a8:	84 c3 1a 00 	add gr12 gr12 gr26
    18ac:	84 d3 4a 06 	xor gr13 gr13 gr10
    18b0:	84 e3 8c 00 	add gr14 gr14 gr12
    18b4:	84 f3 cd 06 	xor gr15 gr15 gr13
    18b8:	84 c3 0f 00 	add gr12 gr12 gr15
    18bc:	80 00 00 00 	nop
    18c0:	80 b0 00 0f 	movc2g gr11
    18c4:	94 b0 16 75 	movigl gr11 167 <.L0 +0x17>
    18c8:	94 b0 00 01 	movigh gr11 0 <_cla_int_entry_group0_0>
    18cc:	95 b4 00 15 	movigl gr27 4001 <.L0 +0x12>
    18d0:	95 b0 00 01 	movigh gr27 0 <_cla_int_entry_group0_0>
    18d4:	80 06 c0 0b 	movg2c gr27
    18d8:	84 c3 1b 00 	add gr12 gr12 gr27
    18dc:	84 d3 4b 06 	xor gr13 gr13 gr11
    18e0:	84 e3 8c 00 	add gr14 gr14 gr12
    18e4:	84 f3 cd 06 	xor gr15 gr15 gr13
    18e8:	84 c3 0f 00 	add gr12 gr12 gr15
    18ec:	80 00 00 00 	nop
    18f0:	80 40 00 0f 	movc2g gr4
    18f4:	94 40 16 85 	movigl gr4 168 <.L0 >
    18f8:	94 40 00 01 	movigh gr4 0 <_cla_int_entry_group0_0>
    18fc:	95 44 00 15 	movigl gr20 4001 <.L0 +0x12>
    1900:	95 40 00 01 	movigh gr20 0 <_cla_int_entry_group0_0>
    1904:	80 05 00 0b 	movg2c gr20
    1908:	84 c3 14 00 	add gr12 gr12 gr20
    190c:	84 d3 44 06 	xor gr13 gr13 gr4
    1910:	84 e3 8c 00 	add gr14 gr14 gr12
    1914:	84 f3 cd 06 	xor gr15 gr15 gr13
    1918:	84 c3 0f 00 	add gr12 gr12 gr15
    191c:	80 00 00 00 	nop
    1920:	80 50 00 0f 	movc2g gr5
    1924:	94 50 16 95 	movigl gr5 169 <.L0 +0x1>
    1928:	94 50 00 01 	movigh gr5 0 <_cla_int_entry_group0_0>
    192c:	95 54 01 15 	movigl gr21 4011 <.L0 +0x7>
    1930:	95 50 00 01 	movigh gr21 0 <_cla_int_entry_group0_0>
    1934:	80 05 40 0b 	movg2c gr21
    1938:	84 c3 15 00 	add gr12 gr12 gr21
    193c:	84 d3 45 06 	xor gr13 gr13 gr5
    1940:	84 e3 8c 00 	add gr14 gr14 gr12
    1944:	84 f3 cd 06 	xor gr15 gr15 gr13
    1948:	84 c3 0f 00 	add gr12 gr12 gr15
    194c:	80 00 00 00 	nop
    1950:	80 60 00 0f 	movc2g gr6
    1954:	94 60 16 a5 	movigl gr6 16a <.L0 +0x2>
    1958:	94 60 00 01 	movigh gr6 0 <_cla_int_entry_group0_0>
    195c:	95 64 00 15 	movigl gr22 4001 <.L0 +0x12>
    1960:	95 60 00 01 	movigh gr22 0 <_cla_int_entry_group0_0>
    1964:	80 05 80 0b 	movg2c gr22
    1968:	84 c3 16 00 	add gr12 gr12 gr22
    196c:	84 d3 46 06 	xor gr13 gr13 gr6
    1970:	84 e3 8c 00 	add gr14 gr14 gr12
    1974:	84 f3 cd 06 	xor gr15 gr15 gr13
    1978:	84 c3 0f 00 	add gr12 gr12 gr15
    197c:	80 00 00 00 	nop
    1980:	80 70 00 0f 	movc2g gr7
    1984:	94 70 16 b5 	movigl gr7 16b <.L0 +0x3>
    1988:	94 70 00 01 	movigh gr7 0 <_cla_int_entry_group0_0>
    198c:	95 74 00 15 	movigl gr23 4001 <.L0 +0x12>
    1990:	95 70 00 01 	movigh gr23 0 <_cla_int_entry_group0_0>
    1994:	80 05 c0 0b 	movg2c gr23
    1998:	84 c3 17 00 	add gr12 gr12 gr23
    199c:	84 d3 47 06 	xor gr13 gr13 gr7
    19a0:	84 e3 8c 00 	add gr14 gr14 gr12
    19a4:	84 f3 cd 06 	xor gr15 gr15 gr13
    19a8:	84 c3 0f 00 	add gr12 gr12 gr15
    19ac:	80 00 00 00 	nop
    19b0:	80 80 00 0f 	movc2g gr8
    19b4:	94 80 16 c5 	movigl gr8 16c <.L0 +0x4>
    19b8:	94 80 00 01 	movigh gr8 0 <_cla_int_entry_group0_0>
    19bc:	95 84 01 15 	movigl gr24 4011 <.L0 +0x7>
    19c0:	95 80 00 01 	movigh gr24 0 <_cla_int_entry_group0_0>
    19c4:	80 06 00 0b 	movg2c gr24
    19c8:	84 c3 18 00 	add gr12 gr12 gr24
    19cc:	84 d3 48 06 	xor gr13 gr13 gr8
    19d0:	84 e3 8c 00 	add gr14 gr14 gr12
    19d4:	84 f3 cd 06 	xor gr15 gr15 gr13
    19d8:	84 c3 0f 00 	add gr12 gr12 gr15
    19dc:	80 00 00 00 	nop
    19e0:	80 90 00 0f 	movc2g gr9
    19e4:	94 90 16 d5 	movigl gr9 16d <.L0 +0x5>
    19e8:	94 90 00 01 	movigh gr9 0 <_cla_int_entry_group0_0>
    19ec:	95 94 00 15 	movigl gr25 4001 <.L0 +0x12>
    19f0:	95 90 00 01 	movigh gr25 0 <_cla_int_entry_group0_0>
    19f4:	80 06 40 0b 	movg2c gr25
    19f8:	84 c3 19 00 	add gr12 gr12 gr25
    19fc:	84 d3 49 06 	xor gr13 gr13 gr9
    1a00:	84 e3 8c 00 	add gr14 gr14 gr12
    1a04:	84 f3 cd 06 	xor gr15 gr15 gr13
    1a08:	84 c3 0f 00 	add gr12 gr12 gr15
    1a0c:	80 00 00 00 	nop
    1a10:	80 a0 00 0f 	movc2g gr10
    1a14:	94 a0 16 e5 	movigl gr10 16e <.L0 +0x6>
    1a18:	94 a0 00 01 	movigh gr10 0 <_cla_int_entry_group0_0>
    1a1c:	95 a4 00 15 	movigl gr26 4001 <.L0 +0x12>
    1a20:	95 a0 00 01 	movigh gr26 0 <_cla_int_entry_group0_0>
    1a24:	80 06 80 0b 	movg2c gr26
    1a28:	84 c3 1a 00 	add gr12 gr12 gr26
    1a2c:	84 d3 4a 06 	xor gr13 gr13 gr10
    1a30:	84 e3 8c 00 	add gr14 gr14 gr12
    1a34:	84 f3 cd 06 	xor gr15 gr15 gr13
    1a38:	84 c3 0f 00 	add gr12 gr12 gr15
    1a3c:	80 00 00 00 	nop
    1a40:	80 b0 00 0f 	movc2g gr11
    1a44:	94 b0 16 f5 	movigl gr11 16f <.L0 +0x7>
    1a48:	94 b0 00 01 	movigh gr11 0 <_cla_int_entry_group0_0>
    1a4c:	95 b4 01 15 	movigl gr27 4011 <.L0 +0x7>
    1a50:	95 b0 00 01 	movigh gr27 0 <_cla_int_entry_group0_0>
    1a54:	80 06 c0 0b 	movg2c gr27
    1a58:	84 c3 1b 00 	add gr12 gr12 gr27
    1a5c:	84 d3 4b 06 	xor gr13 gr13 gr11
    1a60:	84 e3 8c 00 	add gr14 gr14 gr12
    1a64:	84 f3 cd 06 	xor gr15 gr15 gr13
    1a68:	84 c3 0f 00 	add gr12 gr12 gr15
    1a6c:	80 00 00 00 	nop
    1a70:	80 40 00 0f 	movc2g gr4
    1a74:	94 40 17 05 	movigl gr4 170 <.L0 >
    1a78:	94 40 00 01 	movigh gr4 0 <_cla_int_entry_group0_0>
    1a7c:	95 44 00 15 	movigl gr20 4001 <.L0 +0x12>
    1a80:	95 40 00 01 	movigh gr20 0 <_cla_int_entry_group0_0>
    1a84:	80 05 00 0b 	movg2c gr20
    1a88:	84 c3 14 00 	add gr12 gr12 gr20
    1a8c:	84 d3 44 06 	xor gr13 gr13 gr4
    1a90:	84 e3 8c 00 	add gr14 gr14 gr12
    1a94:	84 f3 cd 06 	xor gr15 gr15 gr13
    1a98:	84 c3 0f 00 	add gr12 gr12 gr15
    1a9c:	80 00 00 00 	nop
    1aa0:	80 50 00 0f 	movc2g gr5
    1aa4:	94 50 17 15 	movigl gr5 171 <.L0 +0x1>
    1aa8:	94 50 00 01 	movigh gr5 0 <_cla_int_entry_group0_0>
    1aac:	95 54 00 15 	movigl gr21 4001 <.L0 +0x12>
    1ab0:	95 50 00 01 	movigh gr21 0 <_cla_int_entry_group0_0>
    1ab4:	80 05 40 0b 	movg2c gr21
    1ab8:	84 c3 15 00 	add gr12 gr12 gr21
    1abc:	84 d3 45 06 	xor gr13 gr13 gr5
    1ac0:	84 e3 8c 00 	add gr14 gr14 gr12
    1ac4:	84 f3 cd 06 	xor gr15 gr15 gr13
    1ac8:	84 c3 0f 00 	add gr12 gr12 gr15
    1acc:	80 00 00 00 	nop
    1ad0:	80 60 00 0f 	movc2g gr6
    1ad4:	94 60 17 25 	movigl gr6 172 <.L0 +0x2>
    1ad8:	94 60 00 01 	movigh gr6 0 <_cla_int_entry_group0_0>
    1adc:	95 64 01 15 	movigl gr22 4011 <.L0 +0x7>
    1ae0:	95 60 00 01 	movigh gr22 0 <_cla_int_entry_group0_0>
    1ae4:	80 05 80 0b 	movg2c gr22
    1ae8:	84 c3 16 00 	add gr12 gr12 gr22
    1aec:	84 d3 46 06 	xor gr13 gr13 gr6
    1af0:	84 e3 8c 00 	add gr14 gr14 gr12
    1af4:	84 f3 cd 06 	xor gr15 gr15 gr13
    1af8:	84 c3 0f 00 	add gr12 gr12 gr15
    1afc:	80 00 00 00 	nop
    1b00:	80 70 00 0f 	movc2g gr7
    1b04:	94 70 17 35 	movigl gr7 173 <.L0 +0x3>
    1b08:	94 70 00 01 	movigh gr7 0 <_cla_int_entry_group0_0>
    1b0c:	95 74 00 15 	movigl gr23 4001 <.L0 +0x12>
    1b10:	95 70 00 01 	movigh gr23 0 <_cla_int_entry_group0_0>
    1b14:	80 05 c0 0b 	movg2c gr23
    1b18:	84 c3 17 00 	add gr12 gr12 gr23
    1b1c:	84 d3 47 06 	xor gr13 gr13 gr7
    1b20:	84 e3 8c 00 	add gr14 gr14 gr12
    1b24:	84 f3 cd 06 	xor gr15 gr15 gr13
    1b28:	84 c3 0f 00 	add gr12 gr12 gr15
    1b2c:	80 00 00 00 	nop
    1b30:	80 80 00 0f 	movc2g gr8
    1b34:	94 80 17 45 	movigl gr8 174 <.L0 +0x4>
    1b38:	94 80 00 01 	movigh gr8 0 <_cla_int_entry_group0_0>
    1b3c:	95 84 00 15 	movigl gr24 4001 <.L0 +0x12>
    1b40:	95 80 00 01 	movigh gr24 0 <_cla_int_entry_group0_0>
    1b44:	80 06 00 0b 	movg2c gr24
    1b48:	84 c3 18 00 	add gr12 gr12 gr24
    1b4c:	84 d3 48 06 	xor gr13 gr13 gr8
    1b50:	84 e3 8c 00 	add gr14 gr14 gr12
    1b54:	84 f3 cd 06 	xor gr15 gr15 gr13
    1b58:	84 c3 0f 00 	add gr12 gr12 gr15
    1b5c:	80 00 00 00 	nop
    1b60:	80 90 00 0f 	movc2g gr9
    1b64:	94 90 17 55 	movigl gr9 175 <.L0 +0x5>
    1b68:	94 90 00 01 	movigh gr9 0 <_cla_int_entry_group0_0>
    1b6c:	95 94 01 15 	movigl gr25 4011 <.L0 +0x7>
    1b70:	95 90 00 01 	movigh gr25 0 <_cla_int_entry_group0_0>
    1b74:	80 06 40 0b 	movg2c gr25
    1b78:	84 c3 19 00 	add gr12 gr12 gr25
    1b7c:	84 d3 49 06 	xor gr13 gr13 gr9
    1b80:	84 e3 8c 00 	add gr14 gr14 gr12
    1b84:	84 f3 cd 06 	xor gr15 gr15 gr13
    1b88:	84 c3 0f 00 	add gr12 gr12 gr15
    1b8c:	80 00 00 00 	nop
    1b90:	80 a0 00 0f 	movc2g gr10
    1b94:	94 a0 17 65 	movigl gr10 176 <.L0 >
    1b98:	94 a0 00 01 	movigh gr10 0 <_cla_int_entry_group0_0>
    1b9c:	95 a4 00 15 	movigl gr26 4001 <.L0 +0x12>
    1ba0:	95 a0 00 01 	movigh gr26 0 <_cla_int_entry_group0_0>
    1ba4:	80 06 80 0b 	movg2c gr26
    1ba8:	84 c3 1a 00 	add gr12 gr12 gr26
    1bac:	84 d3 4a 06 	xor gr13 gr13 gr10
    1bb0:	84 e3 8c 00 	add gr14 gr14 gr12
    1bb4:	84 f3 cd 06 	xor gr15 gr15 gr13
    1bb8:	84 c3 0f 00 	add gr12 gr12 gr15
    1bbc:	80 00 00 00 	nop
    1bc0:	80 b0 00 0f 	movc2g gr11
    1bc4:	94 b0 17 75 	movigl gr11 177 <.L0 +0x1>
    1bc8:	94 b0 00 01 	movigh gr11 0 <_cla_int_entry_group0_0>
    1bcc:	95 b4 00 15 	movigl gr27 4001 <.L0 +0x12>
    1bd0:	95 b0 00 01 	movigh gr27 0 <_cla_int_entry_group0_0>
    1bd4:	80 06 c0 0b 	movg2c gr27
    1bd8:	84 c3 1b 00 	add gr12 gr12 gr27
    1bdc:	84 d3 4b 06 	xor gr13 gr13 gr11
    1be0:	84 e3 8c 00 	add gr14 gr14 gr12
    1be4:	84 f3 cd 06 	xor gr15 gr15 gr13
    1be8:	84 c3 0f 00 	add gr12 gr12 gr15
    1bec:	80 00 00 00 	nop
    1bf0:	80 40 00 0f 	movc2g gr4
    1bf4:	94 40 17 85 	movigl gr4 178 <.L0 >
    1bf8:	94 40 00 01 	movigh gr4 0 <_cla_int_entry_group0_0>
    1bfc:	95 44 01 15 	movigl gr20 4011 <.L0 +0x7>
    1c00:	95 40 00 01 	movigh gr20 0 <_cla_int_entry_group0_0>
    1c04:	80 05 00 0b 	movg2c gr20
    1c08:	84 c3 14 00 	add gr12 gr12 gr20
    1c0c:	84 d3 44 06 	xor gr13 gr13 gr4
    1c10:	84 e3 8c 00 	add gr14 gr14 gr12
    1c14:	84 f3 cd 06 	xor gr15 gr15 gr13
    1c18:	84 c3 0f 00 	add gr12 gr12 gr15
    1c1c:	80 00 00 00 	nop
    1c20:	80 50 00 0f 	movc2g gr5
    1c24:	94 50 17 95 	movigl gr5 179 <.L0 +0x1>
    1c28:	94 50 00 01 	movigh gr5 0 <_cla_int_entry_group0_0>
    1c2c:	95 54 00 15 	movigl gr21 4001 <.L0 +0x12>
    1c30:	95 50 00 01 	movigh gr21 0 <_cla_int_entry_group0_0>
    1c34:	80 05 40 0b 	movg2c gr21
    1c38:	84 c3 15 00 	add gr12 gr12 gr21
    1c3c:	84 d3 45 06 	xor gr13 gr13 gr5
    1c40:	84 e3 8c 00 	add gr14 gr14 gr12
    1c44:	84 f3 cd 06 	xor gr15 gr15 gr13
    1c48:	84 c3 0f 00 	add gr12 gr12 gr15
    1c4c:	80 00 00 00 	nop
    1c50:	80 60 00 0f 	movc2g gr6
    1c54:	94 60 17 a5 	movigl gr6 17a <.L0 +0x2>
    1c58:	94 60 00 01 	movigh gr6 0 <_cla_int_entry_group0_0>
    1c5c:	95 64 00 15 	movigl gr22 4001 <.L0 +0x12>
    1c60:	95 60 00 01 	movigh gr22 0 <_cla_int_entry_group0_0>
    1c64:	80 05 80 0b 	movg2c gr22
    1c68:	84 c3 16 00 	add gr12 gr12 gr22
    1c6c:	84 d3 46 06 	xor gr13 gr13 gr6
    1c70:	84 e3 8c 00 	add gr14 gr14 gr12
    1c74:	84 f3 cd 06 	xor gr15 gr15 gr13
    1c78:	84 c3 0f 00 	add gr12 gr12 gr15
    1c7c:	80 00 00 00 	nop
    1c80:	80 70 00 0f 	movc2g gr7
    1c84:	94 70 17 b5 	movigl gr7 17b <.L0 +0x3>
    1c88:	94 70 00 01 	movigh gr7 0 <_cla_int_entry_group0_0>
    1c8c:	95 74 01 15 	movigl gr23 4011 <.L0 +0x7>
    1c90:	95 70 00 01 	movigh gr23 0 <_cla_int_entry_group0_0>
    1c94:	80 05 c0 0b 	movg2c gr23
    1c98:	84 c3 17 00 	add gr12 gr12 gr23
    1c9c:	84 d3 47 06 	xor gr13 gr13 gr7
    1ca0:	84 e3 8c 00 	add gr14 gr14 gr12
    1ca4:	84 f3 cd 06 	xor gr15 gr15 gr13
    1ca8:	84 c3 0f 00 	add gr12 gr12 gr15
    1cac:	80 00 00 00 	nop
    1cb0:	80 80 00 0f 	movc2g gr8
    1cb4:	94 80 17 c5 	movigl gr8 17c <.L0 +0x4>
    1cb8:	94 80 00 01 	movigh gr8 0 <_cla_int_entry_group0_0>
    1cbc:	95 84 00 15 	movigl gr24 4001 <.L0 +0x12>
    1cc0:	95 80 00 01 	movigh gr24 0 <_cla_int_entry_group0_0>
    1cc4:	80 06 00 0b 	movg2c gr24
    1cc8:	84 c3 18 00 	add gr12 gr12 gr24
    1ccc:	84 d3 48 06 	xor gr13 gr13 gr8
    1cd0:	84 e3 8c 00 	add gr14 gr14 gr12
    1cd4:	84 f3 cd 06 	xor gr15 gr15 gr13
    1cd8:	84 c3 0f 00 	add gr12 gr12 gr15
    1cdc:	80 00 00 00 	nop
    1ce0:	80 90 00 0f 	movc2g gr9
    1ce4:	94 90 17 d5 	movigl gr9 17d <.L0 +0x5>
    1ce8:	94 90 00 01 	movigh gr9 0 <_cla_int_entry_group0_0>
    1cec:	95 94 00 15 	movigl gr25 4001 <.L0 +0x12>
    1cf0:	95 90 00 01 	movigh gr25 0 <_cla_int_entry_group0_0>
    1cf4:	80 06 40 0b 	movg2c gr25
    1cf8:	84 c3 19 00 	add gr12 gr12 gr25
    1cfc:	84 d3 49 06 	xor gr13 gr13 gr9
    1d00:	84 e3 8c 00 	add gr14 gr14 gr12
    1d04:	84 f3 cd 06 	xor gr15 gr15 gr13
    1d08:	84 c3 0f 00 	add gr12 gr12 gr15
    1d0c:	80 00 00 00 	nop
    1d10:	80 a0 00 0f 	movc2g gr10
    1d14:	94 a0 17 e5 	movigl gr10 17e <.L0 +0x6>
    1d18:	94 a0 00 01 	movigh gr10 0 <_cla_int_entry_group0_0>
    1d1c:	95 a4 01 15 	movigl gr26 4011 <.L0 +0x7>
    1d20:	95 a0 00 01 	movigh gr26 0 <_cla_int_entry_group0_0>
    1d24:	80 06 80 0b 	movg2c gr26
    1d28:	84 c3 1a 00 	add gr12 gr12 gr26
    1d2c:	84 d3 4a 06 	xor gr13 gr13 gr10
    1d30:	84 e3 8c 00 	add gr14 gr14 gr12
    1d34:	84 f3 cd 06 	xor gr15 gr15 gr13
    1d38:	84 c3 0f 00 	add gr12 gr12 gr15
    1d3c:	80 00 00 00 	nop
    1d40:	80 b0 00 0f 	movc2g gr11
    1d44:	94 b0 17 f5 	movigl gr11 17f <.L0 +0x7>
    1d48:	94 b0 00 01 	movigh gr11 0 <_cla_int_entry_group0_0>
    1d4c:	95 b4 00 15 	movigl gr27 4001 <.L0 +0x12>
    1d50:	95 b0 00 01 	movigh gr27 0 <_cla_int_entry_group0_0>
    1d54:	80 06 c0 0b 	movg2c gr27
    1d58:	84 c3 1b 00 	add gr12 gr12 gr27
    1d5c:	84 d3 4b 06 	xor gr13 gr13 gr11
    1d60:	84 e3 8c 00 	add gr14 gr14 gr12
    1d64:	84 f3 cd 06 	xor gr15 gr15 gr13
    1d68:	84 c3 0f 00 	add gr12 gr12 gr15
    1d6c:	80 00 00 00 	nop
    1d70:	80 40 00 0f 	movc2g gr4
    1d74:	94 40 18 05 	movigl gr4 180 <.L0 +0x8>
    1d78:	94 40 00 01 	movigh gr4 0 <_cla_int_entry_group0_0>
    1d7c:	95 44 00 15 	movigl gr20 4001 <.L0 +0x12>
    1d80:	95 40 00 01 	movigh gr20 0 <_cla_int_entry_group0_0>
    1d84:	80 05 00 0b 	movg2c gr20
    1d88:	84 c3 14 00 	add gr12 gr12 gr20
    1d8c:	84 d3 44 06 	xor gr13 gr13 gr4
    1d90:	84 e3 8c 00 	add gr14 gr14 gr12
    1d94:	84 f3 cd 06 	xor gr15 gr15 gr13
    1d98:	84 c3 0f 00 	add gr12 gr12 gr15
    1d9c:	80 00 00 00 	nop
    1da0:	80 50 00 0f 	movc2g gr5
    1da4:	94 50 18 15 	movigl gr5 181 <.L0 +0x9>
    1da8:	94 50 00 01 	movigh gr5 0 <_cla_int_entry_group0_0>
    1dac:	95 54 01 15 	movigl gr21 4011 <.L0 +0x7>
    1db0:	95 50 00 01 	movigh gr21 0 <_cla_int_entry_group0_0>
    1db4:	80 05 40 0b 	movg2c gr21
    1db8:	84 c3 15 00 	add gr12 gr12 gr21
    1dbc:	84 d3 45 06 	xor gr13 gr13 gr5
    1dc0:	84 e3 8c 00 	add gr14 gr14 gr12
    1dc4:	84 f3 cd 06 	xor gr15 gr15 gr13
    1dc8:	84 c3 0f 00 	add gr12 gr12 gr15
    1dcc:	80 00 00 00 	nop
    1dd0:	80 60 00 0f 	movc2g gr6
    1dd4:	94 60 18 25 	movigl gr6 182 <.L0 +0xa>
    1dd8:	94 60 00 01 	movigh gr6 0 <_cla_int_entry_group0_0>
    1ddc:	95 64 00 15 	movigl gr22 4001 <.L0 +0x12>
    1de0:	95 60 00 01 	movigh gr22 0 <_cla_int_entry_group0_0>
    1de4:	80 05 80 0b 	movg2c gr22
    1de8:	84 c3 16 00 	add gr12 gr12 gr22
    1dec:	84 d3 46 06 	xor gr13 gr13 gr6
    1df0:	84 e3 8c 00 	add gr14 gr14 gr12
    1df4:	84 f3 cd 06 	xor gr15 gr15 gr13
    1df8:	84 c3 0f 00 	add gr12 gr12 gr15
    1dfc:	80 00 00 00 	nop
    1e00:	80 70 00 0f 	movc2g gr7
    1e04:	94 70 18 35 	movigl gr7 183 <.L0 +0xb>
    1e08:	94 70 00 01 	movigh gr7 0 <_cla_int_entry_group0_0>
    1e0c:	95 74 00 15 	movigl gr23 4001 <.L0 +0x12>
    1e10:	95 70 00 01 	movigh gr23 0 <_cla_int_entry_group0_0>
    1e14:	80 05 c0 0b 	movg2c gr23
    1e18:	84 c3 17 00 	add gr12 gr12 gr23
    1e1c:	84 d3 47 06 	xor gr13 gr13 gr7
    1e20:	84 e3 8c 00 	add gr14 gr14 gr12
    1e24:	84 f3 cd 06 	xor gr15 gr15 gr13
    1e28:	84 c3 0f 00 	add gr12 gr12 gr15
    1e2c:	80 00 00 00 	nop
    1e30:	80 80 00 0f 	movc2g gr8
    1e34:	94 80 18 45 	movigl gr8 184 <.L0 +0xc>
    1e38:	94 80 00 01 	movigh gr8 0 <_cla_int_entry_group0_0>
    1e3c:	95 84 01 15 	movigl gr24 4011 <.L0 +0x7>
    1e40:	95 80 00 01 	movigh gr24 0 <_cla_int_entry_group0_0>
    1e44:	80 06 00 0b 	movg2c gr24
    1e48:	84 c3 18 00 	add gr12 gr12 gr24
    1e4c:	84 d3 48 06 	xor gr13 gr13 gr8
    1e50:	84 e3 8c 00 	add gr14 gr14 gr12
    1e54:	84 f3 cd 06 	xor gr15 gr15 gr13
    1e58:	84 c3 0f 00 	add gr12 gr12 gr15
    1e5c:	80 00 00 00 	nop
    1e60:	80 90 00 0f 	movc2g gr9
    1e64:	94 90 18 55 	movigl gr9 185 <.L0 +0xd>
    1e68:	94 90 00 01 	movigh gr9 0 <_cla_int_entry_group0_0>
    1e6c:	95 94 00 15 	movigl gr25 4001 <.L0 +0x12>
    1e70:	95 90 00 01 	movigh gr25 0 <_cla_int_entry_group0_0>
    1e74:	80 06 40 0b 	movg2c gr25
    1e78:	84 c3 19 00 	add gr12 gr12 gr25
    1e7c:	84 d3 49 06 	xor gr13 gr13 gr9
    1e80:	84 e3 8c 00 	add gr14 gr14 gr12
    1e84:	84 f3 cd 06 	xor gr15 gr15 gr13
    1e88:	84 c3 0f 00 	add gr12 gr12 gr15
    1e8c:	80 00 00 00 	nop
    1e90:	80 a0 00 0f 	movc2g gr10
    1e94:	94 a0 18 65 	movigl gr10 186 <.L0 +0xe>
    1e98:	94 a0 00 01 	movigh gr10 0 <_cla_int_entry_group0_0>
    1e9c:	95 a4 00 15 	movigl gr26 4001 <.L0 +0x12>
    1ea0:	95 a0 00 01 	movigh gr26 0 <_cla_int_entry_group0_0>
    1ea4:	80 06 80 0b 	movg2c gr26
    1ea8:	84 c3 1a 00 	add gr12 gr12 gr26
    1eac:	84 d3 4a 06 	xor gr13 gr13 gr10
    1eb0:	84 e3 8c 00 	add gr14 gr14 gr12
    1eb4:	84 f3 cd 06 	xor gr15 gr15 gr13
    1eb8:	84 c3 0f 00 	add gr12 gr12 gr15
    1ebc:	80 00 00 00 	nop
    1ec0:	80 b0 00 0f 	movc2g gr11
    1ec4:	94 b0 18 75 	movigl gr11 187 <.L0 +0xf>
    1ec8:	94 b0 00 01 	movigh gr11 0 <_cla_int_entry_group0_0>
    1ecc:	95 b4 01 15 	movigl gr27 4011 <.L0 +0x7>
    1ed0:	95 b0 00 01 	movigh gr27 0 <_cla_int_entry_group0_0>
    1ed4:	80 06 c0 0b 	movg2c gr27
    1ed8:	84 c3 1b 00 	add gr12 gr12 gr27
    1edc:	84 d3 4b 06 	xor gr13 gr13 gr11
    1ee0:	84 e3 8c 00 	add gr14 gr14 gr12
    1ee4:	84 f3 cd 06 	xor gr15 gr15 gr13
    1ee8:	84 c3 0f 00 	add gr12 gr12 gr15
    1eec:	80 00 00 00 	nop
    1ef0:	80 40 00 0f 	movc2g gr4
    1ef4:	94 40 18 85 	movigl gr4 188 <.L0 +0x10>
    1ef8:	94 40 00 01 	movigh gr4 0 <_cla_int_entry_group0_0>
    1efc:	95 44 00 15 	movigl gr20 4001 <.L0 +0x12>
    1f00:	95 40 00 01 	movigh gr20 0 <_cla_int_entry_group0_0>
    1f04:	80 05 00 0b 	movg2c gr20
    1f08:	84 c3 14 00 	add gr12 gr12 gr20
    1f0c:	84 d3 44 06 	xor gr13 gr13 gr4
    1f10:	84 e3 8c 00 	add gr14 gr14 gr12
    1f14:	84 f3 cd 06 	xor gr15 gr15 gr13
    1f18:	84 c3 0f 00 	add gr12 gr12 gr15
    1f1c:	80 00 00 00 	nop
    1f20:	80 50 00 0f 	movc2g gr5
    1f24:	94 50 18 95 	movigl gr5 189 <.L0 +0x11>
    1f28:	94 50 00 01 	movigh gr5 0 <_cla_int_entry_group0_0>
    1f2c:	95 54 00 15 	movigl gr21 4001 <.L0 +0x12>
    1f30:	95 50 00 01 	movigh gr21 0 <_cla_int_entry_group0_0>
    1f34:	80 05 40 0b 	movg2c gr21
    1f38:	84 c3 15 00 	add gr12 gr12 gr21
    1f3c:	84 d3 45 06 	xor gr13 gr13 gr5
    1f40:	84 e3 8c 00 	add gr14 gr14 gr12
    1f44:	84 f3 cd 06 	xor gr15 gr15 gr13
    1f48:	84 c3 0f 00 	add gr12 gr12 gr15
    1f4c:	80 00 00 00 	nop
    1f50:	80 60 00 0f 	movc2g gr6
    1f54:	94 60 18 a5 	movigl gr6 18a <.L0 +0x12>
    1f58:	94 60 00 01 	movigh gr6 0 <_cla_int_entry_group0_0>
    1f5c:	95 64 01 15 	movigl gr22 4011 <.L0 +0x7>
    1f60:	95 60 00 01 	movigh gr22 0 <_cla_int_entry_group0_0>
    1f64:	80 05 80 0b 	movg2c gr22
    1f68:	84 c3 16 00 	add gr12 gr12 gr22
    1f6c:	84 d3 46 06 	xor gr13 gr13 gr6
    1f70:	84 e3 8c 00 	add gr14 gr14 gr12
    1f74:	84 f3 cd 06 	xor gr15 gr15 gr13
    1f78:	84 c3 0f 00 	add gr12 gr12 gr15
    1f7c:	80 00 00 00 	nop
    1f80:	80 70 00 0f 	movc2g gr7
    1f84:	94 70 18 b5 	movigl gr7 18b <.L0 +0x13>
    1f88:	94 70 00 01 	movigh gr7 0 <_cla_int_entry_group0_0>
    1f8c:	95 74 00 15 	movigl gr23 4001 <.L0 +0x12>
    1f90:	95 70 00 01 	movigh gr23 0 <_cla_int_entry_group0_0>
    1f94:	80 05 c0 0b 	movg2c gr23
    1f98:	84 c3 17 00 	add gr12 gr12 gr23
    1f9c:	84 d3 47 06 	xor gr13 gr13 gr7
    1fa0:	84 e3 8c 00 	add gr14 gr14 gr12
    1fa4:	84 f3 cd 06 	xor gr15 gr15 gr13
    1fa8:	84 c3 0f 00 	add gr12 gr12 gr15
    1fac:	80 00 00 00 	nop
    1fb0:	80 80 00 0f 	movc2g gr8
    1fb4:	94 80 18 c5 	movigl gr8 18c <.L0 +0x14>
    1fb8:	94 80 00 01 	movigh gr8 0 <_cla_int_entry_group0_0>
    1fbc:	95 84 00 15 	movigl gr24 4001 <.L0 +0x12>
    1fc0:	95 80 00 01 	movigh gr24 0 <_cla_int_entry_group0_0>
    1fc4:	80 06 00 0b 	movg2c gr24
    1fc8:	84 c3 18 00 	add gr12 gr12 gr24
    1fcc:	84 d3 48 06 	xor gr13 gr13 gr8
    1fd0:	84 e3 8c 00 	add gr14 gr14 gr12
    1fd4:	84 f3 cd 06 	xor gr15 gr15 gr13
    1fd8:	84 c3 0f 00 	add gr12 gr12 gr15
    1fdc:	80 00 00 00 	nop
    1fe0:	80 90 00 0f 	movc2g gr9
    1fe4:	94 90 18 d5 	movigl gr9 18d <.L0 +0x15>
    1fe8:	94 90 00 01 	movigh gr9 0 <_cla_int_entry_group0_0>
    1fec:	95 94 01 15 	movigl gr25 4011 <.L0 +0x7>
    1ff0:	95 90 00 01 	movigh gr25 0 <_cla_int_entry_group0_0>
    1ff4:	80 06 40 0b 	movg2c gr25
    1ff8:	84 c3 19 00 	add gr12 gr12 gr25
    1ffc:	84 d3 49 06 	xor gr13 gr13 gr9
    2000:	84 e3 8c 00 	add gr14 gr14 gr12
    2004:	84 f3 cd 06 	xor gr15 gr15 gr13
    2008:	84 c3 0f 00 	add gr12 gr12 gr15
    200c:	80 00 00 00 	nop
    2010:	80 a0 00 0f 	movc2g gr10
    2014:	94 a0 18 e5 	movigl gr10 18e <.L0 +0x16>
    2018:	94 a0 00 01 	movigh gr10 0 <_cla_int_entry_group0_0>
    201c:	95 a4 00 15 	movigl gr26 4001 <.L0 +0x12>
    2020:	95 a0 00 01 	movigh gr26 0 <_cla_int_entry_group0_0>
    2024:	80 06 80 0b 	movg2c gr26
    2028:	84 c3 1a 00 	add gr12 gr12 gr26
    202c:	84 d3 4a 06 	xor gr13 gr13 gr10
    2030:	84 e3 8c 00 	add gr14 gr14 gr12
    2034:	84 f3 cd 06 	xor gr15 gr15 gr13
    2038:	84 c3 0f 00 	add gr12 gr12 gr15
    203c:	80 00 00 00 	nop
    2040:	80 b0 00 0f 	movc2g gr11
    2044:	94 b0 18 f5 	movigl gr11 18f <.L0 +0x17>
    2048:	94 b0 00 01 	movigh gr11 0 <_cla_int_entry_group0_0>
    204c:	95 b4 00 15 	movigl gr27 4001 <.L0 +0x12>
    2050:	95 b0 00 01 	movigh gr27 0 <_cla_int_entry_group0_0>
    2054:	80 06 c0 0b 	movg2c gr27
    2058:	84 c3 1b 00 	add gr12 gr12 gr27
    205c:	84 d3 4b 06 	xor gr13 gr13 gr11
    2060:	84 e3 8c 00 	add gr14 gr14 gr12
    2064:	84 f3 cd 06 	xor gr15 gr15 gr13
    2068:	84 c3 0f 00 	add gr12 gr12 gr15
    206c:	80 00 00 00 	nop
    2070:	80 40 00 0f 	movc2g gr4
    2074:	94 40 19 05 	movigl gr4 190 <Cla1Task2>
    2078:	94 40 00 01 	movigh gr4 0 <_cla_int_entry_group0_0>
    207c:	95 44 01 15 	movigl gr20 4011 <.L0 +0x7>
    2080:	95 40 00 01 	movigh gr20 0 <_cla_int_entry_group0_0>
    2084:	80 05 00 0b 	movg2c gr20
    2088:	84 c3 14 00 	add gr12 gr12 gr20
    208c:	84 d3 44 06 	xor gr13 gr13 gr4
    2090:	84 e3 8c 00 	add gr14 gr14 gr12
    2094:	84 f3 cd 06 	xor gr15 gr15 gr13
    2098:	84 c3 0f 00 	add gr12 gr12 gr15
    209c:	80 00 00 00 	nop
    20a0:	80 50 00 0f 	movc2g gr5
    20a4:	94 50 19 15 	movigl gr5 191 <Cla1Task2+0x1>
    20a8:	94 50 00 01 	movigh gr5 0 <_cla_int_entry_group0_0>
    20ac:	95 54 00 15 	movigl gr21 4001 <.L0 +0x12>
    20b0:	95 50 00 01 	movigh gr21 0 <_cla_int_entry_group0_0>
    20b4:	80 05 40 0b 	movg2c gr21
    20b8:	84 c3 15 00 	add gr12 gr12 gr21
    20bc:	84 d3 45 06 	xor gr13 gr13 gr5
    20c0:	84 e3 8c 00 	add gr14 gr14 gr12
    20c4:	84 f3 cd 06 	xor gr15 gr15 gr13
    20c8:	84 c3 0f 00 	add gr12 gr12 gr15
    20cc:	80 00 00 00 	nop
    20d0:	80 60 00 0f 	movc2g gr6
    20d4:	94 60 19 25 	movigl gr6 192 <Cla1Task2+0x2>
    20d8:	94 60 00 01 	movigh gr6 0 <_cla_int_entry_group0_0>
    20dc:	95 64 00 15 	movigl gr22 4001 <.L0 +0x12>
    20e0:	95 60 00 01 	movigh gr22 0 <_cla_int_entry_group0_0>
    20e4:	80 05 80 0b 	movg2c gr22
    20e8:	84 c3 16 00 	add gr12 gr12 gr22
    20ec:	84 d3 46 06 	xor gr13 gr13 gr6
    20f0:	84 e3 8c 00 	add gr14 gr14 gr12
    20f4:	84 f3 cd 06 	xor gr15 gr15 gr13
    20f8:	84 c3 0f 00 	add gr12 gr12 gr15
    20fc:	80 00 00 00 	nop
    2100:	80 70 00 0f 	movc2g gr7
    2104:	94 70 19 35 	movigl gr7 193 <Cla1Task2+0x3>
    2108:	94 70 00 01 	movigh gr7 0 <_cla_int_entry_group0_0>
    210c:	95 74 01 15 	movigl gr23 4011 <.L0 +0x7>
    2110:	95 70 00 01 	movigh gr23 0 <_cla_int_entry_group0_0>
    2114:	80 05 c0 0b 	movg2c gr23
    2118:	84 c3 17 00 	add gr12 gr12 gr23
    211c:	84 d3 47 06 	xor gr13 gr13 gr7
    2120:	84 e3 8c 00 	add gr14 gr14 gr12
    2124:	84 f3 cd 06 	xor gr15 gr15 gr13
    2128:	84 c3 0f 00 	add gr12 gr12 gr15
    212c:	80 00 00 00 	nop
    2130:	80 80 00 0f 	movc2g gr8
    2134:	94 80 19 45 	movigl gr8 194 <Cla1Task2+0x4>
    2138:	94 80 00 01 	movigh gr8 0 <_cla_int_entry_group0_0>
    213c:	95 84 00 15 	movigl gr24 4001 <.L0 +0x12>
    2140:	95 80 00 01 	movigh gr24 0 <_cla_int_entry_group0_0>
    2144:	80 06 00 0b 	movg2c gr24
    2148:	84 c3 18 00 	add gr12 gr12 gr24
    214c:	84 d3 48 06 	xor gr13 gr13 gr8
    2150:	84 e3 8c 00 	add gr14 gr14 gr12
    2154:	84 f3 cd 06 	xor gr15 gr15 gr13
    2158:	84 c3 0f 00 	add gr12 gr12 gr15
    215c:	80 00 00 00 	nop
    2160:	80 90 00 0f 	movc2g gr9
    2164:	94 90 19 55 	movigl gr9 195 <Cla1Task2+0x5>
    2168:	94 90 00 01 	movigh gr9 0 <_cla_int_entry_group0_0>
    216c:	95 94 00 15 	movigl gr25 4001 <.L0 +0x12>
    2170:	95 90 00 01 	movigh gr25 0 <_cla_int_entry_group0_0>
    2174:	80 06 40 0b 	movg2c gr25
    2178:	84 c3 19 00 	add gr12 gr12 gr25
    217c:	84 d3 49 06 	xor gr13 gr13 gr9
    2180:	84 e3 8c 00 	add gr14 gr14 gr12
    2184:	84 f3 cd 06 	xor gr15 gr15 gr13
    2188:	84 c3 0f 00 	add gr12 gr12 gr15
    218c:	80 00 00 00 	nop
    2190:	80 a0 00 0f 	movc2g gr10
    2194:	94 a0 19 65 	movigl gr10 196 <Cla1Task2+0x6>
    2198:	94 a0 00 01 	movigh gr10 0 <_cla_int_entry_group0_0>
    219c:	95 a4 01 15 	movigl gr26 4011 <.L0 +0x7>
    21a0:	95 a0 00 01 	movigh gr26 0 <_cla_int_entry_group0_0>
    21a4:	80 06 80 0b 	movg2c gr26
    21a8:	84 c3 1a 00 	add gr12 gr12 gr26
    21ac:	84 d3 4a 06 	xor gr13 gr13 gr10
    21b0:	84 e3 8c 00 	add gr14 gr14 gr12
    21b4:	84 f3 cd 06 	xor gr15 gr15 gr13
    21b8:	84 c3 0f 00 	add gr12 gr12 gr15
    21bc:	80 00 00 00 	nop
    21c0:	80 b0 00 0f 	movc2g gr11
    21c4:	94 b0 19 75 	movigl gr11 197 <Cla1Task2+0x7>
    21c8:	94 b0 00 01 	movigh gr11 0 <_cla_int_entry_group0_0>
    21cc:	95 b4 00 15 	movigl gr27 4001 <.L0 +0x12>
    21d0:	95 b0 00 01 	movigh gr27 0 <_cla_int_entry_group0_0>
    21d4:	80 06 c0 0b 	movg2c gr27
    21d8:	84 c3 1b 00 	add gr12 gr12 gr27
    21dc:	84 d3 4b 06 	xor gr13 gr13 gr11
    21e0:	84 e3 8c 00 	add gr14 gr14 gr12
    21e4:	84 f3 cd 06 	xor gr15 gr15 gr13
    21e8:	84 c3 0f 00 	add gr12 gr12 gr15
    21ec:	80 00 00 00 	nop
    21f0:	80 40 00 0f 	movc2g gr4
    21f4:	94 40 19 85 	movigl gr4 198 <Cla1Task2+0x8>
    21f8:	94 40 00 01 	movigh gr4 0 <_cla_int_entry_group0_0>
    21fc:	95 44 00 15 	movigl gr20 4001 <.L0 +0x12>
    2200:	95 40 00 01 	movigh gr20 0 <_cla_int_entry_group0_0>
    2204:	80 05 00 0b 	movg2c gr20
    2208:	84 c3 14 00 	add gr12 gr12 gr20
    220c:	84 d3 44 06 	xor gr13 gr13 gr4
    2210:	84 e3 8c 00 	add gr14 gr14 gr12
    2214:	84 f3 cd 06 	xor gr15 gr15 gr13
    2218:	84 c3 0f 00 	add gr12 gr12 gr15
    221c:	80 00 00 00 	nop
    2220:	80 50 00 0f 	movc2g gr5
    2224:	94 50 19 95 	movigl gr5 199 <Cla1Task2+0x9>
    2228:	94 50 00 01 	movigh gr5 0 <_cla_int_entry_group0_0>
    222c:	95 54 01 15 	movigl gr21 4011 <.L0 +0x7>
    2230:	95 50 00 01 	movigh gr21 0 <_cla_int_entry_group0_0>
    2234:	80 05 40 0b 	movg2c gr21
    2238:	84 c3 15 00 	add gr12 gr12 gr21
    223c:	84 d3 45 06 	xor gr13 gr13 gr5
    2240:	84 e3 8c 00 	add gr14 gr14 gr12
    2244:	84 f3 cd 06 	xor gr15 gr15 gr13
    2248:	84 c3 0f 00 	add gr12 gr12 gr15
    224c:	80 00 00 00 	nop
    2250:	80 60 00 0f 	movc2g gr6
    2254:	94 60 19 a5 	movigl gr6 19a <Cla1Task2+0xa>
    2258:	94 60 00 01 	movigh gr6 0 <_cla_int_entry_group0_0>
    225c:	95 64 00 15 	movigl gr22 4001 <.L0 +0x12>
    2260:	95 60 00 01 	movigh gr22 0 <_cla_int_entry_group0_0>
    2264:	80 05 80 0b 	movg2c gr22
    2268:	84 c3 16 00 	add gr12 gr12 gr22
    226c:	84 d3 46 06 	xor gr13 gr13 gr6
    2270:	84 e3 8c 00 	add gr14 gr14 gr12
    2274:	84 f3 cd 06 	xor gr15 gr15 gr13
    2278:	84 c3 0f 00 	add gr12 gr12 gr15
    227c:	80 00 00 00 	nop
    2280:	80 70 00 0f 	movc2g gr7
    2284:	94 70 19 b5 	movigl gr7 19b <Cla1Task2+0xb>
    2288:	94 70 00 01 	movigh gr7 0 <_cla_int_entry_group0_0>
    228c:	95 74 00 15 	movigl gr23 4001 <.L0 +0x12>
    2290:	95 70 00 01 	movigh gr23 0 <_cla_int_entry_group0_0>
    2294:	80 05 c0 0b 	movg2c gr23
    2298:	84 c3 17 00 	add gr12 gr12 gr23
    229c:	84 d3 47 06 	xor gr13 gr13 gr7
    22a0:	84 e3 8c 00 	add gr14 gr14 gr12
    22a4:	84 f3 cd 06 	xor gr15 gr15 gr13
    22a8:	84 c3 0f 00 	add gr12 gr12 gr15
    22ac:	80 00 00 00 	nop
    22b0:	80 80 00 0f 	movc2g gr8
    22b4:	94 80 19 c5 	movigl gr8 19c <.L0 >
    22b8:	94 80 00 01 	movigh gr8 0 <_cla_int_entry_group0_0>
    22bc:	95 84 01 15 	movigl gr24 4011 <.L0 +0x7>
    22c0:	95 80 00 01 	movigh gr24 0 <_cla_int_entry_group0_0>
    22c4:	80 06 00 0b 	movg2c gr24
    22c8:	84 c3 18 00 	add gr12 gr12 gr24
    22cc:	84 d3 48 06 	xor gr13 gr13 gr8
    22d0:	84 e3 8c 00 	add gr14 gr14 gr12
    22d4:	84 f3 cd 06 	xor gr15 gr15 gr13
    22d8:	84 c3 0f 00 	add gr12 gr12 gr15
    22dc:	80 00 00 00 	nop
    22e0:	80 90 00 0f 	movc2g gr9
    22e4:	94 90 19 d5 	movigl gr9 19d <.L0 +0x1>
    22e8:	94 90 00 01 	movigh gr9 0 <_cla_int_entry_group0_0>
    22ec:	95 94 00 15 	movigl gr25 4001 <.L0 +0x12>
    22f0:	95 90 00 01 	movigh gr25 0 <_cla_int_entry_group0_0>
    22f4:	80 06 40 0b 	movg2c gr25
    22f8:	84 c3 19 00 	add gr12 gr12 gr25
    22fc:	84 d3 49 06 	xor gr13 gr13 gr9
    2300:	84 e3 8c 00 	add gr14 gr14 gr12
    2304:	84 f3 cd 06 	xor gr15 gr15 gr13
    2308:	84 c3 0f 00 	add gr12 gr12 gr15
    230c:	80 00 00 00 	nop
    2310:	80 a0 00 0f 	movc2g gr10
    2314:	94 a0 19 e5 	movigl gr10 19e <.L0 +0x2>
    2318:	94 a0 00 01 	movigh gr10 0 <_cla_int_entry_group0_0>
    231c:	95 a4 00 15 	movigl gr26 4001 <.L0 +0x12>
    2320:	95 a0 00 01 	movigh gr26 0 <_cla_int_entry_group0_0>
    2324:	80 06 80 0b 	movg2c gr26
    2328:	84 c3 1a 00 	add gr12 gr12 gr26
    232c:	84 d3 4a 06 	xor gr13 gr13 gr10
    2330:	84 e3 8c 00 	add gr14 gr14 gr12
    2334:	84 f3 cd 06 	xor gr15 gr15 gr13
    2338:	84 c3 0f 00 	add gr12 gr12 gr15
    233c:	80 00 00 00 	nop
    2340:	80 b0 00 0f 	movc2g gr11
    2344:	94 b0 19 f5 	movigl gr11 19f <.L0 +0x3>
    2348:	94 b0 00 01 	movigh gr11 0 <_cla_int_entry_group0_0>
    234c:	95 b4 01 15 	movigl gr27 4011 <.L0 +0x7>
    2350:	95 b0 00 01 	movigh gr27 0 <_cla_int_entry_group0_0>
    2354:	80 06 c0 0b 	movg2c gr27
    2358:	84 c3 1b 00 	add gr12 gr12 gr27
    235c:	84 d3 4b 06 	xor gr13 gr13 gr11
    2360:	84 e3 8c 00 	add gr14 gr14 gr12
    2364:	84 f3 cd 06 	xor gr15 gr15 gr13
    2368:	84 c3 0f 00 	add gr12 gr12 gr15
    236c:	80 00 00 00 	nop
    2370:	80 40 00 0f 	movc2g gr4
    2374:	94 40 1a 05 	movigl gr4 1a0 <.L0 +0x4>
    2378:	94 40 00 01 	movigh gr4 0 <_cla_int_entry_group0_0>
    237c:	95 44 00 15 	movigl gr20 4001 <.L0 +0x12>
    2380:	95 40 00 01 	movigh gr20 0 <_cla_int_entry_group0_0>
    2384:	80 05 00 0b 	movg2c gr20
    2388:	84 c3 14 00 	add gr12 gr12 gr20
    238c:	84 d3 44 06 	xor gr13 gr13 gr4
    2390:	84 e3 8c 00 	add gr14 gr14 gr12
    2394:	84 f3 cd 06 	xor gr15 gr15 gr13
    2398:	84 c3 0f 00 	add gr12 gr12 gr15
    239c:	80 00 00 00 	nop
    23a0:	80 50 00 0f 	movc2g gr5
    23a4:	94 50 1a 15 	movigl gr5 1a1 <.L0 +0x5>
    23a8:	94 50 00 01 	movigh gr5 0 <_cla_int_entry_group0_0>
    23ac:	95 54 00 15 	movigl gr21 4001 <.L0 +0x12>
    23b0:	95 50 00 01 	movigh gr21 0 <_cla_int_entry_group0_0>
    23b4:	80 05 40 0b 	movg2c gr21
    23b8:	84 c3 15 00 	add gr12 gr12 gr21
    23bc:	84 d3 45 06 	xor gr13 gr13 gr5
    23c0:	84 e3 8c 00 	add gr14 gr14 gr12
    23c4:	84 f3 cd 06 	xor gr15 gr15 gr13
    23c8:	84 c3 0f 00 	add gr12 gr12 gr15
    23cc:	80 00 00 00 	nop
    23d0:	80 60 00 0f 	movc2g gr6
    23d4:	94 60 1a 25 	movigl gr6 1a2 <.L0 +0x6>
    23d8:	94 60 00 01 	movigh gr6 0 <_cla_int_entry_group0_0>
    23dc:	95 64 01 15 	movigl gr22 4011 <.L0 +0x7>
    23e0:	95 60 00 01 	movigh gr22 0 <_cla_int_entry_group0_0>
    23e4:	80 05 80 0b 	movg2c gr22
    23e8:	84 c3 16 00 	add gr12 gr12 gr22
    23ec:	84 d3 46 06 	xor gr13 gr13 gr6
    23f0:	84 e3 8c 00 	add gr14 gr14 gr12
    23f4:	84 f3 cd 06 	xor gr15 gr15 gr13
    23f8:	84 c3 0f 00 	add gr12 gr12 gr15
    23fc:	80 00 00 00 	nop
    2400:	80 70 00 0f 	movc2g gr7
    2404:	94 70 1a 35 	movigl gr7 1a3 <.L0 +0x7>
    2408:	94 70 00 01 	movigh gr7 0 <_cla_int_entry_group0_0>
    240c:	95 74 00 15 	movigl gr23 4001 <.L0 +0x12>
    2410:	95 70 00 01 	movigh gr23 0 <_cla_int_entry_group0_0>
    2414:	80 05 c0 0b 	movg2c gr23
    2418:	84 c3 17 00 	add gr12 gr12 gr23
    241c:	84 d3 47 06 	xor gr13 gr13 gr7
    2420:	84 e3 8c 00 	add gr14 gr14 gr12
    2424:	84 f3 cd 06 	xor gr15 gr15 gr13
    2428:	84 c3 0f 00 	add gr12 gr12 gr15
    242c:	80 00 00 00 	nop
    2430:	80 80 00 0f 	movc2g gr8
    2434:	94 80 1a 45 	movigl gr8 1a4 <.L0 +0x8>
    2438:	94 80 00 01 	movigh gr8 0 <_cla_int_entry_group0_0>
    243c:	95 84 00 15 	movigl gr24 4001 <.L0 +0x12>
    2440:	95 80 00 01 	movigh gr24 0 <_cla_int_entry_group0_0>
    2444:	80 06 00 0b 	movg2c gr24
    2448:	84 c3 18 00 	add gr12 gr12 gr24
    244c:	84 d3 48 06 	xor gr13 gr13 gr8
    2450:	84 e3 8c 00 	add gr14 gr14 gr12
    2454:	84 f3 cd 06 	xor gr15 gr15 gr13
    2458:	84 c3 0f 00 	add gr12 gr12 gr15
    245c:	80 00 00 00 	nop
    2460:	80 90 00 0f 	movc2g gr9
    2464:	94 90 1a 55 	movigl gr9 1a5 <.L0 +0x9>
    2468:	94 90 00 01 	movigh gr9 0 <_cla_int_entry_group0_0>
    246c:	95 94 01 15 	movigl gr25 4011 <.L0 +0x7>
    2470:	95 90 00 01 	movigh gr25 0 <_cla_int_entry_group0_0>
    2474:	80 06 40 0b 	movg2c gr25
    2478:	84 c3 19 00 	add gr12 gr12 gr25
    247c:	84 d3 49 06 	xor gr13 gr13 gr9
    2480:	84 e3 8c 00 	add gr14 gr14 gr12
    2484:	84 f3 cd 06 	xor gr15 gr15 gr13
    2488:	84 c3 0f 00 	add gr12 gr12 gr15
    248c:	80 00 00 00 	nop
    2490:	80 a0 00 0f 	movc2g gr10
    2494:	94 a0 1a 65 	movigl gr10 1a6 <.L0 +0xa>
    2498:	94 a0 00 01 	movigh gr10 0 <_cla_int_entry_group0_0>
    249c:	95 a4 00 15 	movigl gr26 4001 <.L0 +0x12>
    24a0:	95 a0 00 01 	movigh gr26 0 <_cla_int_entry_group0_0>
    24a4:	80 06 80 0b 	movg2c gr26
    24a8:	84 c3 1a 00 	add gr12 gr12 gr26
    24ac:	84 d3 4a 06 	xor gr13 gr13 gr10
    24b0:	84 e3 8c 00 	add gr14 gr14 gr12
    24b4:	84 f3 cd 06 	xor gr15 gr15 gr13
    24b8:	84 c3 0f 00 	add gr12 gr12 gr15
    24bc:	80 00 00 00 	nop
    24c0:	80 b0 00 0f 	movc2g gr11
    24c4:	94 b0 1a 75 	movigl gr11 1a7 <.L0 +0xb>
    24c8:	94 b0 00 01 	movigh gr11 0 <_cla_int_entry_group0_0>
    24cc:	95 b4 00 15 	movigl gr27 4001 <.L0 +0x12>
    24d0:	95 b0 00 01 	movigh gr27 0 <_cla_int_entry_group0_0>
    24d4:	80 06 c0 0b 	movg2c gr27
    24d8:	84 c3 1b 00 	add gr12 gr12 gr27
    24dc:	84 d3 4b 06 	xor gr13 gr13 gr11
    24e0:	84 e3 8c 00 	add gr14 gr14 gr12
    24e4:	84 f3 cd 06 	xor gr15 gr15 gr13
    24e8:	84 c3 0f 00 	add gr12 gr12 gr15
    24ec:	80 00 00 00 	nop
    24f0:	80 40 00 0f 	movc2g gr4
    24f4:	94 40 1a 85 	movigl gr4 1a8 <.L0 +0xc>
    24f8:	94 40 00 01 	movigh gr4 0 <_cla_int_entry_group0_0>
    24fc:	95 44 01 15 	movigl gr20 4011 <.L0 +0x7>
    2500:	95 40 00 01 	movigh gr20 0 <_cla_int_entry_group0_0>
    2504:	80 05 00 0b 	movg2c gr20
    2508:	84 c3 14 00 	add gr12 gr12 gr20
    250c:	84 d3 44 06 	xor gr13 gr13 gr4
    2510:	84 e3 8c 00 	add gr14 gr14 gr12
    2514:	84 f3 cd 06 	xor gr15 gr15 gr13
    2518:	84 c3 0f 00 	add gr12 gr12 gr15
    251c:	80 00 00 00 	nop
    2520:	80 50 00 0f 	movc2g gr5
    2524:	94 50 1a 95 	movigl gr5 1a9 <.L0 +0xd>
    2528:	94 50 00 01 	movigh gr5 0 <_cla_int_entry_group0_0>
    252c:	95 54 00 15 	movigl gr21 4001 <.L0 +0x12>
    2530:	95 50 00 01 	movigh gr21 0 <_cla_int_entry_group0_0>
    2534:	80 05 40 0b 	movg2c gr21
    2538:	84 c3 15 00 	add gr12 gr12 gr21
    253c:	84 d3 45 06 	xor gr13 gr13 gr5
    2540:	84 e3 8c 00 	add gr14 gr14 gr12
    2544:	84 f3 cd 06 	xor gr15 gr15 gr13
    2548:	84 c3 0f 00 	add gr12 gr12 gr15
    254c:	80 00 00 00 	nop
    2550:	80 60 00 0f 	movc2g gr6
    2554:	94 60 1a a5 	movigl gr6 1aa <.L0 +0xe>
    2558:	94 60 00 01 	movigh gr6 0 <_cla_int_entry_group0_0>
    255c:	95 64 00 15 	movigl gr22 4001 <.L0 +0x12>
    2560:	95 60 00 01 	movigh gr22 0 <_cla_int_entry_group0_0>
    2564:	80 05 80 0b 	movg2c gr22
    2568:	84 c3 16 00 	add gr12 gr12 gr22
    256c:	84 d3 46 06 	xor gr13 gr13 gr6
    2570:	84 e3 8c 00 	add gr14 gr14 gr12
    2574:	84 f3 cd 06 	xor gr15 gr15 gr13
    2578:	84 c3 0f 00 	add gr12 gr12 gr15
    257c:	80 00 00 00 	nop
    2580:	80 70 00 0f 	movc2g gr7
    2584:	94 70 1a b5 	movigl gr7 1ab <.L0 +0xf>
    2588:	94 70 00 01 	movigh gr7 0 <_cla_int_entry_group0_0>
    258c:	95 74 01 15 	movigl gr23 4011 <.L0 +0x7>
    2590:	95 70 00 01 	movigh gr23 0 <_cla_int_entry_group0_0>
    2594:	80 05 c0 0b 	movg2c gr23
    2598:	84 c3 17 00 	add gr12 gr12 gr23
    259c:	84 d3 47 06 	xor gr13 gr13 gr7
    25a0:	84 e3 8c 00 	add gr14 gr14 gr12
    25a4:	84 f3 cd 06 	xor gr15 gr15 gr13
    25a8:	84 c3 0f 00 	add gr12 gr12 gr15
    25ac:	80 00 00 00 	nop
    25b0:	80 80 00 0f 	movc2g gr8
    25b4:	94 80 1a c5 	movigl gr8 1ac <.L0 +0x10>
    25b8:	94 80 00 01 	movigh gr8 0 <_cla_int_entry_group0_0>
    25bc:	95 84 00 15 	movigl gr24 4001 <.L0 +0x12>
    25c0:	95 80 00 01 	movigh gr24 0 <_cla_int_entry_group0_0>
    25c4:	80 06 00 0b 	movg2c gr24
    25c8:	84 c3 18 00 	add gr12 gr12 gr24
    25cc:	84 d3 48 06 	xor gr13 gr13 gr8
    25d0:	84 e3 8c 00 	add gr14 gr14 gr12
    25d4:	84 f3 cd 06 	xor gr15 gr15 gr13
    25d8:	84 c3 0f 00 	add gr12 gr12 gr15
    25dc:	80 00 00 00 	nop
    25e0:	80 90 00 0f 	movc2g gr9
    25e4:	94 90 1a d5 	movigl gr9 1ad <.L0 +0x11>
    25e8:	94 90 00 01 	movigh gr9 0 <_cla_int_entry_group0_0>
    25ec:	95 94 00 15 	movigl gr25 4001 <.L0 +0x12>
    25f0:	95 90 00 01 	movigh gr25 0 <_cla_int_entry_group0_0>
    25f4:	80 06 40 0b 	movg2c gr25
    25f8:	84 c3 19 00 	add gr12 gr12 gr25
    25fc:	84 d3 49 06 	xor gr13 gr13 gr9
    2600:	84 e3 8c 00 	add gr14 gr14 gr12
    2604:	84 f3 cd 06 	xor gr15 gr15 gr13
    2608:	84 c3 0f 00 	add gr12 gr12 gr15
    260c:	80 00 00 00 	nop
    2610:	80 a0 00 0f 	movc2g gr10
    2614:	94 a0 1a e5 	movigl gr10 1ae <.L0 +0x12>
    2618:	94 a0 00 01 	movigh gr10 0 <_cla_int_entry_group0_0>
    261c:	95 a4 01 15 	movigl gr26 4011 <.L0 +0x7>
    2620:	95 a0 00 01 	movigh gr26 0 <_cla_int_entry_group0_0>
    2624:	80 06 80 0b 	movg2c gr26
    2628:	84 c3 1a 00 	add gr12 gr12 gr26
    262c:	84 d3 4a 06 	xor gr13 gr13 gr10
    2630:	84 e3 8c 00 	add gr14 gr14 gr12
    2634:	84 f3 cd 06 	xor gr15 gr15 gr13
    2638:	84 c3 0f 00 	add gr12 gr12 gr15
    263c:	80 00 00 00 	nop
    2640:	80 b0 00 0f 	movc2g gr11
    2644:	94 b0 1a f5 	movigl gr11 1af <.L0 +0x13>
    2648:	94 b0 00 01 	movigh gr11 0 <_cla_int_entry_group0_0>
    264c:	95 b4 00 15 	movigl gr27 4001 <.L0 +0x12>
    2650:	95 b0 00 01 	movigh gr27 0 <_cla_int_entry_group0_0>
    2654:	80 06 c0 0b 	movg2c gr27
    2658:	84 c3 1b 00 	add gr12 gr12 gr27
    265c:	84 d3 4b 06 	xor gr13 gr13 gr11
    2660:	84 e3 8c 00 	add gr14 gr14 gr12
    2664:	84 f3 cd 06 	xor gr15 gr15 gr13
    2668:	84 c3 0f 00 	add gr12 gr12 gr15
    266c:	80 00 00 00 	nop
    2670:	80 40 00 0f 	movc2g gr4
    2674:	94 40 1b 05 	movigl gr4 1b0 <.L0 +0x14>
    2678:	94 40 00 01 	movigh gr4 0 <_cla_int_entry_group0_0>
    267c:	95 44 00 15 	movigl gr20 4001 <.L0 +0x12>
    2680:	95 40 00 01 	movigh gr20 0 <_cla_int_entry_group0_0>
    2684:	80 05 00 0b 	movg2c gr20
    2688:	84 c3 14 00 	add gr12 gr12 gr20
    268c:	84 d3 44 06 	xor gr13 gr13 gr4
    2690:	84 e3 8c 00 	add gr14 gr14 gr12
    2694:	84 f3 cd 06 	xor gr15 gr15 gr13
    2698:	84 c3 0f 00 	add gr12 gr12 gr15
    269c:	80 00 00 00 	nop
    26a0:	80 50 00 0f 	movc2g gr5
    26a4:	94 50 1b 15 	movigl gr5 1b1 <.L0 +0x15>
    26a8:	94 50 00 01 	movigh gr5 0 <_cla_int_entry_group0_0>
    26ac:	95 54 01 15 	movigl gr21 4011 <.L0 +0x7>
    26b0:	95 50 00 01 	movigh gr21 0 <_cla_int_entry_group0_0>
    26b4:	80 05 40 0b 	movg2c gr21
    26b8:	84 c3 15 00 	add gr12 gr12 gr21
    26bc:	84 d3 45 06 	xor gr13 gr13 gr5
    26c0:	84 e3 8c 00 	add gr14 gr14 gr12
    26c4:	84 f3 cd 06 	xor gr15 gr15 gr13
    26c8:	84 c3 0f 00 	add gr12 gr12 gr15
    26cc:	80 00 00 00 	nop
    26d0:	80 60 00 0f 	movc2g gr6
    26d4:	94 60 1b 25 	movigl gr6 1b2 <.L0 +0x16>
    26d8:	94 60 00 01 	movigh gr6 0 <_cla_int_entry_group0_0>
    26dc:	95 64 00 15 	movigl gr22 4001 <.L0 +0x12>
    26e0:	95 60 00 01 	movigh gr22 0 <_cla_int_entry_group0_0>
    26e4:	80 05 80 0b 	movg2c gr22
    26e8:	84 c3 16 00 	add gr12 gr12 gr22
    26ec:	84 d3 46 06 	xor gr13 gr13 gr6
    26f0:	84 e3 8c 00 	add gr14 gr14 gr12
    26f4:	84 f3 cd 06 	xor gr15 gr15 gr13
    26f8:	84 c3 0f 00 	add gr12 gr12 gr15
    26fc:	80 00 00 00 	nop
    2700:	80 70 00 0f 	movc2g gr7
    2704:	94 70 1b 35 	movigl gr7 1b3 <.L0 +0x17>
    2708:	94 70 00 01 	movigh gr7 0 <_cla_int_entry_group0_0>
    270c:	95 74 00 15 	movigl gr23 4001 <.L0 +0x12>
    2710:	95 70 00 01 	movigh gr23 0 <_cla_int_entry_group0_0>
    2714:	80 05 c0 0b 	movg2c gr23
    2718:	84 c3 17 00 	add gr12 gr12 gr23
    271c:	84 d3 47 06 	xor gr13 gr13 gr7
    2720:	84 e3 8c 00 	add gr14 gr14 gr12
    2724:	84 f3 cd 06 	xor gr15 gr15 gr13
    2728:	84 c3 0f 00 	add gr12 gr12 gr15
    272c:	80 00 00 00 	nop
    2730:	80 80 00 0f 	movc2g gr8
    2734:	94 80 1b 45 	movigl gr8 1b4 <.L0 +0x18>
    2738:	94 80 00 01 	movigh gr8 0 <_cla_int_entry_group0_0>
    273c:	95 84 01 15 	movigl gr24 4011 <.L0 +0x7>
    2740:	95 80 00 01 	movigh gr24 0 <_cla_int_entry_group0_0>
    2744:	80 06 00 0b 	movg2c gr24
    2748:	84 c3 18 00 	add gr12 gr12 gr24
    274c:	84 d3 48 06 	xor gr13 gr13 gr8
    2750:	84 e3 8c 00 	add gr14 gr14 gr12
    2754:	84 f3 cd 06 	xor gr15 gr15 gr13
    2758:	84 c3 0f 00 	add gr12 gr12 gr15
    275c:	80 00 00 00 	nop
    2760:	80 90 00 0f 	movc2g gr9
    2764:	94 90 1b 55 	movigl gr9 1b5 <.L0 +0x19>
    2768:	94 90 00 01 	movigh gr9 0 <_cla_int_entry_group0_0>
    276c:	95 94 00 15 	movigl gr25 4001 <.L0 +0x12>
    2770:	95 90 00 01 	movigh gr25 0 <_cla_int_entry_group0_0>
    2774:	80 06 40 0b 	movg2c gr25
    2778:	84 c3 19 00 	add gr12 gr12 gr25
    277c:	84 d3 49 06 	xor gr13 gr13 gr9
    2780:	84 e3 8c 00 	add gr14 gr14 gr12
    2784:	84 f3 cd 06 	xor gr15 gr15 gr13
    2788:	84 c3 0f 00 	add gr12 gr12 gr15
    278c:	80 00 00 00 	nop
    2790:	80 a0 00 0f 	movc2g gr10
    2794:	94 a0 1b 65 	movigl gr10 1b6 <.L0 +0x1a>
    2798:	94 a0 00 01 	movigh gr10 0 <_cla_int_entry_group0_0>
    279c:	95 a4 00 15 	movigl gr26 4001 <.L0 +0x12>
    27a0:	95 a0 00 01 	movigh gr26 0 <_cla_int_entry_group0_0>
    27a4:	80 06 80 0b 	movg2c gr26
    27a8:	84 c3 1a 00 	add gr12 gr12 gr26
    27ac:	84 d3 4a 06 	xor gr13 gr13 gr10
    27b0:	84 e3 8c 00 	add gr14 gr14 gr12
    27b4:	84 f3 cd 06 	xor gr15 gr15 gr13
    27b8:	84 c3 0f 00 	add gr12 gr12 gr15
    27bc:	80 00 00 00 	nop
    27c0:	80 b0 00 0f 	movc2g gr11
    27c4:	94 b0 1b 75 	movigl gr11 1b7 <.L0 >
    27c8:	94 b0 00 01 	movigh gr11 0 <_cla_int_entry_group0_0>
    27cc:	95 b4 01 15 	movigl gr27 4011 <.L0 +0x7>
    27d0:	95 b0 00 01 	movigh gr27 0 <_cla_int_entry_group0_0>
    27d4:	80 06 c0 0b 	movg2c gr27
    27d8:	84 c3 1b 00 	add gr12 gr12 gr27
    27dc:	84 d3 4b 06 	xor gr13 gr13 gr11
    27e0:	84 e3 8c 00 	add gr14 gr14 gr12
    27e4:	84 f3 cd 06 	xor gr15 gr15 gr13
    27e8:	84 c3 0f 00 	add gr12 gr12 gr15
    27ec:	80 00 00 00 	nop
    27f0:	80 40 00 0f 	movc2g gr4
    27f4:	94 40 1b 85 	movigl gr4 1b8 <.L0 +0x1>
    27f8:	94 40 00 01 	movigh gr4 0 <_cla_int_entry_group0_0>
    27fc:	95 44 00 15 	movigl gr20 4001 <.L0 +0x12>
    2800:	95 40 00 01 	movigh gr20 0 <_cla_int_entry_group0_0>
    2804:	80 05 00 0b 	movg2c gr20
    2808:	84 c3 14 00 	add gr12 gr12 gr20
    280c:	84 d3 44 06 	xor gr13 gr13 gr4
    2810:	84 e3 8c 00 	add gr14 gr14 gr12
    2814:	84 f3 cd 06 	xor gr15 gr15 gr13
    2818:	84 c3 0f 00 	add gr12 gr12 gr15
    281c:	80 00 00 00 	nop
    2820:	80 50 00 0f 	movc2g gr5
    2824:	94 50 1b 95 	movigl gr5 1b9 <.L0 +0x2>
    2828:	94 50 00 01 	movigh gr5 0 <_cla_int_entry_group0_0>
    282c:	95 54 00 15 	movigl gr21 4001 <.L0 +0x12>
    2830:	95 50 00 01 	movigh gr21 0 <_cla_int_entry_group0_0>
    2834:	80 05 40 0b 	movg2c gr21
    2838:	84 c3 15 00 	add gr12 gr12 gr21
    283c:	84 d3 45 06 	xor gr13 gr13 gr5
    2840:	84 e3 8c 00 	add gr14 gr14 gr12
    2844:	84 f3 cd 06 	xor gr15 gr15 gr13
    2848:	84 c3 0f 00 	add gr12 gr12 gr15
    284c:	80 00 00 00 	nop
    2850:	80 60 00 0f 	movc2g gr6
    2854:	94 60 1b a5 	movigl gr6 1ba <.L0 +0x3>
    2858:	94 60 00 01 	movigh gr6 0 <_cla_int_entry_group0_0>
    285c:	95 64 01 15 	movigl gr22 4011 <.L0 +0x7>
    2860:	95 60 00 01 	movigh gr22 0 <_cla_int_entry_group0_0>
    2864:	80 05 80 0b 	movg2c gr22
    2868:	84 c3 16 00 	add gr12 gr12 gr22
    286c:	84 d3 46 06 	xor gr13 gr13 gr6
    2870:	84 e3 8c 00 	add gr14 gr14 gr12
    2874:	84 f3 cd 06 	xor gr15 gr15 gr13
    2878:	84 c3 0f 00 	add gr12 gr12 gr15
    287c:	80 00 00 00 	nop
    2880:	80 70 00 0f 	movc2g gr7
    2884:	94 70 1b b5 	movigl gr7 1bb <.L0 +0x4>
    2888:	94 70 00 01 	movigh gr7 0 <_cla_int_entry_group0_0>
    288c:	95 74 00 15 	movigl gr23 4001 <.L0 +0x12>
    2890:	95 70 00 01 	movigh gr23 0 <_cla_int_entry_group0_0>
    2894:	80 05 c0 0b 	movg2c gr23
    2898:	84 c3 17 00 	add gr12 gr12 gr23
    289c:	84 d3 47 06 	xor gr13 gr13 gr7
    28a0:	84 e3 8c 00 	add gr14 gr14 gr12
    28a4:	84 f3 cd 06 	xor gr15 gr15 gr13
    28a8:	84 c3 0f 00 	add gr12 gr12 gr15
    28ac:	80 00 00 00 	nop
    28b0:	80 80 00 0f 	movc2g gr8
    28b4:	94 80 1b c5 	movigl gr8 1bc <.L0 +0x5>
    28b8:	94 80 00 01 	movigh gr8 0 <_cla_int_entry_group0_0>
    28bc:	95 84 00 15 	movigl gr24 4001 <.L0 +0x12>
    28c0:	95 80 00 01 	movigh gr24 0 <_cla_int_entry_group0_0>
    28c4:	80 06 00 0b 	movg2c gr24
    28c8:	84 c3 18 00 	add gr12 gr12 gr24
    28cc:	84 d3 48 06 	xor gr13 gr13 gr8
    28d0:	84 e3 8c 00 	add gr14 gr14 gr12
    28d4:	84 f3 cd 06 	xor gr15 gr15 gr13
    28d8:	84 c3 0f 00 	add gr12 gr12 gr15
    28dc:	80 00 00 00 	nop
    28e0:	80 90 00 0f 	movc2g gr9
    28e4:	94 90 1b d5 	movigl gr9 1bd <.L0 +0x6>
    28e8:	94 90 00 01 	movigh gr9 0 <_cla_int_entry_group0_0>
    28ec:	95 94 01 15 	movigl gr25 4011 <.L0 +0x7>
    28f0:	95 90 00 01 	movigh gr25 0 <_cla_int_entry_group0_0>
    28f4:	80 06 40 0b 	movg2c gr25
    28f8:	84 c3 19 00 	add gr12 gr12 gr25
    28fc:	84 d3 49 06 	xor gr13 gr13 gr9
    2900:	84 e3 8c 00 	add gr14 gr14 gr12
    2904:	84 f3 cd 06 	xor gr15 gr15 gr13
    2908:	84 c3 0f 00 	add gr12 gr12 gr15
    290c:	80 00 00 00 	nop
    2910:	80 a0 00 0f 	movc2g gr10
    2914:	94 a0 1b e5 	movigl gr10 1be <.L0 +0x7>
    2918:	94 a0 00 01 	movigh gr10 0 <_cla_int_entry_group0_0>
    291c:	95 a4 00 15 	movigl gr26 4001 <.L0 +0x12>
    2920:	95 a0 00 01 	movigh gr26 0 <_cla_int_entry_group0_0>
    2924:	80 06 80 0b 	movg2c gr26
    2928:	84 c3 1a 00 	add gr12 gr12 gr26
    292c:	84 d3 4a 06 	xor gr13 gr13 gr10
    2930:	84 e3 8c 00 	add gr14 gr14 gr12
    2934:	84 f3 cd 06 	xor gr15 gr15 gr13
    2938:	84 c3 0f 00 	add gr12 gr12 gr15
    293c:	80 00 00 00 	nop
    2940:	80 b0 00 0f 	movc2g gr11
    2944:	94 b0 1b f5 	movigl gr11 1bf <.L0 +0x8>
    2948:	94 b0 00 01 	movigh gr11 0 <_cla_int_entry_group0_0>
    294c:	95 b4 00 15 	movigl gr27 4001 <.L0 +0x12>
    2950:	95 b0 00 01 	movigh gr27 0 <_cla_int_entry_group0_0>
    2954:	80 06 c0 0b 	movg2c gr27
    2958:	84 c3 1b 00 	add gr12 gr12 gr27
    295c:	84 d3 4b 06 	xor gr13 gr13 gr11
    2960:	84 e3 8c 00 	add gr14 gr14 gr12
    2964:	84 f3 cd 06 	xor gr15 gr15 gr13
    2968:	84 c3 0f 00 	add gr12 gr12 gr15
    296c:	80 00 00 00 	nop
    2970:	80 40 00 0f 	movc2g gr4
    2974:	94 40 1c 05 	movigl gr4 1c0 <.L0 +0x9>
    2978:	94 40 00 01 	movigh gr4 0 <_cla_int_entry_group0_0>
    297c:	95 44 01 15 	movigl gr20 4011 <.L0 +0x7>
    2980:	95 40 00 01 	movigh gr20 0 <_cla_int_entry_group0_0>
    2984:	80 05 00 0b 	movg2c gr20
    2988:	84 c3 14 00 	add gr12 gr12 gr20
    298c:	84 d3 44 06 	xor gr13 gr13 gr4
    2990:	84 e3 8c 00 	add gr14 gr14 gr12
    2994:	84 f3 cd 06 	xor gr15 gr15 gr13
    2998:	84 c3 0f 00 	add gr12 gr12 gr15
    299c:	80 00 00 00 	nop
    29a0:	80 50 00 0f 	movc2g gr5
    29a4:	94 50 1c 15 	movigl gr5 1c1 <.L0 +0xa>
    29a8:	94 50 00 01 	movigh gr5 0 <_cla_int_entry_group0_0>
    29ac:	95 54 00 15 	movigl gr21 4001 <.L0 +0x12>
    29b0:	95 50 00 01 	movigh gr21 0 <_cla_int_entry_group0_0>
    29b4:	80 05 40 0b 	movg2c gr21
    29b8:	84 c3 15 00 	add gr12 gr12 gr21
    29bc:	84 d3 45 06 	xor gr13 gr13 gr5
    29c0:	84 e3 8c 00 	add gr14 gr14 gr12
    29c4:	84 f3 cd 06 	xor gr15 gr15 gr13
    29c8:	84 c3 0f 00 	add gr12 gr12 gr15
    29cc:	80 00 00 00 	nop
    29d0:	80 60 00 0f 	movc2g gr6
    29d4:	94 60 1c 25 	movigl gr6 1c2 <.L0 +0xb>
    29d8:	94 60 00 01 	movigh gr6 0 <_cla_int_entry_group0_0>
    29dc:	95 64 00 15 	movigl gr22 4001 <.L0 +0x12>
    29e0:	95 60 00 01 	movigh gr22 0 <_cla_int_entry_group0_0>
    29e4:	80 05 80 0b 	movg2c gr22
    29e8:	84 c3 16 00 	add gr12 gr12 gr22
    29ec:	84 d3 46 06 	xor gr13 gr13 gr6
    29f0:	84 e3 8c 00 	add gr14 gr14 gr12
    29f4:	84 f3 cd 06 	xor gr15 gr15 gr13
    29f8:	84 c3 0f 00 	add gr12 gr12 gr15
    29fc:	80 00 00 00 	nop
    2a00:	80 70 00 0f 	movc2g gr7
    2a04:	94 70 1c 35 	movigl gr7 1c3 <.L0 +0xc>
    2a08:	94 70 00 01 	movigh gr7 0 <_cla_int_entry_group0_0>
    2a0c:	95 74 01 15 	movigl gr23 4011 <.L0 +0x7>
    2a10:	95 70 00 01 	movigh gr23 0 <_cla_int_entry_group0_0>
    2a14:	80 05 c0 0b 	movg2c gr23
    2a18:	84 c3 17 00 	add gr12 gr12 gr23
    2a1c:	84 d3 47 06 	xor gr13 gr13 gr7
    2a20:	84 e3 8c 00 	add gr14 gr14 gr12
    2a24:	84 f3 cd 06 	xor gr15 gr15 gr13
    2a28:	84 c3 0f 00 	add gr12 gr12 gr15
    2a2c:	80 00 00 00 	nop
    2a30:	80 80 00 0f 	movc2g gr8
    2a34:	94 80 1c 45 	movigl gr8 1c4 <.L0 +0xd>
    2a38:	94 80 00 01 	movigh gr8 0 <_cla_int_entry_group0_0>
    2a3c:	95 84 00 15 	movigl gr24 4001 <.L0 +0x12>
    2a40:	95 80 00 01 	movigh gr24 0 <_cla_int_entry_group0_0>
    2a44:	80 06 00 0b 	movg2c gr24
    2a48:	84 c3 18 00 	add gr12 gr12 gr24
    2a4c:	84 d3 48 06 	xor gr13 gr13 gr8
    2a50:	84 e3 8c 00 	add gr14 gr14 gr12
    2a54:	84 f3 cd 06 	xor gr15 gr15 gr13
    2a58:	84 c3 0f 00 	add gr12 gr12 gr15
    2a5c:	80 00 00 00 	nop
    2a60:	80 90 00 0f 	movc2g gr9
    2a64:	94 90 1c 55 	movigl gr9 1c5 <.L0 +0xe>
    2a68:	94 90 00 01 	movigh gr9 0 <_cla_int_entry_group0_0>
    2a6c:	95 94 00 15 	movigl gr25 4001 <.L0 +0x12>
    2a70:	95 90 00 01 	movigh gr25 0 <_cla_int_entry_group0_0>
    2a74:	80 06 40 0b 	movg2c gr25
    2a78:	84 c3 19 00 	add gr12 gr12 gr25
    2a7c:	84 d3 49 06 	xor gr13 gr13 gr9
    2a80:	84 e3 8c 00 	add gr14 gr14 gr12
    2a84:	84 f3 cd 06 	xor gr15 gr15 gr13
    2a88:	84 c3 0f 00 	add gr12 gr12 gr15
    2a8c:	80 00 00 00 	nop
    2a90:	80 a0 00 0f 	movc2g gr10
    2a94:	94 a0 1c 65 	movigl gr10 1c6 <.L0 +0xf>
    2a98:	94 a0 00 01 	movigh gr10 0 <_cla_int_entry_group0_0>
    2a9c:	95 a4 01 15 	movigl gr26 4011 <.L0 +0x7>
    2aa0:	95 a0 00 01 	movigh gr26 0 <_cla_int_entry_group0_0>
    2aa4:	80 06 80 0b 	movg2c gr26
    2aa8:	84 c3 1a 00 	add gr12 gr12 gr26
    2aac:	84 d3 4a 06 	xor gr13 gr13 gr10
    2ab0:	84 e3 8c 00 	add gr14 gr14 gr12
    2ab4:	84 f3 cd 06 	xor gr15 gr15 gr13
    2ab8:	84 c3 0f 00 	add gr12 gr12 gr15
    2abc:	80 00 00 00 	nop
    2ac0:	80 b0 00 0f 	movc2g gr11
    2ac4:	94 b0 1c 75 	movigl gr11 1c7 <.L0 +0x10>
    2ac8:	94 b0 00 01 	movigh gr11 0 <_cla_int_entry_group0_0>
    2acc:	95 b4 00 15 	movigl gr27 4001 <.L0 +0x12>
    2ad0:	95 b0 00 01 	movigh gr27 0 <_cla_int_entry_group0_0>
    2ad4:	80 06 c0 0b 	movg2c gr27
    2ad8:	84 c3 1b 00 	add gr12 gr12 gr27
    2adc:	84 d3 4b 06 	xor gr13 gr13 gr11
    2ae0:	84 e3 8c 00 	add gr14 gr14 gr12
    2ae4:	84 f3 cd 06 	xor gr15 gr15 gr13
    2ae8:	84 c3 0f 00 	add gr12 gr12 gr15
    2aec:	80 00 00 00 	nop
    2af0:	80 40 00 0f 	movc2g gr4
    2af4:	94 40 1c 85 	movigl gr4 1c8 <.L0 +0x11>
    2af8:	94 40 00 01 	movigh gr4 0 <_cla_int_entry_group0_0>
    2afc:	95 44 00 15 	movigl gr20 4001 <.L0 +0x12>
    2b00:	95 40 00 01 	movigh gr20 0 <_cla_int_entry_group0_0>
    2b04:	80 05 00 0b 	movg2c gr20
    2b08:	84 c3 14 00 	add gr12 gr12 gr20
    2b0c:	84 d3 44 06 	xor gr13 gr13 gr4
    2b10:	84 e3 8c 00 	add gr14 gr14 gr12
    2b14:	84 f3 cd 06 	xor gr15 gr15 gr13
    2b18:	84 c3 0f 00 	add gr12 gr12 gr15
    2b1c:	80 00 00 00 	nop
    2b20:	80 50 00 0f 	movc2g gr5
    2b24:	94 50 1c 95 	movigl gr5 1c9 <.L0 +0x12>
    2b28:	94 50 00 01 	movigh gr5 0 <_cla_int_entry_group0_0>
    2b2c:	95 54 01 15 	movigl gr21 4011 <.L0 +0x7>
    2b30:	95 50 00 01 	movigh gr21 0 <_cla_int_entry_group0_0>
    2b34:	80 05 40 0b 	movg2c gr21
    2b38:	84 c3 15 00 	add gr12 gr12 gr21
    2b3c:	84 d3 45 06 	xor gr13 gr13 gr5
    2b40:	84 e3 8c 00 	add gr14 gr14 gr12
    2b44:	84 f3 cd 06 	xor gr15 gr15 gr13
    2b48:	84 c3 0f 00 	add gr12 gr12 gr15
    2b4c:	80 00 00 00 	nop
    2b50:	80 60 00 0f 	movc2g gr6
    2b54:	94 60 1c a5 	movigl gr6 1ca <.L0 +0x13>
    2b58:	94 60 00 01 	movigh gr6 0 <_cla_int_entry_group0_0>
    2b5c:	95 64 00 15 	movigl gr22 4001 <.L0 +0x12>
    2b60:	95 60 00 01 	movigh gr22 0 <_cla_int_entry_group0_0>
    2b64:	80 05 80 0b 	movg2c gr22
    2b68:	84 c3 16 00 	add gr12 gr12 gr22
    2b6c:	84 d3 46 06 	xor gr13 gr13 gr6
    2b70:	84 e3 8c 00 	add gr14 gr14 gr12
    2b74:	84 f3 cd 06 	xor gr15 gr15 gr13
    2b78:	84 c3 0f 00 	add gr12 gr12 gr15
    2b7c:	80 00 00 00 	nop
    2b80:	80 70 00 0f 	movc2g gr7
    2b84:	94 70 1c b5 	movigl gr7 1cb <.L0 +0x14>
    2b88:	94 70 00 01 	movigh gr7 0 <_cla_int_entry_group0_0>
    2b8c:	95 74 00 15 	movigl gr23 4001 <.L0 +0x12>
    2b90:	95 70 00 01 	movigh gr23 0 <_cla_int_entry_group0_0>
    2b94:	80 05 c0 0b 	movg2c gr23
    2b98:	84 c3 17 00 	add gr12 gr12 gr23
    2b9c:	84 d3 47 06 	xor gr13 gr13 gr7
    2ba0:	84 e3 8c 00 	add gr14 gr14 gr12
    2ba4:	84 f3 cd 06 	xor gr15 gr15 gr13
    2ba8:	84 c3 0f 00 	add gr12 gr12 gr15
    2bac:	80 00 00 00 	nop
    2bb0:	80 80 00 0f 	movc2g gr8
    2bb4:	94 80 1c c5 	movigl gr8 1cc <.L0 +0x15>
    2bb8:	94 80 00 01 	movigh gr8 0 <_cla_int_entry_group0_0>
    2bbc:	95 84 01 15 	movigl gr24 4011 <.L0 +0x7>
    2bc0:	95 80 00 01 	movigh gr24 0 <_cla_int_entry_group0_0>
    2bc4:	80 06 00 0b 	movg2c gr24
    2bc8:	84 c3 18 00 	add gr12 gr12 gr24
    2bcc:	84 d3 48 06 	xor gr13 gr13 gr8
    2bd0:	84 e3 8c 00 	add gr14 gr14 gr12
    2bd4:	84 f3 cd 06 	xor gr15 gr15 gr13
    2bd8:	84 c3 0f 00 	add gr12 gr12 gr15
    2bdc:	80 00 00 00 	nop
    2be0:	80 90 00 0f 	movc2g gr9
    2be4:	94 90 1c d5 	movigl gr9 1cd <.L0 +0x16>
    2be8:	94 90 00 01 	movigh gr9 0 <_cla_int_entry_group0_0>
    2bec:	95 94 00 15 	movigl gr25 4001 <.L0 +0x12>
    2bf0:	95 90 00 01 	movigh gr25 0 <_cla_int_entry_group0_0>
    2bf4:	80 06 40 0b 	movg2c gr25
    2bf8:	84 c3 19 00 	add gr12 gr12 gr25
    2bfc:	84 d3 49 06 	xor gr13 gr13 gr9
    2c00:	84 e3 8c 00 	add gr14 gr14 gr12
    2c04:	84 f3 cd 06 	xor gr15 gr15 gr13
    2c08:	84 c3 0f 00 	add gr12 gr12 gr15
    2c0c:	80 00 00 00 	nop
    2c10:	80 a0 00 0f 	movc2g gr10
    2c14:	94 a0 1c e5 	movigl gr10 1ce <.L0 +0x17>
    2c18:	94 a0 00 01 	movigh gr10 0 <_cla_int_entry_group0_0>
    2c1c:	95 a4 00 15 	movigl gr26 4001 <.L0 +0x12>
    2c20:	95 a0 00 01 	movigh gr26 0 <_cla_int_entry_group0_0>
    2c24:	80 06 80 0b 	movg2c gr26
    2c28:	84 c3 1a 00 	add gr12 gr12 gr26
    2c2c:	84 d3 4a 06 	xor gr13 gr13 gr10
    2c30:	84 e3 8c 00 	add gr14 gr14 gr12
    2c34:	84 f3 cd 06 	xor gr15 gr15 gr13
    2c38:	84 c3 0f 00 	add gr12 gr12 gr15
    2c3c:	80 00 00 00 	nop
    2c40:	80 b0 00 0f 	movc2g gr11
    2c44:	94 b0 1c f5 	movigl gr11 1cf <.L0 +0x18>
    2c48:	94 b0 00 01 	movigh gr11 0 <_cla_int_entry_group0_0>
    2c4c:	95 b4 01 15 	movigl gr27 4011 <.L0 +0x7>
    2c50:	95 b0 00 01 	movigh gr27 0 <_cla_int_entry_group0_0>
    2c54:	80 06 c0 0b 	movg2c gr27
    2c58:	84 c3 1b 00 	add gr12 gr12 gr27
    2c5c:	84 d3 4b 06 	xor gr13 gr13 gr11
    2c60:	84 e3 8c 00 	add gr14 gr14 gr12
    2c64:	84 f3 cd 06 	xor gr15 gr15 gr13
    2c68:	84 c3 0f 00 	add gr12 gr12 gr15
    2c6c:	80 00 00 00 	nop
    2c70:	80 40 00 0f 	movc2g gr4
    2c74:	94 40 1d 05 	movigl gr4 1d0 <.L0 +0x19>
    2c78:	94 40 00 01 	movigh gr4 0 <_cla_int_entry_group0_0>
    2c7c:	95 44 00 15 	movigl gr20 4001 <.L0 +0x12>
    2c80:	95 40 00 01 	movigh gr20 0 <_cla_int_entry_group0_0>
    2c84:	80 05 00 0b 	movg2c gr20
    2c88:	84 c3 14 00 	add gr12 gr12 gr20
    2c8c:	84 d3 44 06 	xor gr13 gr13 gr4
    2c90:	84 e3 8c 00 	add gr14 gr14 gr12
    2c94:	84 f3 cd 06 	xor gr15 gr15 gr13
    2c98:	84 c3 0f 00 	add gr12 gr12 gr15
    2c9c:	80 00 00 00 	nop
    2ca0:	80 50 00 0f 	movc2g gr5
    2ca4:	94 50 1d 15 	movigl gr5 1d1 <.L0 +0x1a>
    2ca8:	94 50 00 01 	movigh gr5 0 <_cla_int_entry_group0_0>
    2cac:	95 54 00 15 	movigl gr21 4001 <.L0 +0x12>
    2cb0:	95 50 00 01 	movigh gr21 0 <_cla_int_entry_group0_0>
    2cb4:	80 05 40 0b 	movg2c gr21
    2cb8:	84 c3 15 00 	add gr12 gr12 gr21
    2cbc:	84 d3 45 06 	xor gr13 gr13 gr5
    2cc0:	84 e3 8c 00 	add gr14 gr14 gr12
    2cc4:	84 f3 cd 06 	xor gr15 gr15 gr13
    2cc8:	84 c3 0f 00 	add gr12 gr12 gr15
    2ccc:	80 00 00 00 	nop
    2cd0:	80 60 00 0f 	movc2g gr6
    2cd4:	94 60 1d 25 	movigl gr6 1d2 <.L0 +0x1b>
    2cd8:	94 60 00 01 	movigh gr6 0 <_cla_int_entry_group0_0>
    2cdc:	95 64 01 15 	movigl gr22 4011 <.L0 +0x7>
    2ce0:	95 60 00 01 	movigh gr22 0 <_cla_int_entry_group0_0>
    2ce4:	80 05 80 0b 	movg2c gr22
    2ce8:	84 c3 16 00 	add gr12 gr12 gr22
    2cec:	84 d3 46 06 	xor gr13 gr13 gr6
    2cf0:	84 e3 8c 00 	add gr14 gr14 gr12
    2cf4:	84 f3 cd 06 	xor gr15 gr15 gr13
    2cf8:	84 c3 0f 00 	add gr12 gr12 gr15
    2cfc:	80 00 00 00 	nop
    2d00:	80 70 00 0f 	movc2g gr7
    2d04:	94 70 1d 35 	movigl gr7 1d3 <.L0 >
    2d08:	94 70 00 01 	movigh gr7 0 <_cla_int_entry_group0_0>
    2d0c:	95 74 00 15 	movigl gr23 4001 <.L0 +0x12>
    2d10:	95 70 00 01 	movigh gr23 0 <_cla_int_entry_group0_0>
    2d14:	80 05 c0 0b 	movg2c gr23
    2d18:	84 c3 17 00 	add gr12 gr12 gr23
    2d1c:	84 d3 47 06 	xor gr13 gr13 gr7
    2d20:	84 e3 8c 00 	add gr14 gr14 gr12
    2d24:	84 f3 cd 06 	xor gr15 gr15 gr13
    2d28:	84 c3 0f 00 	add gr12 gr12 gr15
    2d2c:	80 00 00 00 	nop
    2d30:	80 80 00 0f 	movc2g gr8
    2d34:	94 80 1d 45 	movigl gr8 1d4 <.L0 +0x1>
    2d38:	94 80 00 01 	movigh gr8 0 <_cla_int_entry_group0_0>
    2d3c:	95 84 00 15 	movigl gr24 4001 <.L0 +0x12>
    2d40:	95 80 00 01 	movigh gr24 0 <_cla_int_entry_group0_0>
    2d44:	80 06 00 0b 	movg2c gr24
    2d48:	84 c3 18 00 	add gr12 gr12 gr24
    2d4c:	84 d3 48 06 	xor gr13 gr13 gr8
    2d50:	84 e3 8c 00 	add gr14 gr14 gr12
    2d54:	84 f3 cd 06 	xor gr15 gr15 gr13
    2d58:	84 c3 0f 00 	add gr12 gr12 gr15
    2d5c:	80 00 00 00 	nop
    2d60:	80 90 00 0f 	movc2g gr9
    2d64:	94 90 1d 55 	movigl gr9 1d5 <.L0 +0x2>
    2d68:	94 90 00 01 	movigh gr9 0 <_cla_int_entry_group0_0>
    2d6c:	95 94 01 15 	movigl gr25 4011 <.L0 +0x7>
    2d70:	95 90 00 01 	movigh gr25 0 <_cla_int_entry_group0_0>
    2d74:	80 06 40 0b 	movg2c gr25
    2d78:	84 c3 19 00 	add gr12 gr12 gr25
    2d7c:	84 d3 49 06 	xor gr13 gr13 gr9
    2d80:	84 e3 8c 00 	add gr14 gr14 gr12
    2d84:	84 f3 cd 06 	xor gr15 gr15 gr13
    2d88:	84 c3 0f 00 	add gr12 gr12 gr15
    2d8c:	80 00 00 00 	nop
    2d90:	80 a0 00 0f 	movc2g gr10
    2d94:	94 a0 1d 65 	movigl gr10 1d6 <.L0 +0x3>
    2d98:	94 a0 00 01 	movigh gr10 0 <_cla_int_entry_group0_0>
    2d9c:	95 a4 00 15 	movigl gr26 4001 <.L0 +0x12>
    2da0:	95 a0 00 01 	movigh gr26 0 <_cla_int_entry_group0_0>
    2da4:	80 06 80 0b 	movg2c gr26
    2da8:	84 c3 1a 00 	add gr12 gr12 gr26
    2dac:	84 d3 4a 06 	xor gr13 gr13 gr10
    2db0:	84 e3 8c 00 	add gr14 gr14 gr12
    2db4:	84 f3 cd 06 	xor gr15 gr15 gr13
    2db8:	84 c3 0f 00 	add gr12 gr12 gr15
    2dbc:	80 00 00 00 	nop
    2dc0:	80 b0 00 0f 	movc2g gr11
    2dc4:	94 b0 1d 75 	movigl gr11 1d7 <.L0 +0x4>
    2dc8:	94 b0 00 01 	movigh gr11 0 <_cla_int_entry_group0_0>
    2dcc:	95 b4 00 15 	movigl gr27 4001 <.L0 +0x12>
    2dd0:	95 b0 00 01 	movigh gr27 0 <_cla_int_entry_group0_0>
    2dd4:	80 06 c0 0b 	movg2c gr27
    2dd8:	84 c3 1b 00 	add gr12 gr12 gr27
    2ddc:	84 d3 4b 06 	xor gr13 gr13 gr11
    2de0:	84 e3 8c 00 	add gr14 gr14 gr12
    2de4:	84 f3 cd 06 	xor gr15 gr15 gr13
    2de8:	84 c3 0f 00 	add gr12 gr12 gr15
    2dec:	80 00 00 00 	nop
    2df0:	80 40 00 0f 	movc2g gr4
    2df4:	94 40 1d 85 	movigl gr4 1d8 <.L0 +0x5>
    2df8:	94 40 00 01 	movigh gr4 0 <_cla_int_entry_group0_0>
    2dfc:	95 44 01 15 	movigl gr20 4011 <.L0 +0x7>
    2e00:	95 40 00 01 	movigh gr20 0 <_cla_int_entry_group0_0>
    2e04:	80 05 00 0b 	movg2c gr20
    2e08:	84 c3 14 00 	add gr12 gr12 gr20
    2e0c:	84 d3 44 06 	xor gr13 gr13 gr4
    2e10:	84 e3 8c 00 	add gr14 gr14 gr12
    2e14:	84 f3 cd 06 	xor gr15 gr15 gr13
    2e18:	84 c3 0f 00 	add gr12 gr12 gr15
    2e1c:	80 00 00 00 	nop
    2e20:	80 50 00 0f 	movc2g gr5
    2e24:	94 50 1d 95 	movigl gr5 1d9 <.L0 +0x6>
    2e28:	94 50 00 01 	movigh gr5 0 <_cla_int_entry_group0_0>
    2e2c:	95 54 00 15 	movigl gr21 4001 <.L0 +0x12>
    2e30:	95 50 00 01 	movigh gr21 0 <_cla_int_entry_group0_0>
    2e34:	80 05 40 0b 	movg2c gr21
    2e38:	84 c3 15 00 	add gr12 gr12 gr21
    2e3c:	84 d3 45 06 	xor gr13 gr13 gr5
    2e40:	84 e3 8c 00 	add gr14 gr14 gr12
    2e44:	84 f3 cd 06 	xor gr15 gr15 gr13
    2e48:	84 c3 0f 00 	add gr12 gr12 gr15
    2e4c:	80 00 00 00 	nop
    2e50:	80 60 00 0f 	movc2g gr6
    2e54:	94 60 1d a5 	movigl gr6 1da <.L0 +0x7>
    2e58:	94 60 00 01 	movigh gr6 0 <_cla_int_entry_group0_0>
    2e5c:	95 64 00 15 	movigl gr22 4001 <.L0 +0x12>
    2e60:	95 60 00 01 	movigh gr22 0 <_cla_int_entry_group0_0>
    2e64:	80 05 80 0b 	movg2c gr22
    2e68:	84 c3 16 00 	add gr12 gr12 gr22
    2e6c:	84 d3 46 06 	xor gr13 gr13 gr6
    2e70:	84 e3 8c 00 	add gr14 gr14 gr12
    2e74:	84 f3 cd 06 	xor gr15 gr15 gr13
    2e78:	84 c3 0f 00 	add gr12 gr12 gr15
    2e7c:	80 00 00 00 	nop
    2e80:	80 70 00 0f 	movc2g gr7
    2e84:	94 70 1d b5 	movigl gr7 1db <.L0 +0x8>
    2e88:	94 70 00 01 	movigh gr7 0 <_cla_int_entry_group0_0>
    2e8c:	95 74 01 15 	movigl gr23 4011 <.L0 +0x7>
    2e90:	95 70 00 01 	movigh gr23 0 <_cla_int_entry_group0_0>
    2e94:	80 05 c0 0b 	movg2c gr23
    2e98:	84 c3 17 00 	add gr12 gr12 gr23
    2e9c:	84 d3 47 06 	xor gr13 gr13 gr7
    2ea0:	84 e3 8c 00 	add gr14 gr14 gr12
    2ea4:	84 f3 cd 06 	xor gr15 gr15 gr13
    2ea8:	84 c3 0f 00 	add gr12 gr12 gr15
    2eac:	80 00 00 00 	nop
    2eb0:	80 80 00 0f 	movc2g gr8
    2eb4:	94 80 1d c5 	movigl gr8 1dc <.L0 +0x9>
    2eb8:	94 80 00 01 	movigh gr8 0 <_cla_int_entry_group0_0>
    2ebc:	95 84 00 15 	movigl gr24 4001 <.L0 +0x12>
    2ec0:	95 80 00 01 	movigh gr24 0 <_cla_int_entry_group0_0>
    2ec4:	80 06 00 0b 	movg2c gr24
    2ec8:	84 c3 18 00 	add gr12 gr12 gr24
    2ecc:	84 d3 48 06 	xor gr13 gr13 gr8
    2ed0:	84 e3 8c 00 	add gr14 gr14 gr12
    2ed4:	84 f3 cd 06 	xor gr15 gr15 gr13
    2ed8:	84 c3 0f 00 	add gr12 gr12 gr15
    2edc:	80 00 00 00 	nop
    2ee0:	80 90 00 0f 	movc2g gr9
    2ee4:	94 90 1d d5 	movigl gr9 1dd <.L0 +0xa>
    2ee8:	94 90 00 01 	movigh gr9 0 <_cla_int_entry_group0_0>
    2eec:	95 94 00 15 	movigl gr25 4001 <.L0 +0x12>
    2ef0:	95 90 00 01 	movigh gr25 0 <_cla_int_entry_group0_0>
    2ef4:	80 06 40 0b 	movg2c gr25
    2ef8:	84 c3 19 00 	add gr12 gr12 gr25
    2efc:	84 d3 49 06 	xor gr13 gr13 gr9
    2f00:	84 e3 8c 00 	add gr14 gr14 gr12
    2f04:	84 f3 cd 06 	xor gr15 gr15 gr13
    2f08:	84 c3 0f 00 	add gr12 gr12 gr15
    2f0c:	80 00 00 00 	nop
    2f10:	80 a0 00 0f 	movc2g gr10
    2f14:	94 a0 1d e5 	movigl gr10 1de <.L0 +0xb>
    2f18:	94 a0 00 01 	movigh gr10 0 <_cla_int_entry_group0_0>
    2f1c:	95 a4 01 15 	movigl gr26 4011 <.L0 +0x7>
    2f20:	95 a0 00 01 	movigh gr26 0 <_cla_int_entry_group0_0>
    2f24:	80 06 80 0b 	movg2c gr26
    2f28:	84 c3 1a 00 	add gr12 gr12 gr26
    2f2c:	84 d3 4a 06 	xor gr13 gr13 gr10
    2f30:	84 e3 8c 00 	add gr14 gr14 gr12
    2f34:	84 f3 cd 06 	xor gr15 gr15 gr13
    2f38:	84 c3 0f 00 	add gr12 gr12 gr15
    2f3c:	80 00 00 00 	nop
    2f40:	80 b0 00 0f 	movc2g gr11
    2f44:	94 b0 1d f5 	movigl gr11 1df <.L0 +0xc>
    2f48:	94 b0 00 01 	movigh gr11 0 <_cla_int_entry_group0_0>
    2f4c:	95 b4 00 15 	movigl gr27 4001 <.L0 +0x12>
    2f50:	95 b0 00 01 	movigh gr27 0 <_cla_int_entry_group0_0>
    2f54:	80 06 c0 0b 	movg2c gr27
    2f58:	84 c3 1b 00 	add gr12 gr12 gr27
    2f5c:	84 d3 4b 06 	xor gr13 gr13 gr11
    2f60:	84 e3 8c 00 	add gr14 gr14 gr12
    2f64:	84 f3 cd 06 	xor gr15 gr15 gr13
    2f68:	84 c3 0f 00 	add gr12 gr12 gr15
    2f6c:	80 00 00 00 	nop
    2f70:	80 40 00 0f 	movc2g gr4
    2f74:	94 40 1e 05 	movigl gr4 1e0 <.L0 +0xd>
    2f78:	94 40 00 01 	movigh gr4 0 <_cla_int_entry_group0_0>
    2f7c:	95 44 00 15 	movigl gr20 4001 <.L0 +0x12>
    2f80:	95 40 00 01 	movigh gr20 0 <_cla_int_entry_group0_0>
    2f84:	80 05 00 0b 	movg2c gr20
    2f88:	84 c3 14 00 	add gr12 gr12 gr20
    2f8c:	84 d3 44 06 	xor gr13 gr13 gr4
    2f90:	84 e3 8c 00 	add gr14 gr14 gr12
    2f94:	84 f3 cd 06 	xor gr15 gr15 gr13
    2f98:	84 c3 0f 00 	add gr12 gr12 gr15
    2f9c:	80 00 00 00 	nop
    2fa0:	80 50 00 0f 	movc2g gr5
    2fa4:	94 50 1e 15 	movigl gr5 1e1 <.L0 +0xe>
    2fa8:	94 50 00 01 	movigh gr5 0 <_cla_int_entry_group0_0>
    2fac:	95 54 01 15 	movigl gr21 4011 <.L0 +0x7>
    2fb0:	95 50 00 01 	movigh gr21 0 <_cla_int_entry_group0_0>
    2fb4:	80 05 40 0b 	movg2c gr21
    2fb8:	84 c3 15 00 	add gr12 gr12 gr21
    2fbc:	84 d3 45 06 	xor gr13 gr13 gr5
    2fc0:	84 e3 8c 00 	add gr14 gr14 gr12
    2fc4:	84 f3 cd 06 	xor gr15 gr15 gr13
    2fc8:	84 c3 0f 00 	add gr12 gr12 gr15
    2fcc:	80 00 00 00 	nop
    2fd0:	80 60 00 0f 	movc2g gr6
    2fd4:	94 60 1e 25 	movigl gr6 1e2 <.L0 +0xf>
    2fd8:	94 60 00 01 	movigh gr6 0 <_cla_int_entry_group0_0>
    2fdc:	95 64 00 15 	movigl gr22 4001 <.L0 +0x12>
    2fe0:	95 60 00 01 	movigh gr22 0 <_cla_int_entry_group0_0>
    2fe4:	80 05 80 0b 	movg2c gr22
    2fe8:	84 c3 16 00 	add gr12 gr12 gr22
    2fec:	84 d3 46 06 	xor gr13 gr13 gr6
    2ff0:	84 e3 8c 00 	add gr14 gr14 gr12
    2ff4:	84 f3 cd 06 	xor gr15 gr15 gr13
    2ff8:	84 c3 0f 00 	add gr12 gr12 gr15
    2ffc:	80 00 00 00 	nop
    3000:	80 70 00 0f 	movc2g gr7
    3004:	94 70 1e 35 	movigl gr7 1e3 <.L0 +0x10>
    3008:	94 70 00 01 	movigh gr7 0 <_cla_int_entry_group0_0>
    300c:	95 74 00 15 	movigl gr23 4001 <.L0 +0x12>
    3010:	95 70 00 01 	movigh gr23 0 <_cla_int_entry_group0_0>
    3014:	80 05 c0 0b 	movg2c gr23
    3018:	84 c3 17 00 	add gr12 gr12 gr23
    301c:	84 d3 47 06 	xor gr13 gr13 gr7
    3020:	84 e3 8c 00 	add gr14 gr14 gr12
    3024:	84 f3 cd 06 	xor gr15 gr15 gr13
    3028:	84 c3 0f 00 	add gr12 gr12 gr15
    302c:	80 00 00 00 	nop
    3030:	80 80 00 0f 	movc2g gr8
    3034:	94 80 1e 45 	movigl gr8 1e4 <.L0 +0x11>
    3038:	94 80 00 01 	movigh gr8 0 <_cla_int_entry_group0_0>
    303c:	95 84 01 15 	movigl gr24 4011 <.L0 +0x7>
    3040:	95 80 00 01 	movigh gr24 0 <_cla_int_entry_group0_0>
    3044:	80 06 00 0b 	movg2c gr24
    3048:	84 c3 18 00 	add gr12 gr12 gr24
    304c:	84 d3 48 06 	xor gr13 gr13 gr8
    3050:	84 e3 8c 00 	add gr14 gr14 gr12
    3054:	84 f3 cd 06 	xor gr15 gr15 gr13
    3058:	84 c3 0f 00 	add gr12 gr12 gr15
    305c:	80 00 00 00 	nop
    3060:	80 90 00 0f 	movc2g gr9
    3064:	94 90 1e 55 	movigl gr9 1e5 <.L0 +0x12>
    3068:	94 90 00 01 	movigh gr9 0 <_cla_int_entry_group0_0>
    306c:	95 94 00 15 	movigl gr25 4001 <.L0 +0x12>
    3070:	95 90 00 01 	movigh gr25 0 <_cla_int_entry_group0_0>
    3074:	80 06 40 0b 	movg2c gr25
    3078:	84 c3 19 00 	add gr12 gr12 gr25
    307c:	84 d3 49 06 	xor gr13 gr13 gr9
    3080:	84 e3 8c 00 	add gr14 gr14 gr12
    3084:	84 f3 cd 06 	xor gr15 gr15 gr13
    3088:	84 c3 0f 00 	add gr12 gr12 gr15
    308c:	80 00 00 00 	nop
    3090:	80 a0 00 0f 	movc2g gr10
    3094:	94 a0 1e 65 	movigl gr10 1e6 <.L0 +0x13>
    3098:	94 a0 00 01 	movigh gr10 0 <_cla_int_entry_group0_0>
    309c:	95 a4 00 15 	movigl gr26 4001 <.L0 +0x12>
    30a0:	95 a0 00 01 	movigh gr26 0 <_cla_int_entry_group0_0>
    30a4:	80 06 80 0b 	movg2c gr26
    30a8:	84 c3 1a 00 	add gr12 gr12 gr26
    30ac:	84 d3 4a 06 	xor gr13 gr13 gr10
    30b0:	84 e3 8c 00 	add gr14 gr14 gr12
    30b4:	84 f3 cd 06 	xor gr15 gr15 gr13
    30b8:	84 c3 0f 00 	add gr12 gr12 gr15
    30bc:	80 00 00 00 	nop
    30c0:	80 b0 00 0f 	movc2g gr11
    30c4:	94 b0 1e 75 	movigl gr11 1e7 <.L0 +0x14>
    30c8:	94 b0 00 01 	movigh gr11 0 <_cla_int_entry_group0_0>
    30cc:	95 b4 01 15 	movigl gr27 4011 <.L0 +0x7>
    30d0:	95 b0 00 01 	movigh gr27 0 <_cla_int_entry_group0_0>
    30d4:	80 06 c0 0b 	movg2c gr27
    30d8:	84 c3 1b 00 	add gr12 gr12 gr27
    30dc:	84 d3 4b 06 	xor gr13 gr13 gr11
    30e0:	84 e3 8c 00 	add gr14 gr14 gr12
    30e4:	84 f3 cd 06 	xor gr15 gr15 gr13
    30e8:	84 c3 0f 00 	add gr12 gr12 gr15
    30ec:	80 00 00 00 	nop
    30f0:	80 40 00 0f 	movc2g gr4
    30f4:	94 40 1e 85 	movigl gr4 1e8 <.L0 +0x15>
    30f8:	94 40 00 01 	movigh gr4 0 <_cla_int_entry_group0_0>
    30fc:	95 44 00 15 	movigl gr20 4001 <.L0 +0x12>
    3100:	95 40 00 01 	movigh gr20 0 <_cla_int_entry_group0_0>
    3104:	80 05 00 0b 	movg2c gr20
    3108:	84 c3 14 00 	add gr12 gr12 gr20
    310c:	84 d3 44 06 	xor gr13 gr13 gr4
    3110:	84 e3 8c 00 	add gr14 gr14 gr12
    3114:	84 f3 cd 06 	xor gr15 gr15 gr13
    3118:	84 c3 0f 00 	add gr12 gr12 gr15
    311c:	80 00 00 00 	nop
    3120:	80 50 00 0f 	movc2g gr5
    3124:	94 50 1e 95 	movigl gr5 1e9 <.L0 +0x16>
    3128:	94 50 00 01 	movigh gr5 0 <_cla_int_entry_group0_0>
    312c:	95 54 00 15 	movigl gr21 4001 <.L0 +0x12>
    3130:	95 50 00 01 	movigh gr21 0 <_cla_int_entry_group0_0>
    3134:	80 05 40 0b 	movg2c gr21
    3138:	84 c3 15 00 	add gr12 gr12 gr21
    313c:	84 d3 45 06 	xor gr13 gr13 gr5
    3140:	84 e3 8c 00 	add gr14 gr14 gr12
    3144:	84 f3 cd 06 	xor gr15 gr15 gr13
    3148:	84 c3 0f 00 	add gr12 gr12 gr15
    314c:	80 00 00 00 	nop
    3150:	80 60 00 0f 	movc2g gr6
    3154:	94 60 1e a5 	movigl gr6 1ea <.L0 +0x17>
    3158:	94 60 00 01 	movigh gr6 0 <_cla_int_entry_group0_0>
    315c:	95 64 01 15 	movigl gr22 4011 <.L0 +0x7>
    3160:	95 60 00 01 	movigh gr22 0 <_cla_int_entry_group0_0>
    3164:	80 05 80 0b 	movg2c gr22
    3168:	84 c3 16 00 	add gr12 gr12 gr22
    316c:	84 d3 46 06 	xor gr13 gr13 gr6
    3170:	84 e3 8c 00 	add gr14 gr14 gr12
    3174:	84 f3 cd 06 	xor gr15 gr15 gr13
    3178:	84 c3 0f 00 	add gr12 gr12 gr15
    317c:	80 00 00 00 	nop
    3180:	80 70 00 0f 	movc2g gr7
    3184:	94 70 1e b5 	movigl gr7 1eb <.L0 +0x18>
    3188:	94 70 00 01 	movigh gr7 0 <_cla_int_entry_group0_0>
    318c:	95 74 00 15 	movigl gr23 4001 <.L0 +0x12>
    3190:	95 70 00 01 	movigh gr23 0 <_cla_int_entry_group0_0>
    3194:	80 05 c0 0b 	movg2c gr23
    3198:	84 c3 17 00 	add gr12 gr12 gr23
    319c:	84 d3 47 06 	xor gr13 gr13 gr7
    31a0:	84 e3 8c 00 	add gr14 gr14 gr12
    31a4:	84 f3 cd 06 	xor gr15 gr15 gr13
    31a8:	84 c3 0f 00 	add gr12 gr12 gr15
    31ac:	80 00 00 00 	nop
    31b0:	80 80 00 0f 	movc2g gr8
    31b4:	94 80 1e c5 	movigl gr8 1ec <.L0 +0x19>
    31b8:	94 80 00 01 	movigh gr8 0 <_cla_int_entry_group0_0>
    31bc:	95 84 00 15 	movigl gr24 4001 <.L0 +0x12>
    31c0:	95 80 00 01 	movigh gr24 0 <_cla_int_entry_group0_0>
    31c4:	80 06 00 0b 	movg2c gr24
    31c8:	84 c3 18 00 	add gr12 gr12 gr24
    31cc:	84 d3 48 06 	xor gr13 gr13 gr8
    31d0:	84 e3 8c 00 	add gr14 gr14 gr12
    31d4:	84 f3 cd 06 	xor gr15 gr15 gr13
    31d8:	84 c3 0f 00 	add gr12 gr12 gr15
    31dc:	80 00 00 00 	nop
    31e0:	80 90 00 0f 	movc2g gr9
    31e4:	94 90 1e d5 	movigl gr9 1ed <.L0 +0x1a>
    31e8:	94 90 00 01 	movigh gr9 0 <_cla_int_entry_group0_0>
    31ec:	95 94 01 15 	movigl gr25 4011 <.L0 +0x7>
    31f0:	95 90 00 01 	movigh gr25 0 <_cla_int_entry_group0_0>
    31f4:	80 06 40 0b 	movg2c gr25
    31f8:	84 c3 19 00 	add gr12 gr12 gr25
    31fc:	84 d3 49 06 	xor gr13 gr13 gr9
    3200:	84 e3 8c 00 	add gr14 gr14 gr12
    3204:	84 f3 cd 06 	xor gr15 gr15 gr13
    3208:	84 c3 0f 00 	add gr12 gr12 gr15
    320c:	80 00 00 00 	nop
    3210:	80 a0 00 0f 	movc2g gr10
    3214:	94 a0 1e e5 	movigl gr10 1ee <.L0 +0x1b>
    3218:	94 a0 00 01 	movigh gr10 0 <_cla_int_entry_group0_0>
    321c:	95 a4 00 15 	movigl gr26 4001 <.L0 +0x12>
    3220:	95 a0 00 01 	movigh gr26 0 <_cla_int_entry_group0_0>
    3224:	80 06 80 0b 	movg2c gr26
    3228:	84 c3 1a 00 	add gr12 gr12 gr26
    322c:	84 d3 4a 06 	xor gr13 gr13 gr10
    3230:	84 e3 8c 00 	add gr14 gr14 gr12
    3234:	84 f3 cd 06 	xor gr15 gr15 gr13
    3238:	84 c3 0f 00 	add gr12 gr12 gr15
    323c:	80 00 00 00 	nop
    3240:	80 b0 00 0f 	movc2g gr11
    3244:	94 b0 1e f5 	movigl gr11 1ef <.L0 +0x1c>
    3248:	94 b0 00 01 	movigh gr11 0 <_cla_int_entry_group0_0>
    324c:	95 b4 00 15 	movigl gr27 4001 <.L0 +0x12>
    3250:	95 b0 00 01 	movigh gr27 0 <_cla_int_entry_group0_0>
    3254:	80 06 c0 0b 	movg2c gr27
    3258:	84 c3 1b 00 	add gr12 gr12 gr27
    325c:	84 d3 4b 06 	xor gr13 gr13 gr11
    3260:	84 e3 8c 00 	add gr14 gr14 gr12
    3264:	84 f3 cd 06 	xor gr15 gr15 gr13
    3268:	84 c3 0f 00 	add gr12 gr12 gr15
    326c:	80 00 00 00 	nop
    3270:	80 40 00 0f 	movc2g gr4
    3274:	94 40 1f 05 	movigl gr4 1f0 <.L0 +0x1d>
    3278:	94 40 00 01 	movigh gr4 0 <_cla_int_entry_group0_0>
    327c:	95 44 01 15 	movigl gr20 4011 <.L0 +0x7>
    3280:	95 40 00 01 	movigh gr20 0 <_cla_int_entry_group0_0>
    3284:	80 05 00 0b 	movg2c gr20
    3288:	84 c3 14 00 	add gr12 gr12 gr20
    328c:	84 d3 44 06 	xor gr13 gr13 gr4
    3290:	84 e3 8c 00 	add gr14 gr14 gr12
    3294:	84 f3 cd 06 	xor gr15 gr15 gr13
    3298:	84 c3 0f 00 	add gr12 gr12 gr15
    329c:	80 00 00 00 	nop
    32a0:	80 50 00 0f 	movc2g gr5
    32a4:	94 50 1f 15 	movigl gr5 1f1 <.L0 +0x1e>
    32a8:	94 50 00 01 	movigh gr5 0 <_cla_int_entry_group0_0>
    32ac:	95 54 00 15 	movigl gr21 4001 <.L0 +0x12>
    32b0:	95 50 00 01 	movigh gr21 0 <_cla_int_entry_group0_0>
    32b4:	80 05 40 0b 	movg2c gr21
    32b8:	84 c3 15 00 	add gr12 gr12 gr21
    32bc:	84 d3 45 06 	xor gr13 gr13 gr5
    32c0:	84 e3 8c 00 	add gr14 gr14 gr12
    32c4:	84 f3 cd 06 	xor gr15 gr15 gr13
    32c8:	84 c3 0f 00 	add gr12 gr12 gr15
    32cc:	80 00 00 00 	nop
    32d0:	80 60 00 0f 	movc2g gr6
    32d4:	94 60 1f 25 	movigl gr6 1f2 <.L0 +0x1f>
    32d8:	94 60 00 01 	movigh gr6 0 <_cla_int_entry_group0_0>
    32dc:	95 64 00 15 	movigl gr22 4001 <.L0 +0x12>
    32e0:	95 60 00 01 	movigh gr22 0 <_cla_int_entry_group0_0>
    32e4:	80 05 80 0b 	movg2c gr22
    32e8:	84 c3 16 00 	add gr12 gr12 gr22
    32ec:	84 d3 46 06 	xor gr13 gr13 gr6
    32f0:	84 e3 8c 00 	add gr14 gr14 gr12
    32f4:	84 f3 cd 06 	xor gr15 gr15 gr13
    32f8:	84 c3 0f 00 	add gr12 gr12 gr15
    32fc:	80 00 00 00 	nop
    3300:	80 70 00 0f 	movc2g gr7
    3304:	94 70 1f 35 	movigl gr7 1f3 <.L0 +0x20>
    3308:	94 70 00 01 	movigh gr7 0 <_cla_int_entry_group0_0>
    330c:	95 74 01 15 	movigl gr23 4011 <.L0 +0x7>
    3310:	95 70 00 01 	movigh gr23 0 <_cla_int_entry_group0_0>
    3314:	80 05 c0 0b 	movg2c gr23
    3318:	84 c3 17 00 	add gr12 gr12 gr23
    331c:	84 d3 47 06 	xor gr13 gr13 gr7
    3320:	84 e3 8c 00 	add gr14 gr14 gr12
    3324:	84 f3 cd 06 	xor gr15 gr15 gr13
    3328:	84 c3 0f 00 	add gr12 gr12 gr15
    332c:	80 00 00 00 	nop
    3330:	80 80 00 0f 	movc2g gr8
    3334:	94 80 1f 45 	movigl gr8 1f4 <.L0 +0x21>
    3338:	94 80 00 01 	movigh gr8 0 <_cla_int_entry_group0_0>
    333c:	95 84 00 15 	movigl gr24 4001 <.L0 +0x12>
    3340:	95 80 00 01 	movigh gr24 0 <_cla_int_entry_group0_0>
    3344:	80 06 00 0b 	movg2c gr24
    3348:	84 c3 18 00 	add gr12 gr12 gr24
    334c:	84 d3 48 06 	xor gr13 gr13 gr8
    3350:	84 e3 8c 00 	add gr14 gr14 gr12
    3354:	84 f3 cd 06 	xor gr15 gr15 gr13
    3358:	84 c3 0f 00 	add gr12 gr12 gr15
    335c:	80 00 00 00 	nop
    3360:	80 90 00 0f 	movc2g gr9
    3364:	94 90 1f 55 	movigl gr9 1f5 <.L0 +0x22>
    3368:	94 90 00 01 	movigh gr9 0 <_cla_int_entry_group0_0>
    336c:	95 94 00 15 	movigl gr25 4001 <.L0 +0x12>
    3370:	95 90 00 01 	movigh gr25 0 <_cla_int_entry_group0_0>
    3374:	80 06 40 0b 	movg2c gr25
    3378:	84 c3 19 00 	add gr12 gr12 gr25
    337c:	84 d3 49 06 	xor gr13 gr13 gr9
    3380:	84 e3 8c 00 	add gr14 gr14 gr12
    3384:	84 f3 cd 06 	xor gr15 gr15 gr13
    3388:	84 c3 0f 00 	add gr12 gr12 gr15
    338c:	80 00 00 00 	nop
    3390:	80 a0 00 0f 	movc2g gr10
    3394:	94 a0 1f 65 	movigl gr10 1f6 <.L0 +0x23>
    3398:	94 a0 00 01 	movigh gr10 0 <_cla_int_entry_group0_0>
    339c:	95 a4 01 15 	movigl gr26 4011 <.L0 +0x7>
    33a0:	95 a0 00 01 	movigh gr26 0 <_cla_int_entry_group0_0>
    33a4:	80 06 80 0b 	movg2c gr26
    33a8:	84 c3 1a 00 	add gr12 gr12 gr26
    33ac:	84 d3 4a 06 	xor gr13 gr13 gr10
    33b0:	84 e3 8c 00 	add gr14 gr14 gr12
    33b4:	84 f3 cd 06 	xor gr15 gr15 gr13
    33b8:	84 c3 0f 00 	add gr12 gr12 gr15
    33bc:	80 00 00 00 	nop
    33c0:	80 b0 00 0f 	movc2g gr11
    33c4:	94 b0 1f 75 	movigl gr11 1f7 <$line_table_start0>
    33c8:	94 b0 00 01 	movigh gr11 0 <_cla_int_entry_group0_0>
    33cc:	95 b4 00 15 	movigl gr27 4001 <.L0 +0x12>
    33d0:	95 b0 00 01 	movigh gr27 0 <_cla_int_entry_group0_0>
    33d4:	80 06 c0 0b 	movg2c gr27
    33d8:	84 c3 1b 00 	add gr12 gr12 gr27
    33dc:	84 d3 4b 06 	xor gr13 gr13 gr11
    33e0:	84 e3 8c 00 	add gr14 gr14 gr12
    33e4:	84 f3 cd 06 	xor gr15 gr15 gr13
    33e8:	84 c3 0f 00 	add gr12 gr12 gr15
    33ec:	80 00 00 00 	nop
    33f0:	80 40 00 0f 	movc2g gr4
    33f4:	94 40 1f 85 	movigl gr4 1f8 <$line_table_start0+0x1>
    33f8:	94 40 00 01 	movigh gr4 0 <_cla_int_entry_group0_0>
    33fc:	95 44 00 15 	movigl gr20 4001 <.L0 +0x12>
    3400:	95 40 00 01 	movigh gr20 0 <_cla_int_entry_group0_0>
    3404:	80 05 00 0b 	movg2c gr20
    3408:	84 c3 14 00 	add gr12 gr12 gr20
    340c:	84 d3 44 06 	xor gr13 gr13 gr4
    3410:	84 e3 8c 00 	add gr14 gr14 gr12
    3414:	84 f3 cd 06 	xor gr15 gr15 gr13
    3418:	84 c3 0f 00 	add gr12 gr12 gr15
    341c:	80 00 00 00 	nop
    3420:	80 50 00 0f 	movc2g gr5
    3424:	94 50 1f 95 	movigl gr5 1f9 <$line_table_start0+0x2>
    3428:	94 50 00 01 	movigh gr5 0 <_cla_int_entry_group0_0>
    342c:	95 54 01 15 	movigl gr21 4011 <.L0 +0x7>
    3430:	95 50 00 01 	movigh gr21 0 <_cla_int_entry_group0_0>
    3434:	80 05 40 0b 	movg2c gr21
    3438:	84 c3 15 00 	add gr12 gr12 gr21
    343c:	84 d3 45 06 	xor gr13 gr13 gr5
    3440:	84 e3 8c 00 	add gr14 gr14 gr12
    3444:	84 f3 cd 06 	xor gr15 gr15 gr13
    3448:	84 c3 0f 00 	add gr12 gr12 gr15
    344c:	80 00 00 00 	nop
    3450:	80 60 00 0f 	movc2g gr6
    3454:	94 60 1f a5 	movigl gr6 1fa <$line_table_start0+0x3>
    3458:	94 60 00 01 	movigh gr6 0 <_cla_int_entry_group0_0>
    345c:	95 64 00 15 	movigl gr22 4001 <.L0 +0x12>
    3460:	95 60 00 01 	movigh gr22 0 <_cla_int_entry_group0_0>
    3464:	80 05 80 0b 	movg2c gr22
    3468:	84 c3 16 00 	add gr12 gr12 gr22
    346c:	84 d3 46 06 	xor gr13 gr13 gr6
    3470:	84 e3 8c 00 	add gr14 gr14 gr12
    3474:	84 f3 cd 06 	xor gr15 gr15 gr13
    3478:	84 c3 0f 00 	add gr12 gr12 gr15
    347c:	80 00 00 00 	nop
    3480:	80 70 00 0f 	movc2g gr7
    3484:	94 70 1f b5 	movigl gr7 1fb <$line_table_start0+0x4>
    3488:	94 70 00 01 	movigh gr7 0 <_cla_int_entry_group0_0>
    348c:	95 74 00 15 	movigl gr23 4001 <.L0 +0x12>
    3490:	95 70 00 01 	movigh gr23 0 <_cla_int_entry_group0_0>
    3494:	80 05 c0 0b 	movg2c gr23
    3498:	84 c3 17 00 	add gr12 gr12 gr23
    349c:	84 d3 47 06 	xor gr13 gr13 gr7
    34a0:	84 e3 8c 00 	add gr14 gr14 gr12
    34a4:	84 f3 cd 06 	xor gr15 gr15 gr13
    34a8:	84 c3 0f 00 	add gr12 gr12 gr15
    34ac:	80 00 00 00 	nop
    34b0:	80 80 00 0f 	movc2g gr8
    34b4:	94 80 1f c5 	movigl gr8 1fc <$line_table_start0+0x5>
    34b8:	94 80 00 01 	movigh gr8 0 <_cla_int_entry_group0_0>
    34bc:	95 84 01 15 	movigl gr24 4011 <.L0 +0x7>
    34c0:	95 80 00 01 	movigh gr24 0 <_cla_int_entry_group0_0>
    34c4:	80 06 00 0b 	movg2c gr24
    34c8:	84 c3 18 00 	add gr12 gr12 gr24
    34cc:	84 d3 48 06 	xor gr13 gr13 gr8
    34d0:	84 e3 8c 00 	add gr14 gr14 gr12
    34d4:	84 f3 cd 06 	xor gr15 gr15 gr13
    34d8:	84 c3 0f 00 	add gr12 gr12 gr15
    34dc:	80 00 00 00 	nop
    34e0:	80 90 00 0f 	movc2g gr9
    34e4:	94 90 1f d5 	movigl gr9 1fd <$line_table_start0+0x6>
    34e8:	94 90 00 01 	movigh gr9 0 <_cla_int_entry_group0_0>
    34ec:	95 94 00 15 	movigl gr25 4001 <.L0 +0x12>
    34f0:	95 90 00 01 	movigh gr25 0 <_cla_int_entry_group0_0>
    34f4:	80 06 40 0b 	movg2c gr25
    34f8:	84 c3 19 00 	add gr12 gr12 gr25
    34fc:	84 d3 49 06 	xor gr13 gr13 gr9
    3500:	84 e3 8c 00 	add gr14 gr14 gr12
    3504:	84 f3 cd 06 	xor gr15 gr15 gr13
    3508:	84 c3 0f 00 	add gr12 gr12 gr15
    350c:	80 00 00 00 	nop
    3510:	80 a0 00 0f 	movc2g gr10
    3514:	94 a0 1f e5 	movigl gr10 1fe <$line_table_start0+0x7>
    3518:	94 a0 00 01 	movigh gr10 0 <_cla_int_entry_group0_0>
    351c:	95 a4 00 15 	movigl gr26 4001 <.L0 +0x12>
    3520:	95 a0 00 01 	movigh gr26 0 <_cla_int_entry_group0_0>
    3524:	80 06 80 0b 	movg2c gr26
    3528:	84 c3 1a 00 	add gr12 gr12 gr26
    352c:	84 d3 4a 06 	xor gr13 gr13 gr10
    3530:	84 e3 8c 00 	add gr14 gr14 gr12
    3534:	84 f3 cd 06 	xor gr15 gr15 gr13
    3538:	84 c3 0f 00 	add gr12 gr12 gr15
    353c:	80 00 00 00 	nop
    3540:	80 b0 00 0f 	movc2g gr11
    3544:	94 b0 1f f5 	movigl gr11 1ff <$line_table_start0+0x8>
    3548:	94 b0 00 01 	movigh gr11 0 <_cla_int_entry_group0_0>
    354c:	95 b4 01 15 	movigl gr27 4011 <.L0 +0x7>
    3550:	95 b0 00 01 	movigh gr27 0 <_cla_int_entry_group0_0>
    3554:	80 06 c0 0b 	movg2c gr27
    3558:	84 c3 1b 00 	add gr12 gr12 gr27
    355c:	84 d3 4b 06 	xor gr13 gr13 gr11
    3560:	84 e3 8c 00 	add gr14 gr14 gr12
    3564:	84 f3 cd 06 	xor gr15 gr15 gr13
    3568:	84 c3 0f 00 	add gr12 gr12 gr15
    356c:	80 00 00 00 	nop
    3570:	80 40 00 0f 	movc2g gr4
    3574:	94 40 20 05 	movigl gr4 200 <$line_table_start0+0x9>
    3578:	94 40 00 01 	movigh gr4 0 <_cla_int_entry_group0_0>
    357c:	95 44 00 15 	movigl gr20 4001 <.L0 +0x12>
    3580:	95 40 00 01 	movigh gr20 0 <_cla_int_entry_group0_0>
    3584:	80 05 00 0b 	movg2c gr20
    3588:	84 c3 14 00 	add gr12 gr12 gr20
    358c:	84 d3 44 06 	xor gr13 gr13 gr4
    3590:	84 e3 8c 00 	add gr14 gr14 gr12
    3594:	84 f3 cd 06 	xor gr15 gr15 gr13
    3598:	84 c3 0f 00 	add gr12 gr12 gr15
    359c:	80 00 00 00 	nop
    35a0:	80 50 00 0f 	movc2g gr5
    35a4:	94 50 20 15 	movigl gr5 201 <$line_table_start0+0xa>
    35a8:	94 50 00 01 	movigh gr5 0 <_cla_int_entry_group0_0>
    35ac:	95 54 00 15 	movigl gr21 4001 <.L0 +0x12>
    35b0:	95 50 00 01 	movigh gr21 0 <_cla_int_entry_group0_0>
    35b4:	80 05 40 0b 	movg2c gr21
    35b8:	84 c3 15 00 	add gr12 gr12 gr21
    35bc:	84 d3 45 06 	xor gr13 gr13 gr5
    35c0:	84 e3 8c 00 	add gr14 gr14 gr12
    35c4:	84 f3 cd 06 	xor gr15 gr15 gr13
    35c8:	84 c3 0f 00 	add gr12 gr12 gr15
    35cc:	80 00 00 00 	nop
    35d0:	80 60 00 0f 	movc2g gr6
    35d4:	94 60 20 25 	movigl gr6 202 <$line_table_start0+0xb>
    35d8:	94 60 00 01 	movigh gr6 0 <_cla_int_entry_group0_0>
    35dc:	95 64 01 15 	movigl gr22 4011 <.L0 +0x7>
    35e0:	95 60 00 01 	movigh gr22 0 <_cla_int_entry_group0_0>
    35e4:	80 05 80 0b 	movg2c gr22
    35e8:	84 c3 16 00 	add gr12 gr12 gr22
    35ec:	84 d3 46 06 	xor gr13 gr13 gr6
    35f0:	84 e3 8c 00 	add gr14 gr14 gr12
    35f4:	84 f3 cd 06 	xor gr15 gr15 gr13
    35f8:	84 c3 0f 00 	add gr12 gr12 gr15
    35fc:	80 00 00 00 	nop
    3600:	80 70 00 0f 	movc2g gr7
    3604:	94 70 20 35 	movigl gr7 203 <$line_table_start0+0xc>
    3608:	94 70 00 01 	movigh gr7 0 <_cla_int_entry_group0_0>
    360c:	95 74 00 15 	movigl gr23 4001 <.L0 +0x12>
    3610:	95 70 00 01 	movigh gr23 0 <_cla_int_entry_group0_0>
    3614:	80 05 c0 0b 	movg2c gr23
    3618:	84 c3 17 00 	add gr12 gr12 gr23
    361c:	84 d3 47 06 	xor gr13 gr13 gr7
    3620:	84 e3 8c 00 	add gr14 gr14 gr12
    3624:	84 f3 cd 06 	xor gr15 gr15 gr13
    3628:	84 c3 0f 00 	add gr12 gr12 gr15
    362c:	80 00 00 00 	nop
    3630:	80 80 00 0f 	movc2g gr8
    3634:	94 80 20 45 	movigl gr8 204 <$line_table_start0+0xd>
    3638:	94 80 00 01 	movigh gr8 0 <_cla_int_entry_group0_0>
    363c:	95 84 00 15 	movigl gr24 4001 <.L0 +0x12>
    3640:	95 80 00 01 	movigh gr24 0 <_cla_int_entry_group0_0>
    3644:	80 06 00 0b 	movg2c gr24
    3648:	84 c3 18 00 	add gr12 gr12 gr24
    364c:	84 d3 48 06 	xor gr13 gr13 gr8
    3650:	84 e3 8c 00 	add gr14 gr14 gr12
    3654:	84 f3 cd 06 	xor gr15 gr15 gr13
    3658:	84 c3 0f 00 	add gr12 gr12 gr15
    365c:	80 00 00 00 	nop
    3660:	80 90 00 0f 	movc2g gr9
    3664:	94 90 20 55 	movigl gr9 205 <$line_table_start0+0xe>
    3668:	94 90 00 01 	movigh gr9 0 <_cla_int_entry_group0_0>
    366c:	95 94 01 15 	movigl gr25 4011 <.L0 +0x7>
    3670:	95 90 00 01 	movigh gr25 0 <_cla_int_entry_group0_0>
    3674:	80 06 40 0b 	movg2c gr25
    3678:	84 c3 19 00 	add gr12 gr12 gr25
    367c:	84 d3 49 06 	xor gr13 gr13 gr9
    3680:	84 e3 8c 00 	add gr14 gr14 gr12
    3684:	84 f3 cd 06 	xor gr15 gr15 gr13
    3688:	84 c3 0f 00 	add gr12 gr12 gr15
    368c:	80 00 00 00 	nop
    3690:	80 a0 00 0f 	movc2g gr10
    3694:	94 a0 20 65 	movigl gr10 206 <$line_table_start0+0xf>
    3698:	94 a0 00 01 	movigh gr10 0 <_cla_int_entry_group0_0>
    369c:	95 a4 00 15 	movigl gr26 4001 <.L0 +0x12>
    36a0:	95 a0 00 01 	movigh gr26 0 <_cla_int_entry_group0_0>
    36a4:	80 06 80 0b 	movg2c gr26
    36a8:	84 c3 1a 00 	add gr12 gr12 gr26
    36ac:	84 d3 4a 06 	xor gr13 gr13 gr10
    36b0:	84 e3 8c 00 	add gr14 gr14 gr12
    36b4:	84 f3 cd 06 	xor gr15 gr15 gr13
    36b8:	84 c3 0f 00 	add gr12 gr12 gr15
    36bc:	80 00 00 00 	nop
    36c0:	80 b0 00 0f 	movc2g gr11
    36c4:	94 b0 20 75 	movigl gr11 207 <$line_table_start0+0x10>
    36c8:	94 b0 00 01 	movigh gr11 0 <_cla_int_entry_group0_0>
    36cc:	95 b4 00 15 	movigl gr27 4001 <.L0 +0x12>
    36d0:	95 b0 00 01 	movigh gr27 0 <_cla_int_entry_group0_0>
    36d4:	80 06 c0 0b 	movg2c gr27
    36d8:	84 c3 1b 00 	add gr12 gr12 gr27
    36dc:	84 d3 4b 06 	xor gr13 gr13 gr11
    36e0:	84 e3 8c 00 	add gr14 gr14 gr12
    36e4:	84 f3 cd 06 	xor gr15 gr15 gr13
    36e8:	84 c3 0f 00 	add gr12 gr12 gr15
    36ec:	80 00 00 00 	nop
    36f0:	80 40 00 0f 	movc2g gr4
    36f4:	94 40 20 85 	movigl gr4 208 <$line_table_start0+0x11>
    36f8:	94 40 00 01 	movigh gr4 0 <_cla_int_entry_group0_0>
    36fc:	95 44 01 15 	movigl gr20 4011 <.L0 +0x7>
    3700:	95 40 00 01 	movigh gr20 0 <_cla_int_entry_group0_0>
    3704:	80 05 00 0b 	movg2c gr20
    3708:	84 c3 14 00 	add gr12 gr12 gr20
    370c:	84 d3 44 06 	xor gr13 gr13 gr4
    3710:	84 e3 8c 00 	add gr14 gr14 gr12
    3714:	84 f3 cd 06 	xor gr15 gr15 gr13
    3718:	84 c3 0f 00 	add gr12 gr12 gr15
    371c:	80 00 00 00 	nop
    3720:	80 50 00 0f 	movc2g gr5
    3724:	94 50 20 95 	movigl gr5 209 <$line_table_start0+0x12>
    3728:	94 50 00 01 	movigh gr5 0 <_cla_int_entry_group0_0>
    372c:	95 54 00 15 	movigl gr21 4001 <.L0 +0x12>
    3730:	95 50 00 01 	movigh gr21 0 <_cla_int_entry_group0_0>
    3734:	80 05 40 0b 	movg2c gr21
    3738:	84 c3 15 00 	add gr12 gr12 gr21
    373c:	84 d3 45 06 	xor gr13 gr13 gr5
    3740:	84 e3 8c 00 	add gr14 gr14 gr12
    3744:	84 f3 cd 06 	xor gr15 gr15 gr13
    3748:	84 c3 0f 00 	add gr12 gr12 gr15
    374c:	80 00 00 00 	nop
    3750:	80 60 00 0f 	movc2g gr6
    3754:	94 60 20 a5 	movigl gr6 20a <$line_table_start0+0x13>
    3758:	94 60 00 01 	movigh gr6 0 <_cla_int_entry_group0_0>
    375c:	95 64 00 15 	movigl gr22 4001 <.L0 +0x12>
    3760:	95 60 00 01 	movigh gr22 0 <_cla_int_entry_group0_0>
    3764:	80 05 80 0b 	movg2c gr22
    3768:	84 c3 16 00 	add gr12 gr12 gr22
    376c:	84 d3 46 06 	xor gr13 gr13 gr6
    3770:	84 e3 8c 00 	add gr14 gr14 gr12
    3774:	84 f3 cd 06 	xor gr15 gr15 gr13
    3778:	84 c3 0f 00 	add gr12 gr12 gr15
    377c:	80 00 00 00 	nop
    3780:	80 70 00 0f 	movc2g gr7
    3784:	94 70 20 b5 	movigl gr7 20b <$line_table_start0+0x14>
    3788:	94 70 00 01 	movigh gr7 0 <_cla_int_entry_group0_0>
    378c:	95 74 01 15 	movigl gr23 4011 <.L0 +0x7>
    3790:	95 70 00 01 	movigh gr23 0 <_cla_int_entry_group0_0>
    3794:	80 05 c0 0b 	movg2c gr23
    3798:	84 c3 17 00 	add gr12 gr12 gr23
    379c:	84 d3 47 06 	xor gr13 gr13 gr7
    37a0:	84 e3 8c 00 	add gr14 gr14 gr12
    37a4:	84 f3 cd 06 	xor gr15 gr15 gr13
    37a8:	84 c3 0f 00 	add gr12 gr12 gr15
    37ac:	80 00 00 00 	nop
    37b0:	80 80 00 0f 	movc2g gr8
    37b4:	94 80 20 c5 	movigl gr8 20c <$line_table_start0+0x15>
    37b8:	94 80 00 01 	movigh gr8 0 <_cla_int_entry_group0_0>
    37bc:	95 84 00 15 	movigl gr24 4001 <.L0 +0x12>
    37c0:	95 80 00 01 	movigh gr24 0 <_cla_int_entry_group0_0>
    37c4:	80 06 00 0b 	movg2c gr24
    37c8:	84 c3 18 00 	add gr12 gr12 gr24
    37cc:	84 d3 48 06 	xor gr13 gr13 gr8
    37d0:	84 e3 8c 00 	add gr14 gr14 gr12
    37d4:	84 f3 cd 06 	xor gr15 gr15 gr13
    37d8:	84 c3 0f 00 	add gr12 gr12 gr15
    37dc:	80 00 00 00 	nop
    37e0:	80 90 00 0f 	movc2g gr9
    37e4:	94 90 20 d5 	movigl gr9 20d <$line_table_start0+0x16>
    37e8:	94 90 00 01 	movigh gr9 0 <_cla_int_entry_group0_0>
    37ec:	95 94 00 15 	movigl gr25 4001 <.L0 +0x12>
    37f0:	95 90 00 01 	movigh gr25 0 <_cla_int_entry_group0_0>
    37f4:	80 06 40 0b 	movg2c gr25
    37f8:	84 c3 19 00 	add gr12 gr12 gr25
    37fc:	84 d3 49 06 	xor gr13 gr13 gr9
    3800:	84 e3 8c 00 	add gr14 gr14 gr12
    3804:	84 f3 cd 06 	xor gr15 gr15 gr13
    3808:	84 c3 0f 00 	add gr12 gr12 gr15
    380c:	80 00 00 00 	nop
    3810:	80 a0 00 0f 	movc2g gr10
    3814:	94 a0 20 e5 	movigl gr10 20e <$line_table_start0+0x17>
    3818:	94 a0 00 01 	movigh gr10 0 <_cla_int_entry_group0_0>
    381c:	95 a4 01 15 	movigl gr26 4011 <.L0 +0x7>
    3820:	95 a0 00 01 	movigh gr26 0 <_cla_int_entry_group0_0>
    3824:	80 06 80 0b 	movg2c gr26
    3828:	84 c3 1a 00 	add gr12 gr12 gr26
    382c:	84 d3 4a 06 	xor gr13 gr13 gr10
    3830:	84 e3 8c 00 	add gr14 gr14 gr12
    3834:	84 f3 cd 06 	xor gr15 gr15 gr13
    3838:	84 c3 0f 00 	add gr12 gr12 gr15
    383c:	80 00 00 00 	nop
    3840:	80 b0 00 0f 	movc2g gr11
    3844:	94 b0 20 f5 	movigl gr11 20f <$line_table_start0+0x18>
    3848:	94 b0 00 01 	movigh gr11 0 <_cla_int_entry_group0_0>
    384c:	95 b4 00 15 	movigl gr27 4001 <.L0 +0x12>
    3850:	95 b0 00 01 	movigh gr27 0 <_cla_int_entry_group0_0>
    3854:	80 06 c0 0b 	movg2c gr27
    3858:	84 c3 1b 00 	add gr12 gr12 gr27
    385c:	84 d3 4b 06 	xor gr13 gr13 gr11
    3860:	84 e3 8c 00 	add gr14 gr14 gr12
    3864:	84 f3 cd 06 	xor gr15 gr15 gr13
    3868:	84 c3 0f 00 	add gr12 gr12 gr15
    386c:	80 00 00 00 	nop
    3870:	80 40 00 0f 	movc2g gr4
    3874:	94 40 21 05 	movigl gr4 210 <$line_table_start0+0x19>
    3878:	94 40 00 01 	movigh gr4 0 <_cla_int_entry_group0_0>
    387c:	95 44 00 15 	movigl gr20 4001 <.L0 +0x12>
    3880:	95 40 00 01 	movigh gr20 0 <_cla_int_entry_group0_0>
    3884:	80 05 00 0b 	movg2c gr20
    3888:	84 c3 14 00 	add gr12 gr12 gr20
    388c:	84 d3 44 06 	xor gr13 gr13 gr4
    3890:	84 e3 8c 00 	add gr14 gr14 gr12
    3894:	84 f3 cd 06 	xor gr15 gr15 gr13
    3898:	84 c3 0f 00 	add gr12 gr12 gr15
    389c:	80 00 00 00 	nop
    38a0:	80 50 00 0f 	movc2g gr5
    38a4:	94 50 21 15 	movigl gr5 211 <$line_table_start0+0x1a>
    38a8:	94 50 00 01 	movigh gr5 0 <_cla_int_entry_group0_0>
    38ac:	95 54 01 15 	movigl gr21 4011 <.L0 +0x7>
    38b0:	95 50 00 01 	movigh gr21 0 <_cla_int_entry_group0_0>
    38b4:	80 05 40 0b 	movg2c gr21
    38b8:	84 c3 15 00 	add gr12 gr12 gr21
    38bc:	84 d3 45 06 	xor gr13 gr13 gr5
    38c0:	84 e3 8c 00 	add gr14 gr14 gr12
    38c4:	84 f3 cd 06 	xor gr15 gr15 gr13
    38c8:	84 c3 0f 00 	add gr12 gr12 gr15
    38cc:	80 00 00 00 	nop
    38d0:	80 60 00 0f 	movc2g gr6
    38d4:	94 60 21 25 	movigl gr6 212 <$line_table_start0+0x1b>
    38d8:	94 60 00 01 	movigh gr6 0 <_cla_int_entry_group0_0>
    38dc:	95 64 00 15 	movigl gr22 4001 <.L0 +0x12>
    38e0:	95 60 00 01 	movigh gr22 0 <_cla_int_entry_group0_0>
    38e4:	80 05 80 0b 	movg2c gr22
    38e8:	84 c3 16 00 	add gr12 gr12 gr22
    38ec:	84 d3 46 06 	xor gr13 gr13 gr6
    38f0:	84 e3 8c 00 	add gr14 gr14 gr12
    38f4:	84 f3 cd 06 	xor gr15 gr15 gr13
    38f8:	84 c3 0f 00 	add gr12 gr12 gr15
    38fc:	80 00 00 00 	nop
    3900:	80 70 00 0f 	movc2g gr7
    3904:	94 70 21 35 	movigl gr7 213 <$line_table_start0+0x1c>
    3908:	94 70 00 01 	movigh gr7 0 <_cla_int_entry_group0_0>
    390c:	95 74 00 15 	movigl gr23 4001 <.L0 +0x12>
    3910:	95 70 00 01 	movigh gr23 0 <_cla_int_entry_group0_0>
    3914:	80 05 c0 0b 	movg2c gr23
    3918:	84 c3 17 00 	add gr12 gr12 gr23
    391c:	84 d3 47 06 	xor gr13 gr13 gr7
    3920:	84 e3 8c 00 	add gr14 gr14 gr12
    3924:	84 f3 cd 06 	xor gr15 gr15 gr13
    3928:	84 c3 0f 00 	add gr12 gr12 gr15
    392c:	80 00 00 00 	nop
    3930:	80 80 00 0f 	movc2g gr8
    3934:	94 80 21 45 	movigl gr8 214 <$line_table_start0+0x1d>
    3938:	94 80 00 01 	movigh gr8 0 <_cla_int_entry_group0_0>
    393c:	95 84 01 15 	movigl gr24 4011 <.L0 +0x7>
    3940:	95 80 00 01 	movigh gr24 0 <_cla_int_entry_group0_0>
    3944:	80 06 00 0b 	movg2c gr24
    3948:	84 c3 18 00 	add gr12 gr12 gr24
    394c:	84 d3 48 06 	xor gr13 gr13 gr8
    3950:	84 e3 8c 00 	add gr14 gr14 gr12
    3954:	84 f3 cd 06 	xor gr15 gr15 gr13
    3958:	84 c3 0f 00 	add gr12 gr12 gr15
    395c:	80 00 00 00 	nop
    3960:	80 90 00 0f 	movc2g gr9
    3964:	94 90 21 55 	movigl gr9 215 <$line_table_start0+0x1e>
    3968:	94 90 00 01 	movigh gr9 0 <_cla_int_entry_group0_0>
    396c:	95 94 00 15 	movigl gr25 4001 <.L0 +0x12>
    3970:	95 90 00 01 	movigh gr25 0 <_cla_int_entry_group0_0>
    3974:	80 06 40 0b 	movg2c gr25
    3978:	84 c3 19 00 	add gr12 gr12 gr25
    397c:	84 d3 49 06 	xor gr13 gr13 gr9
    3980:	84 e3 8c 00 	add gr14 gr14 gr12
    3984:	84 f3 cd 06 	xor gr15 gr15 gr13
    3988:	84 c3 0f 00 	add gr12 gr12 gr15
    398c:	80 00 00 00 	nop
    3990:	80 a0 00 0f 	movc2g gr10
    3994:	94 a0 21 65 	movigl gr10 216 <$line_table_start0+0x1f>
    3998:	94 a0 00 01 	movigh gr10 0 <_cla_int_entry_group0_0>
    399c:	95 a4 00 15 	movigl gr26 4001 <.L0 +0x12>
    39a0:	95 a0 00 01 	movigh gr26 0 <_cla_int_entry_group0_0>
    39a4:	80 06 80 0b 	movg2c gr26
    39a8:	84 c3 1a 00 	add gr12 gr12 gr26
    39ac:	84 d3 4a 06 	xor gr13 gr13 gr10
    39b0:	84 e3 8c 00 	add gr14 gr14 gr12
    39b4:	84 f3 cd 06 	xor gr15 gr15 gr13
    39b8:	84 c3 0f 00 	add gr12 gr12 gr15
    39bc:	80 00 00 00 	nop
    39c0:	80 b0 00 0f 	movc2g gr11
    39c4:	94 b0 21 75 	movigl gr11 217 <$line_table_start0+0x20>
    39c8:	94 b0 00 01 	movigh gr11 0 <_cla_int_entry_group0_0>
    39cc:	95 b4 01 15 	movigl gr27 4011 <.L0 +0x7>
    39d0:	95 b0 00 01 	movigh gr27 0 <_cla_int_entry_group0_0>
    39d4:	80 06 c0 0b 	movg2c gr27
    39d8:	84 c3 1b 00 	add gr12 gr12 gr27
    39dc:	84 d3 4b 06 	xor gr13 gr13 gr11
    39e0:	84 e3 8c 00 	add gr14 gr14 gr12
    39e4:	84 f3 cd 06 	xor gr15 gr15 gr13
    39e8:	84 c3 0f 00 	add gr12 gr12 gr15
    39ec:	80 00 00 00 	nop
    39f0:	80 40 00 0f 	movc2g gr4
    39f4:	94 40 21 85 	movigl gr4 218 <$line_table_start0+0x21>
    39f8:	94 40 00 01 	movigh gr4 0 <_cla_int_entry_group0_0>
    39fc:	95 44 00 15 	movigl gr20 4001 <.L0 +0x12>
    3a00:	95 40 00 01 	movigh gr20 0 <_cla_int_entry_group0_0>
    3a04:	80 05 00 0b 	movg2c gr20
    3a08:	84 c3 14 00 	add gr12 gr12 gr20
    3a0c:	84 d3 44 06 	xor gr13 gr13 gr4
    3a10:	84 e3 8c 00 	add gr14 gr14 gr12
    3a14:	84 f3 cd 06 	xor gr15 gr15 gr13
    3a18:	84 c3 0f 00 	add gr12 gr12 gr15
    3a1c:	80 00 00 00 	nop
    3a20:	80 50 00 0f 	movc2g gr5
    3a24:	94 50 21 95 	movigl gr5 219 <$line_table_start0+0x22>
    3a28:	94 50 00 01 	movigh gr5 0 <_cla_int_entry_group0_0>
    3a2c:	95 54 00 15 	movigl gr21 4001 <.L0 +0x12>
    3a30:	95 50 00 01 	movigh gr21 0 <_cla_int_entry_group0_0>
    3a34:	80 05 40 0b 	movg2c gr21
    3a38:	84 c3 15 00 	add gr12 gr12 gr21
    3a3c:	84 d3 45 06 	xor gr13 gr13 gr5
    3a40:	84 e3 8c 00 	add gr14 gr14 gr12
    3a44:	84 f3 cd 06 	xor gr15 gr15 gr13
    3a48:	84 c3 0f 00 	add gr12 gr12 gr15
    3a4c:	80 00 00 00 	nop
    3a50:	80 60 00 0f 	movc2g gr6
    3a54:	94 60 21 a5 	movigl gr6 21a <.L0 >
    3a58:	94 60 00 01 	movigh gr6 0 <_cla_int_entry_group0_0>
    3a5c:	95 64 01 15 	movigl gr22 4011 <.L0 +0x7>
    3a60:	95 60 00 01 	movigh gr22 0 <_cla_int_entry_group0_0>
    3a64:	80 05 80 0b 	movg2c gr22
    3a68:	84 c3 16 00 	add gr12 gr12 gr22
    3a6c:	84 d3 46 06 	xor gr13 gr13 gr6
    3a70:	84 e3 8c 00 	add gr14 gr14 gr12
    3a74:	84 f3 cd 06 	xor gr15 gr15 gr13
    3a78:	84 c3 0f 00 	add gr12 gr12 gr15
    3a7c:	80 00 00 00 	nop
    3a80:	80 70 00 0f 	movc2g gr7
    3a84:	94 70 21 b5 	movigl gr7 21b <.L0 +0x1>
    3a88:	94 70 00 01 	movigh gr7 0 <_cla_int_entry_group0_0>
    3a8c:	95 74 00 15 	movigl gr23 4001 <.L0 +0x12>
    3a90:	95 70 00 01 	movigh gr23 0 <_cla_int_entry_group0_0>
    3a94:	80 05 c0 0b 	movg2c gr23
    3a98:	84 c3 17 00 	add gr12 gr12 gr23
    3a9c:	84 d3 47 06 	xor gr13 gr13 gr7
    3aa0:	84 e3 8c 00 	add gr14 gr14 gr12
    3aa4:	84 f3 cd 06 	xor gr15 gr15 gr13
    3aa8:	84 c3 0f 00 	add gr12 gr12 gr15
    3aac:	80 00 00 00 	nop
    3ab0:	80 80 00 0f 	movc2g gr8
    3ab4:	94 80 21 c5 	movigl gr8 21c <.L0 +0x2>
    3ab8:	94 80 00 01 	movigh gr8 0 <_cla_int_entry_group0_0>
    3abc:	95 84 00 15 	movigl gr24 4001 <.L0 +0x12>
    3ac0:	95 80 00 01 	movigh gr24 0 <_cla_int_entry_group0_0>
    3ac4:	80 06 00 0b 	movg2c gr24
    3ac8:	84 c3 18 00 	add gr12 gr12 gr24
    3acc:	84 d3 48 06 	xor gr13 gr13 gr8
    3ad0:	84 e3 8c 00 	add gr14 gr14 gr12
    3ad4:	84 f3 cd 06 	xor gr15 gr15 gr13
    3ad8:	84 c3 0f 00 	add gr12 gr12 gr15
    3adc:	80 00 00 00 	nop
    3ae0:	80 90 00 0f 	movc2g gr9
    3ae4:	94 90 21 d5 	movigl gr9 21d <.L0 +0x3>
    3ae8:	94 90 00 01 	movigh gr9 0 <_cla_int_entry_group0_0>
    3aec:	95 94 01 15 	movigl gr25 4011 <.L0 +0x7>
    3af0:	95 90 00 01 	movigh gr25 0 <_cla_int_entry_group0_0>
    3af4:	80 06 40 0b 	movg2c gr25
    3af8:	84 c3 19 00 	add gr12 gr12 gr25
    3afc:	84 d3 49 06 	xor gr13 gr13 gr9
    3b00:	84 e3 8c 00 	add gr14 gr14 gr12
    3b04:	84 f3 cd 06 	xor gr15 gr15 gr13
    3b08:	84 c3 0f 00 	add gr12 gr12 gr15
    3b0c:	80 00 00 00 	nop
    3b10:	80 a0 00 0f 	movc2g gr10
    3b14:	94 a0 21 e5 	movigl gr10 21e <.L0 +0x4>
    3b18:	94 a0 00 01 	movigh gr10 0 <_cla_int_entry_group0_0>
    3b1c:	95 a4 00 15 	movigl gr26 4001 <.L0 +0x12>
    3b20:	95 a0 00 01 	movigh gr26 0 <_cla_int_entry_group0_0>
    3b24:	80 06 80 0b 	movg2c gr26
    3b28:	84 c3 1a 00 	add gr12 gr12 gr26
    3b2c:	84 d3 4a 06 	xor gr13 gr13 gr10
    3b30:	84 e3 8c 00 	add gr14 gr14 gr12
    3b34:	84 f3 cd 06 	xor gr15 gr15 gr13
    3b38:	84 c3 0f 00 	add gr12 gr12 gr15
    3b3c:	80 00 00 00 	nop
    3b40:	80 b0 00 0f 	movc2g gr11
    3b44:	94 b0 21 f5 	movigl gr11 21f <.L0 +0x5>
    3b48:	94 b0 00 01 	movigh gr11 0 <_cla_int_entry_group0_0>
    3b4c:	95 b4 00 15 	movigl gr27 4001 <.L0 +0x12>
    3b50:	95 b0 00 01 	movigh gr27 0 <_cla_int_entry_group0_0>
    3b54:	80 06 c0 0b 	movg2c gr27
    3b58:	84 c3 1b 00 	add gr12 gr12 gr27
    3b5c:	84 d3 4b 06 	xor gr13 gr13 gr11
    3b60:	84 e3 8c 00 	add gr14 gr14 gr12
    3b64:	84 f3 cd 06 	xor gr15 gr15 gr13
    3b68:	84 c3 0f 00 	add gr12 gr12 gr15
    3b6c:	80 00 00 00 	nop
    3b70:	80 40 00 0f 	movc2g gr4
    3b74:	94 40 22 05 	movigl gr4 220 <Cla1Task3>
    3b78:	94 40 00 01 	movigh gr4 0 <_cla_int_entry_group0_0>
    3b7c:	95 44 01 15 	movigl gr20 4011 <.L0 +0x7>
    3b80:	95 40 00 01 	movigh gr20 0 <_cla_int_entry_group0_0>
    3b84:	80 05 00 0b 	movg2c gr20
    3b88:	84 c3 14 00 	add gr12 gr12 gr20
    3b8c:	84 d3 44 06 	xor gr13 gr13 gr4
    3b90:	84 e3 8c 00 	add gr14 gr14 gr12
    3b94:	84 f3 cd 06 	xor gr15 gr15 gr13
    3b98:	84 c3 0f 00 	add gr12 gr12 gr15
    3b9c:	80 00 00 00 	nop
    3ba0:	80 50 00 0f 	movc2g gr5
    3ba4:	94 50 22 15 	movigl gr5 221 <Cla1Task3+0x1>
    3ba8:	94 50 00 01 	movigh gr5 0 <_cla_int_entry_group0_0>
    3bac:	95 54 00 15 	movigl gr21 4001 <.L0 +0x12>
    3bb0:	95 50 00 01 	movigh gr21 0 <_cla_int_entry_group0_0>
    3bb4:	80 05 40 0b 	movg2c gr21
    3bb8:	84 c3 15 00 	add gr12 gr12 gr21
    3bbc:	84 d3 45 06 	xor gr13 gr13 gr5
    3bc0:	84 e3 8c 00 	add gr14 gr14 gr12
    3bc4:	84 f3 cd 06 	xor gr15 gr15 gr13
    3bc8:	84 c3 0f 00 	add gr12 gr12 gr15
    3bcc:	80 00 00 00 	nop
    3bd0:	80 60 00 0f 	movc2g gr6
    3bd4:	94 60 22 25 	movigl gr6 222 <Cla1Task3+0x2>
    3bd8:	94 60 00 01 	movigh gr6 0 <_cla_int_entry_group0_0>
    3bdc:	95 64 00 15 	movigl gr22 4001 <.L0 +0x12>
    3be0:	95 60 00 01 	movigh gr22 0 <_cla_int_entry_group0_0>
    3be4:	80 05 80 0b 	movg2c gr22
    3be8:	84 c3 16 00 	add gr12 gr12 gr22
    3bec:	84 d3 46 06 	xor gr13 gr13 gr6
    3bf0:	84 e3 8c 00 	add gr14 gr14 gr12
    3bf4:	84 f3 cd 06 	xor gr15 gr15 gr13
    3bf8:	84 c3 0f 00 	add gr12 gr12 gr15
    3bfc:	80 00 00 00 	nop
    3c00:	80 70 00 0f 	movc2g gr7
    3c04:	94 70 22 35 	movigl gr7 223 <Cla1Task3+0x3>
    3c08:	94 70 00 01 	movigh gr7 0 <_cla_int_entry_group0_0>
    3c0c:	95 74 01 15 	movigl gr23 4011 <.L0 +0x7>
    3c10:	95 70 00 01 	movigh gr23 0 <_cla_int_entry_group0_0>
    3c14:	80 05 c0 0b 	movg2c gr23
    3c18:	84 c3 17 00 	add gr12 gr12 gr23
    3c1c:	84 d3 47 06 	xor gr13 gr13 gr7
    3c20:	84 e3 8c 00 	add gr14 gr14 gr12
    3c24:	84 f3 cd 06 	xor gr15 gr15 gr13
    3c28:	84 c3 0f 00 	add gr12 gr12 gr15
    3c2c:	80 00 00 00 	nop
    3c30:	80 80 00 0f 	movc2g gr8
    3c34:	94 80 22 45 	movigl gr8 224 <Cla1Task3+0x4>
    3c38:	94 80 00 01 	movigh gr8 0 <_cla_int_entry_group0_0>
    3c3c:	95 84 00 15 	movigl gr24 4001 <.L0 +0x12>
    3c40:	95 80 00 01 	movigh gr24 0 <_cla_int_entry_group0_0>
    3c44:	80 06 00 0b 	movg2c gr24
    3c48:	84 c3 18 00 	add gr12 gr12 gr24
    3c4c:	84 d3 48 06 	xor gr13 gr13 gr8
    3c50:	84 e3 8c 00 	add gr14 gr14 gr12
    3c54:	84 f3 cd 06 	xor gr15 gr15 gr13
    3c58:	84 c3 0f 00 	add gr12 gr12 gr15
    3c5c:	80 00 00 00 	nop
    3c60:	80 90 00 0f 	movc2g gr9
    3c64:	94 90 22 55 	movigl gr9 225 <Cla1Task3+0x5>
    3c68:	94 90 00 01 	movigh gr9 0 <_cla_int_entry_group0_0>
    3c6c:	95 94 00 15 	movigl gr25 4001 <.L0 +0x12>
    3c70:	95 90 00 01 	movigh gr25 0 <_cla_int_entry_group0_0>
    3c74:	80 06 40 0b 	movg2c gr25
    3c78:	84 c3 19 00 	add gr12 gr12 gr25
    3c7c:	84 d3 49 06 	xor gr13 gr13 gr9
    3c80:	84 e3 8c 00 	add gr14 gr14 gr12
    3c84:	84 f3 cd 06 	xor gr15 gr15 gr13
    3c88:	84 c3 0f 00 	add gr12 gr12 gr15
    3c8c:	80 00 00 00 	nop
    3c90:	80 a0 00 0f 	movc2g gr10
    3c94:	94 a0 22 65 	movigl gr10 226 <Cla1Task3+0x6>
    3c98:	94 a0 00 01 	movigh gr10 0 <_cla_int_entry_group0_0>
    3c9c:	95 a4 01 15 	movigl gr26 4011 <.L0 +0x7>
    3ca0:	95 a0 00 01 	movigh gr26 0 <_cla_int_entry_group0_0>
    3ca4:	80 06 80 0b 	movg2c gr26
    3ca8:	84 c3 1a 00 	add gr12 gr12 gr26
    3cac:	84 d3 4a 06 	xor gr13 gr13 gr10
    3cb0:	84 e3 8c 00 	add gr14 gr14 gr12
    3cb4:	84 f3 cd 06 	xor gr15 gr15 gr13
    3cb8:	84 c3 0f 00 	add gr12 gr12 gr15
    3cbc:	80 00 00 00 	nop
    3cc0:	80 b0 00 0f 	movc2g gr11
    3cc4:	94 b0 22 75 	movigl gr11 227 <Cla1Task3+0x7>
    3cc8:	94 b0 00 01 	movigh gr11 0 <_cla_int_entry_group0_0>
    3ccc:	95 b4 00 15 	movigl gr27 4001 <.L0 +0x12>
    3cd0:	95 b0 00 01 	movigh gr27 0 <_cla_int_entry_group0_0>
    3cd4:	80 06 c0 0b 	movg2c gr27
    3cd8:	84 c3 1b 00 	add gr12 gr12 gr27
    3cdc:	84 d3 4b 06 	xor gr13 gr13 gr11
    3ce0:	84 e3 8c 00 	add gr14 gr14 gr12
    3ce4:	84 f3 cd 06 	xor gr15 gr15 gr13
    3ce8:	84 c3 0f 00 	add gr12 gr12 gr15
    3cec:	80 00 00 00 	nop
    3cf0:	80 40 00 0f 	movc2g gr4
    3cf4:	94 40 22 85 	movigl gr4 228 <Cla1Task3+0x8>
    3cf8:	94 40 00 01 	movigh gr4 0 <_cla_int_entry_group0_0>
    3cfc:	95 44 00 15 	movigl gr20 4001 <.L0 +0x12>
    3d00:	95 40 00 01 	movigh gr20 0 <_cla_int_entry_group0_0>
    3d04:	80 05 00 0b 	movg2c gr20
    3d08:	84 c3 14 00 	add gr12 gr12 gr20
    3d0c:	84 d3 44 06 	xor gr13 gr13 gr4
    3d10:	84 e3 8c 00 	add gr14 gr14 gr12
    3d14:	84 f3 cd 06 	xor gr15 gr15 gr13
    3d18:	84 c3 0f 00 	add gr12 gr12 gr15
    3d1c:	80 00 00 00 	nop
    3d20:	80 50 00 0f 	movc2g gr5
    3d24:	94 50 22 95 	movigl gr5 229 <Cla1Task3+0x9>
    3d28:	94 50 00 01 	movigh gr5 0 <_cla_int_entry_group0_0>
    3d2c:	95 54 01 15 	movigl gr21 4011 <.L0 +0x7>
    3d30:	95 50 00 01 	movigh gr21 0 <_cla_int_entry_group0_0>
    3d34:	80 05 40 0b 	movg2c gr21
    3d38:	84 c3 15 00 	add gr12 gr12 gr21
    3d3c:	84 d3 45 06 	xor gr13 gr13 gr5
    3d40:	84 e3 8c 00 	add gr14 gr14 gr12
    3d44:	84 f3 cd 06 	xor gr15 gr15 gr13
    3d48:	84 c3 0f 00 	add gr12 gr12 gr15
    3d4c:	80 00 00 00 	nop
    3d50:	80 60 00 0f 	movc2g gr6
    3d54:	94 60 22 a5 	movigl gr6 22a <Cla1Task3+0xa>
    3d58:	94 60 00 01 	movigh gr6 0 <_cla_int_entry_group0_0>
    3d5c:	95 64 00 15 	movigl gr22 4001 <.L0 +0x12>
    3d60:	95 60 00 01 	movigh gr22 0 <_cla_int_entry_group0_0>
    3d64:	80 05 80 0b 	movg2c gr22
    3d68:	84 c3 16 00 	add gr12 gr12 gr22
    3d6c:	84 d3 46 06 	xor gr13 gr13 gr6
    3d70:	84 e3 8c 00 	add gr14 gr14 gr12
    3d74:	84 f3 cd 06 	xor gr15 gr15 gr13
    3d78:	84 c3 0f 00 	add gr12 gr12 gr15
    3d7c:	80 00 00 00 	nop
    3d80:	80 70 00 0f 	movc2g gr7
    3d84:	94 70 22 b5 	movigl gr7 22b <Cla1Task3+0xb>
    3d88:	94 70 00 01 	movigh gr7 0 <_cla_int_entry_group0_0>
    3d8c:	95 74 00 15 	movigl gr23 4001 <.L0 +0x12>
    3d90:	95 70 00 01 	movigh gr23 0 <_cla_int_entry_group0_0>
    3d94:	80 05 c0 0b 	movg2c gr23
    3d98:	84 c3 17 00 	add gr12 gr12 gr23
    3d9c:	84 d3 47 06 	xor gr13 gr13 gr7
    3da0:	84 e3 8c 00 	add gr14 gr14 gr12
    3da4:	84 f3 cd 06 	xor gr15 gr15 gr13
    3da8:	84 c3 0f 00 	add gr12 gr12 gr15
    3dac:	80 00 00 00 	nop
    3db0:	80 80 00 0f 	movc2g gr8
    3db4:	94 80 22 c5 	movigl gr8 22c <Cla1Task3+0xc>
    3db8:	94 80 00 01 	movigh gr8 0 <_cla_int_entry_group0_0>
    3dbc:	95 84 01 15 	movigl gr24 4011 <.L0 +0x7>
    3dc0:	95 80 00 01 	movigh gr24 0 <_cla_int_entry_group0_0>
    3dc4:	80 06 00 0b 	movg2c gr24
    3dc8:	84 c3 18 00 	add gr12 gr12 gr24
    3dcc:	84 d3 48 06 	xor gr13 gr13 gr8
    3dd0:	84 e3 8c 00 	add gr14 gr14 gr12
    3dd4:	84 f3 cd 06 	xor gr15 gr15 gr13
    3dd8:	84 c3 0f 00 	add gr12 gr12 gr15
    3ddc:	80 00 00 00 	nop
    3de0:	80 90 00 0f 	movc2g gr9
    3de4:	94 90 22 d5 	movigl gr9 22d <Cla1Task3+0xd>
    3de8:	94 90 00 01 	movigh gr9 0 <_cla_int_entry_group0_0>
    3dec:	95 94 00 15 	movigl gr25 4001 <.L0 +0x12>
    3df0:	95 90 00 01 	movigh gr25 0 <_cla_int_entry_group0_0>
    3df4:	80 06 40 0b 	movg2c gr25
    3df8:	84 c3 19 00 	add gr12 gr12 gr25
    3dfc:	84 d3 49 06 	xor gr13 gr13 gr9
    3e00:	84 e3 8c 00 	add gr14 gr14 gr12
    3e04:	84 f3 cd 06 	xor gr15 gr15 gr13
    3e08:	84 c3 0f 00 	add gr12 gr12 gr15
    3e0c:	80 00 00 00 	nop
    3e10:	80 a0 00 0f 	movc2g gr10
    3e14:	94 a0 22 e5 	movigl gr10 22e <Cla1Task3+0xe>
    3e18:	94 a0 00 01 	movigh gr10 0 <_cla_int_entry_group0_0>
    3e1c:	95 a4 00 15 	movigl gr26 4001 <.L0 +0x12>
    3e20:	95 a0 00 01 	movigh gr26 0 <_cla_int_entry_group0_0>
    3e24:	80 06 80 0b 	movg2c gr26
    3e28:	84 c3 1a 00 	add gr12 gr12 gr26
    3e2c:	84 d3 4a 06 	xor gr13 gr13 gr10
    3e30:	84 e3 8c 00 	add gr14 gr14 gr12
    3e34:	84 f3 cd 06 	xor gr15 gr15 gr13
    3e38:	84 c3 0f 00 	add gr12 gr12 gr15
    3e3c:	80 00 00 00 	nop
    3e40:	80 b0 00 0f 	movc2g gr11
    3e44:	94 b0 22 f5 	movigl gr11 22f <Cla1Task3+0xf>
    3e48:	94 b0 00 01 	movigh gr11 0 <_cla_int_entry_group0_0>
    3e4c:	95 b4 01 15 	movigl gr27 4011 <.L0 +0x7>
    3e50:	95 b0 00 01 	movigh gr27 0 <_cla_int_entry_group0_0>
    3e54:	80 06 c0 0b 	movg2c gr27
    3e58:	84 c3 1b 00 	add gr12 gr12 gr27
    3e5c:	84 d3 4b 06 	xor gr13 gr13 gr11
    3e60:	84 e3 8c 00 	add gr14 gr14 gr12
    3e64:	84 f3 cd 06 	xor gr15 gr15 gr13
    3e68:	84 c3 0f 00 	add gr12 gr12 gr15
    3e6c:	80 00 00 00 	nop
    3e70:	80 40 00 0f 	movc2g gr4
    3e74:	94 40 23 05 	movigl gr4 230 <Cla1Task3+0x10>
    3e78:	94 40 00 01 	movigh gr4 0 <_cla_int_entry_group0_0>
    3e7c:	95 44 00 15 	movigl gr20 4001 <.L0 +0x12>
    3e80:	95 40 00 01 	movigh gr20 0 <_cla_int_entry_group0_0>
    3e84:	80 05 00 0b 	movg2c gr20
    3e88:	84 c3 14 00 	add gr12 gr12 gr20
    3e8c:	84 d3 44 06 	xor gr13 gr13 gr4
    3e90:	84 e3 8c 00 	add gr14 gr14 gr12
    3e94:	84 f3 cd 06 	xor gr15 gr15 gr13
    3e98:	84 c3 0f 00 	add gr12 gr12 gr15
    3e9c:	80 00 00 00 	nop
    3ea0:	80 50 00 0f 	movc2g gr5
    3ea4:	94 50 23 15 	movigl gr5 231 <Cla1Task3+0x11>
    3ea8:	94 50 00 01 	movigh gr5 0 <_cla_int_entry_group0_0>
    3eac:	95 54 00 15 	movigl gr21 4001 <.L0 +0x12>
    3eb0:	95 50 00 01 	movigh gr21 0 <_cla_int_entry_group0_0>
    3eb4:	80 05 40 0b 	movg2c gr21
    3eb8:	84 c3 15 00 	add gr12 gr12 gr21
    3ebc:	84 d3 45 06 	xor gr13 gr13 gr5
    3ec0:	84 e3 8c 00 	add gr14 gr14 gr12
    3ec4:	84 f3 cd 06 	xor gr15 gr15 gr13
    3ec8:	84 c3 0f 00 	add gr12 gr12 gr15
    3ecc:	80 00 00 00 	nop
    3ed0:	80 60 00 0f 	movc2g gr6
    3ed4:	94 60 23 25 	movigl gr6 232 <Cla1Task3+0x12>
    3ed8:	94 60 00 01 	movigh gr6 0 <_cla_int_entry_group0_0>
    3edc:	95 64 01 15 	movigl gr22 4011 <.L0 +0x7>
    3ee0:	95 60 00 01 	movigh gr22 0 <_cla_int_entry_group0_0>
    3ee4:	80 05 80 0b 	movg2c gr22
    3ee8:	84 c3 16 00 	add gr12 gr12 gr22
    3eec:	84 d3 46 06 	xor gr13 gr13 gr6
    3ef0:	84 e3 8c 00 	add gr14 gr14 gr12
    3ef4:	84 f3 cd 06 	xor gr15 gr15 gr13
    3ef8:	84 c3 0f 00 	add gr12 gr12 gr15
    3efc:	80 00 00 00 	nop
    3f00:	80 70 00 0f 	movc2g gr7
    3f04:	94 70 23 35 	movigl gr7 233 <Cla1Task3+0x13>
    3f08:	94 70 00 01 	movigh gr7 0 <_cla_int_entry_group0_0>
    3f0c:	95 74 00 15 	movigl gr23 4001 <.L0 +0x12>
    3f10:	95 70 00 01 	movigh gr23 0 <_cla_int_entry_group0_0>
    3f14:	80 05 c0 0b 	movg2c gr23
    3f18:	84 c3 17 00 	add gr12 gr12 gr23
    3f1c:	84 d3 47 06 	xor gr13 gr13 gr7
    3f20:	84 e3 8c 00 	add gr14 gr14 gr12
    3f24:	84 f3 cd 06 	xor gr15 gr15 gr13
    3f28:	84 c3 0f 00 	add gr12 gr12 gr15
    3f2c:	80 00 00 00 	nop
    3f30:	80 80 00 0f 	movc2g gr8
    3f34:	94 80 23 45 	movigl gr8 234 <Cla1Task3+0x14>
    3f38:	94 80 00 01 	movigh gr8 0 <_cla_int_entry_group0_0>
    3f3c:	95 84 00 15 	movigl gr24 4001 <.L0 +0x12>
    3f40:	95 80 00 01 	movigh gr24 0 <_cla_int_entry_group0_0>
    3f44:	80 06 00 0b 	movg2c gr24
    3f48:	84 c3 18 00 	add gr12 gr12 gr24
    3f4c:	84 d3 48 06 	xor gr13 gr13 gr8
    3f50:	84 e3 8c 00 	add gr14 gr14 gr12
    3f54:	84 f3 cd 06 	xor gr15 gr15 gr13
    3f58:	84 c3 0f 00 	add gr12 gr12 gr15
    3f5c:	80 00 00 00 	nop
    3f60:	80 90 00 0f 	movc2g gr9
    3f64:	94 90 23 55 	movigl gr9 235 <Cla1Task3+0x15>
    3f68:	94 90 00 01 	movigh gr9 0 <_cla_int_entry_group0_0>
    3f6c:	95 94 01 15 	movigl gr25 4011 <.L0 +0x7>
    3f70:	95 90 00 01 	movigh gr25 0 <_cla_int_entry_group0_0>
    3f74:	80 06 40 0b 	movg2c gr25
    3f78:	84 c3 19 00 	add gr12 gr12 gr25
    3f7c:	84 d3 49 06 	xor gr13 gr13 gr9
    3f80:	84 e3 8c 00 	add gr14 gr14 gr12
    3f84:	84 f3 cd 06 	xor gr15 gr15 gr13
    3f88:	84 c3 0f 00 	add gr12 gr12 gr15
    3f8c:	80 00 00 00 	nop
    3f90:	80 a0 00 0f 	movc2g gr10
    3f94:	94 a0 23 65 	movigl gr10 236 <Cla1Task3+0x16>
    3f98:	94 a0 00 01 	movigh gr10 0 <_cla_int_entry_group0_0>
    3f9c:	95 a4 00 15 	movigl gr26 4001 <.L0 +0x12>
    3fa0:	95 a0 00 01 	movigh gr26 0 <_cla_int_entry_group0_0>
    3fa4:	80 06 80 0b 	movg2c gr26
    3fa8:	84 c3 1a 00 	add gr12 gr12 gr26
    3fac:	84 d3 4a 06 	xor gr13 gr13 gr10
    3fb0:	84 e3 8c 00 	add gr14 gr14 gr12
    3fb4:	84 f3 cd 06 	xor gr15 gr15 gr13
    3fb8:	84 c3 0f 00 	add gr12 gr12 gr15
    3fbc:	80 00 00 00 	nop
    3fc0:	80 b0 00 0f 	movc2g gr11
    3fc4:	94 b0 23 75 	movigl gr11 237 <Cla1Task3+0x17>
    3fc8:	94 b0 00 01 	movigh gr11 0 <_cla_int_entry_group0_0>
    3fcc:	95 b4 00 15 	movigl gr27 4001 <.L0 +0x12>
    3fd0:	95 b0 00 01 	movigh gr27 0 <_cla_int_entry_group0_0>
    3fd4:	80 06 c0 0b 	movg2c gr27
    3fd8:	84 c3 1b 00 	add gr12 gr12 gr27
    3fdc:	84 d3 4b 06 	xor gr13 gr13 gr11
    3fe0:	84 e3 8c 00 	add gr14 gr14 gr12
    3fe4:	84 f3 cd 06 	xor gr15 gr15 gr13
    3fe8:	84 c3 0f 00 	add gr12 gr12 gr15
    3fec:	80 00 00 00 	nop
    3ff0:	80 40 00 0f 	movc2g gr4
    3ff4:	94 40 23 85 	movigl gr4 238 <Cla1Task3+0x18>
    3ff8:	94 40 00 01 	movigh gr4 0 <_cla_int_entry_group0_0>
    3ffc:	95 44 01 15 	movigl gr20 4011 <.L0 +0x7>
    4000:	95 40 00 01 	movigh gr20 0 <_cla_int_entry_group0_0>
    4004:	80 05 00 0b 	movg2c gr20
    4008:	84 c3 14 00 	add gr12 gr12 gr20
    400c:	84 d3 44 06 	xor gr13 gr13 gr4
    4010:	84 e3 8c 00 	add gr14 gr14 gr12
    4014:	84 f3 cd 06 	xor gr15 gr15 gr13
    4018:	84 c3 0f 00 	add gr12 gr12 gr15
    401c:	80 00 00 00 	nop
    4020:	80 50 00 0f 	movc2g gr5
    4024:	94 50 23 95 	movigl gr5 239 <Cla1Task3+0x19>
    4028:	94 50 00 01 	movigh gr5 0 <_cla_int_entry_group0_0>
    402c:	95 54 00 15 	movigl gr21 4001 <.L0 +0x12>
    4030:	95 50 00 01 	movigh gr21 0 <_cla_int_entry_group0_0>
    4034:	80 05 40 0b 	movg2c gr21
    4038:	84 c3 15 00 	add gr12 gr12 gr21
    403c:	84 d3 45 06 	xor gr13 gr13 gr5
    4040:	84 e3 8c 00 	add gr14 gr14 gr12
    4044:	84 f3 cd 06 	xor gr15 gr15 gr13
    4048:	84 c3 0f 00 	add gr12 gr12 gr15
    404c:	80 00 00 00 	nop
    4050:	80 60 00 0f 	movc2g gr6
    4054:	94 60 23 a5 	movigl gr6 23a <Cla1Task3+0x1a>
    4058:	94 60 00 01 	movigh gr6 0 <_cla_int_entry_group0_0>
    405c:	95 64 00 15 	movigl gr22 4001 <.L0 +0x12>
    4060:	95 60 00 01 	movigh gr22 0 <_cla_int_entry_group0_0>
    4064:	80 05 80 0b 	movg2c gr22
    4068:	84 c3 16 00 	add gr12 gr12 gr22
    406c:	84 d3 46 06 	xor gr13 gr13 gr6
    4070:	84 e3 8c 00 	add gr14 gr14 gr12
    4074:	84 f3 cd 06 	xor gr15 gr15 gr13
    4078:	84 c3 0f 00 	add gr12 gr12 gr15
    407c:	80 00 00 00 	nop
    4080:	80 70 00 0f 	movc2g gr7
    4084:	94 70 23 b5 	movigl gr7 23b <Cla1Task3+0x1b>
    4088:	94 70 00 01 	movigh gr7 0 <_cla_int_entry_group0_0>
    408c:	95 74 01 15 	movigl gr23 4011 <.L0 +0x7>
    4090:	95 70 00 01 	movigh gr23 0 <_cla_int_entry_group0_0>
    4094:	80 05 c0 0b 	movg2c gr23
    4098:	84 c3 17 00 	add gr12 gr12 gr23
    409c:	84 d3 47 06 	xor gr13 gr13 gr7
    40a0:	84 e3 8c 00 	add gr14 gr14 gr12
    40a4:	84 f3 cd 06 	xor gr15 gr15 gr13
    40a8:	84 c3 0f 00 	add gr12 gr12 gr15
    40ac:	80 00 00 00 	nop
    40b0:	80 80 00 0f 	movc2g gr8
    40b4:	94 80 23 c5 	movigl gr8 23c <Cla1Task3+0x1c>
    40b8:	94 80 00 01 	movigh gr8 0 <_cla_int_entry_group0_0>
    40bc:	95 84 00 15 	movigl gr24 4001 <.L0 +0x12>
    40c0:	95 80 00 01 	movigh gr24 0 <_cla_int_entry_group0_0>
    40c4:	80 06 00 0b 	movg2c gr24
    40c8:	84 c3 18 00 	add gr12 gr12 gr24
    40cc:	84 d3 48 06 	xor gr13 gr13 gr8
    40d0:	84 e3 8c 00 	add gr14 gr14 gr12
    40d4:	84 f3 cd 06 	xor gr15 gr15 gr13
    40d8:	84 c3 0f 00 	add gr12 gr12 gr15
    40dc:	80 00 00 00 	nop
    40e0:	80 90 00 0f 	movc2g gr9
    40e4:	94 90 23 d5 	movigl gr9 23d <Cla1Task3+0x1d>
    40e8:	94 90 00 01 	movigh gr9 0 <_cla_int_entry_group0_0>
    40ec:	95 94 00 15 	movigl gr25 4001 <.L0 +0x12>
    40f0:	95 90 00 01 	movigh gr25 0 <_cla_int_entry_group0_0>
    40f4:	80 06 40 0b 	movg2c gr25
    40f8:	84 c3 19 00 	add gr12 gr12 gr25
    40fc:	84 d3 49 06 	xor gr13 gr13 gr9
    4100:	84 e3 8c 00 	add gr14 gr14 gr12
    4104:	84 f3 cd 06 	xor gr15 gr15 gr13
    4108:	84 c3 0f 00 	add gr12 gr12 gr15
    410c:	80 00 00 00 	nop
    4110:	80 a0 00 0f 	movc2g gr10
    4114:	94 a0 23 e5 	movigl gr10 23e <Cla1Task3+0x1e>
    4118:	94 a0 00 01 	movigh gr10 0 <_cla_int_entry_group0_0>
    411c:	95 a4 01 15 	movigl gr26 4011 <.L0 +0x7>
    4120:	95 a0 00 01 	movigh gr26 0 <_cla_int_entry_group0_0>
    4124:	80 06 80 0b 	movg2c gr26
    4128:	84 c3 1a 00 	add gr12 gr12 gr26
    412c:	84 d3 4a 06 	xor gr13 gr13 gr10
    4130:	84 e3 8c 00 	add gr14 gr14 gr12
    4134:	84 f3 cd 06 	xor gr15 gr15 gr13
    4138:	84 c3 0f 00 	add gr12 gr12 gr15
    413c:	80 00 00 00 	nop
    4140:	80 b0 00 0f 	movc2g gr11
    4144:	94 b0 23 f5 	movigl gr11 23f <Cla1Task3+0x1f>
    4148:	94 b0 00 01 	movigh gr11 0 <_cla_int_entry_group0_0>
    414c:	95 b4 00 15 	movigl gr27 4001 <.L0 +0x12>
    4150:	95 b0 00 01 	movigh gr27 0 <_cla_int_entry_group0_0>
    4154:	80 06 c0 0b 	movg2c gr27
    4158:	84 c3 1b 00 	add gr12 gr12 gr27
    415c:	84 d3 4b 06 	xor gr13 gr13 gr11
    4160:	84 e3 8c 00 	add gr14 gr14 gr12
    4164:	84 f3 cd 06 	xor gr15 gr15 gr13
    4168:	84 c3 0f 00 	add gr12 gr12 gr15
    416c:	80 00 00 00 	nop
    4170:	80 40 00 0f 	movc2g gr4
    4174:	94 40 24 05 	movigl gr4 240 <Cla1Task3+0x20>
    4178:	94 40 00 01 	movigh gr4 0 <_cla_int_entry_group0_0>
    417c:	95 44 00 15 	movigl gr20 4001 <.L0 +0x12>
    4180:	95 40 00 01 	movigh gr20 0 <_cla_int_entry_group0_0>
    4184:	80 05 00 0b 	movg2c gr20
    4188:	84 c3 14 00 	add gr12 gr12 gr20
    418c:	84 d3 44 06 	xor gr13 gr13 gr4
    4190:	84 e3 8c 00 	add gr14 gr14 gr12
    4194:	84 f3 cd 06 	xor gr15 gr15 gr13
    4198:	84 c3 0f 00 	add gr12 gr12 gr15
    419c:	80 00 00 00 	nop
    41a0:	80 50 00 0f 	movc2g gr5
    41a4:	94 50 24 15 	movigl gr5 241 <Cla1Task3+0x21>
    41a8:	94 50 00 01 	movigh gr5 0 <_cla_int_entry_group0_0>
    41ac:	95 54 01 15 	movigl gr21 4011 <.L0 +0x7>
    41b0:	95 50 00 01 	movigh gr21 0 <_cla_int_entry_group0_0>
    41b4:	80 05 40 0b 	movg2c gr21
    41b8:	84 c3 15 00 	add gr12 gr12 gr21
    41bc:	84 d3 45 06 	xor gr13 gr13 gr5
    41c0:	84 e3 8c 00 	add gr14 gr14 gr12
    41c4:	84 f3 cd 06 	xor gr15 gr15 gr13
    41c8:	84 c3 0f 00 	add gr12 gr12 gr15
    41cc:	80 00 00 00 	nop
    41d0:	80 60 00 0f 	movc2g gr6
    41d4:	94 60 24 25 	movigl gr6 242 <Cla1Task3+0x22>
    41d8:	94 60 00 01 	movigh gr6 0 <_cla_int_entry_group0_0>
    41dc:	95 64 00 15 	movigl gr22 4001 <.L0 +0x12>
    41e0:	95 60 00 01 	movigh gr22 0 <_cla_int_entry_group0_0>
    41e4:	80 05 80 0b 	movg2c gr22
    41e8:	84 c3 16 00 	add gr12 gr12 gr22
    41ec:	84 d3 46 06 	xor gr13 gr13 gr6
    41f0:	84 e3 8c 00 	add gr14 gr14 gr12
    41f4:	84 f3 cd 06 	xor gr15 gr15 gr13
    41f8:	84 c3 0f 00 	add gr12 gr12 gr15
    41fc:	80 00 00 00 	nop
    4200:	80 70 00 0f 	movc2g gr7
    4204:	94 70 24 35 	movigl gr7 243 <Cla1Task3+0x23>
    4208:	94 70 00 01 	movigh gr7 0 <_cla_int_entry_group0_0>
    420c:	95 74 00 15 	movigl gr23 4001 <.L0 +0x12>
    4210:	95 70 00 01 	movigh gr23 0 <_cla_int_entry_group0_0>
    4214:	80 05 c0 0b 	movg2c gr23
    4218:	84 c3 17 00 	add gr12 gr12 gr23
    421c:	84 d3 47 06 	xor gr13 gr13 gr7
    4220:	84 e3 8c 00 	add gr14 gr14 gr12
    4224:	84 f3 cd 06 	xor gr15 gr15 gr13
    4228:	84 c3 0f 00 	add gr12 gr12 gr15
    422c:	80 00 00 00 	nop
    4230:	80 80 00 0f 	movc2g gr8
    4234:	94 80 24 45 	movigl gr8 244 <Cla1Task3+0x24>
    4238:	94 80 00 01 	movigh gr8 0 <_cla_int_entry_group0_0>
    423c:	95 84 01 15 	movigl gr24 4011 <.L0 +0x7>
    4240:	95 80 00 01 	movigh gr24 0 <_cla_int_entry_group0_0>
    4244:	80 06 00 0b 	movg2c gr24
    4248:	84 c3 18 00 	add gr12 gr12 gr24
    424c:	84 d3 48 06 	xor gr13 gr13 gr8
    4250:	84 e3 8c 00 	add gr14 gr14 gr12
    4254:	84 f3 cd 06 	xor gr15 gr15 gr13
    4258:	84 c3 0f 00 	add gr12 gr12 gr15
    425c:	80 00 00 00 	nop
    4260:	80 90 00 0f 	movc2g gr9
    4264:	94 90 24 55 	movigl gr9 245 <Cla1Task3+0x25>
    4268:	94 90 00 01 	movigh gr9 0 <_cla_int_entry_group0_0>
    426c:	95 94 00 15 	movigl gr25 4001 <.L0 +0x12>
    4270:	95 90 00 01 	movigh gr25 0 <_cla_int_entry_group0_0>
    4274:	80 06 40 0b 	movg2c gr25
    4278:	84 c3 19 00 	add gr12 gr12 gr25
    427c:	84 d3 49 06 	xor gr13 gr13 gr9
    4280:	84 e3 8c 00 	add gr14 gr14 gr12
    4284:	84 f3 cd 06 	xor gr15 gr15 gr13
    4288:	84 c3 0f 00 	add gr12 gr12 gr15
    428c:	80 00 00 00 	nop
    4290:	80 a0 00 0f 	movc2g gr10
    4294:	94 a0 24 65 	movigl gr10 246 <Cla1Task3+0x26>
    4298:	94 a0 00 01 	movigh gr10 0 <_cla_int_entry_group0_0>
    429c:	95 a4 00 15 	movigl gr26 4001 <.L0 +0x12>
    42a0:	95 a0 00 01 	movigh gr26 0 <_cla_int_entry_group0_0>
    42a4:	80 06 80 0b 	movg2c gr26
    42a8:	84 c3 1a 00 	add gr12 gr12 gr26
    42ac:	84 d3 4a 06 	xor gr13 gr13 gr10
    42b0:	84 e3 8c 00 	add gr14 gr14 gr12
    42b4:	84 f3 cd 06 	xor gr15 gr15 gr13
    42b8:	84 c3 0f 00 	add gr12 gr12 gr15
    42bc:	80 00 00 00 	nop
    42c0:	80 b0 00 0f 	movc2g gr11
    42c4:	94 b0 24 75 	movigl gr11 247 <Cla1Task3+0x27>
    42c8:	94 b0 00 01 	movigh gr11 0 <_cla_int_entry_group0_0>
    42cc:	95 b4 01 15 	movigl gr27 4011 <.L0 +0x7>
    42d0:	95 b0 00 01 	movigh gr27 0 <_cla_int_entry_group0_0>
    42d4:	80 06 c0 0b 	movg2c gr27
    42d8:	84 c3 1b 00 	add gr12 gr12 gr27
    42dc:	84 d3 4b 06 	xor gr13 gr13 gr11
    42e0:	84 e3 8c 00 	add gr14 gr14 gr12
    42e4:	84 f3 cd 06 	xor gr15 gr15 gr13
    42e8:	84 c3 0f 00 	add gr12 gr12 gr15
    42ec:	80 00 00 00 	nop
    42f0:	80 40 00 0f 	movc2g gr4
    42f4:	94 40 24 85 	movigl gr4 248 <Cla1Task3+0x28>
    42f8:	94 40 00 01 	movigh gr4 0 <_cla_int_entry_group0_0>
    42fc:	95 44 00 15 	movigl gr20 4001 <.L0 +0x12>
    4300:	95 40 00 01 	movigh gr20 0 <_cla_int_entry_group0_0>
    4304:	80 05 00 0b 	movg2c gr20
    4308:	84 c3 14 00 	add gr12 gr12 gr20
    430c:	84 d3 44 06 	xor gr13 gr13 gr4
    4310:	84 e3 8c 00 	add gr14 gr14 gr12
    4314:	84 f3 cd 06 	xor gr15 gr15 gr13
    4318:	84 c3 0f 00 	add gr12 gr12 gr15
    431c:	80 00 00 00 	nop
    4320:	80 50 00 0f 	movc2g gr5
    4324:	94 50 24 95 	movigl gr5 249 <Cla1Task3+0x29>
    4328:	94 50 00 01 	movigh gr5 0 <_cla_int_entry_group0_0>
    432c:	95 54 00 15 	movigl gr21 4001 <.L0 +0x12>
    4330:	95 50 00 01 	movigh gr21 0 <_cla_int_entry_group0_0>
    4334:	80 05 40 0b 	movg2c gr21
    4338:	84 c3 15 00 	add gr12 gr12 gr21
    433c:	84 d3 45 06 	xor gr13 gr13 gr5
    4340:	84 e3 8c 00 	add gr14 gr14 gr12
    4344:	84 f3 cd 06 	xor gr15 gr15 gr13
    4348:	84 c3 0f 00 	add gr12 gr12 gr15
    434c:	80 00 00 00 	nop
    4350:	80 60 00 0f 	movc2g gr6
    4354:	94 60 24 a5 	movigl gr6 24a <Cla1Task3+0x2a>
    4358:	94 60 00 01 	movigh gr6 0 <_cla_int_entry_group0_0>
    435c:	95 64 01 15 	movigl gr22 4011 <.L0 +0x7>
    4360:	95 60 00 01 	movigh gr22 0 <_cla_int_entry_group0_0>
    4364:	80 05 80 0b 	movg2c gr22
    4368:	84 c3 16 00 	add gr12 gr12 gr22
    436c:	84 d3 46 06 	xor gr13 gr13 gr6
    4370:	84 e3 8c 00 	add gr14 gr14 gr12
    4374:	84 f3 cd 06 	xor gr15 gr15 gr13
    4378:	84 c3 0f 00 	add gr12 gr12 gr15
    437c:	80 00 00 00 	nop
    4380:	80 70 00 0f 	movc2g gr7
    4384:	94 70 24 b5 	movigl gr7 24b <Cla1Task3+0x2b>
    4388:	94 70 00 01 	movigh gr7 0 <_cla_int_entry_group0_0>
    438c:	95 74 00 15 	movigl gr23 4001 <.L0 +0x12>
    4390:	95 70 00 01 	movigh gr23 0 <_cla_int_entry_group0_0>
    4394:	80 05 c0 0b 	movg2c gr23
    4398:	84 c3 17 00 	add gr12 gr12 gr23
    439c:	84 d3 47 06 	xor gr13 gr13 gr7
    43a0:	84 e3 8c 00 	add gr14 gr14 gr12
    43a4:	84 f3 cd 06 	xor gr15 gr15 gr13
    43a8:	84 c3 0f 00 	add gr12 gr12 gr15
    43ac:	80 00 00 00 	nop
    43b0:	80 80 00 0f 	movc2g gr8
    43b4:	94 80 24 c5 	movigl gr8 24c <Cla1Task3+0x2c>
    43b8:	94 80 00 01 	movigh gr8 0 <_cla_int_entry_group0_0>
    43bc:	95 84 00 15 	movigl gr24 4001 <.L0 +0x12>
    43c0:	95 80 00 01 	movigh gr24 0 <_cla_int_entry_group0_0>
    43c4:	80 06 00 0b 	movg2c gr24
    43c8:	84 c3 18 00 	add gr12 gr12 gr24
    43cc:	84 d3 48 06 	xor gr13 gr13 gr8
    43d0:	84 e3 8c 00 	add gr14 gr14 gr12
    43d4:	84 f3 cd 06 	xor gr15 gr15 gr13
    43d8:	84 c3 0f 00 	add gr12 gr12 gr15
    43dc:	80 00 00 00 	nop
    43e0:	80 90 00 0f 	movc2g gr9
    43e4:	94 90 24 d5 	movigl gr9 24d <Cla1Task3+0x2d>
    43e8:	94 90 00 01 	movigh gr9 0 <_cla_int_entry_group0_0>
    43ec:	95 94 01 15 	movigl gr25 4011 <.L0 +0x7>
    43f0:	95 90 00 01 	movigh gr25 0 <_cla_int_entry_group0_0>
    43f4:	80 06 40 0b 	movg2c gr25
    43f8:	84 c3 19 00 	add gr12 gr12 gr25
    43fc:	84 d3 49 06 	xor gr13 gr13 gr9
    4400:	84 e3 8c 00 	add gr14 gr14 gr12
    4404:	84 f3 cd 06 	xor gr15 gr15 gr13
    4408:	84 c3 0f 00 	add gr12 gr12 gr15
    440c:	80 00 00 00 	nop
    4410:	80 a0 00 0f 	movc2g gr10
    4414:	94 a0 24 e5 	movigl gr10 24e <Cla1Task3+0x2e>
    4418:	94 a0 00 01 	movigh gr10 0 <_cla_int_entry_group0_0>
    441c:	95 a4 00 15 	movigl gr26 4001 <.L0 +0x12>
    4420:	95 a0 00 01 	movigh gr26 0 <_cla_int_entry_group0_0>
    4424:	80 06 80 0b 	movg2c gr26
    4428:	84 c3 1a 00 	add gr12 gr12 gr26
    442c:	84 d3 4a 06 	xor gr13 gr13 gr10
    4430:	84 e3 8c 00 	add gr14 gr14 gr12
    4434:	84 f3 cd 06 	xor gr15 gr15 gr13
    4438:	84 c3 0f 00 	add gr12 gr12 gr15
    443c:	80 00 00 00 	nop
    4440:	80 b0 00 0f 	movc2g gr11
    4444:	94 b0 24 f5 	movigl gr11 24f <Cla1Task3+0x2f>
    4448:	94 b0 00 01 	movigh gr11 0 <_cla_int_entry_group0_0>
    444c:	95 b4 00 15 	movigl gr27 4001 <.L0 +0x12>
    4450:	95 b0 00 01 	movigh gr27 0 <_cla_int_entry_group0_0>
    4454:	80 06 c0 0b 	movg2c gr27
    4458:	84 c3 1b 00 	add gr12 gr12 gr27
    445c:	84 d3 4b 06 	xor gr13 gr13 gr11
    4460:	84 e3 8c 00 	add gr14 gr14 gr12
    4464:	84 f3 cd 06 	xor gr15 gr15 gr13
    4468:	84 c3 0f 00 	add gr12 gr12 gr15
    446c:	80 00 00 00 	nop
    4470:	80 40 00 0f 	movc2g gr4
    4474:	94 40 25 05 	movigl gr4 250 <Cla1Task3+0x30>
    4478:	94 40 00 01 	movigh gr4 0 <_cla_int_entry_group0_0>
    447c:	95 44 01 15 	movigl gr20 4011 <.L0 +0x7>
    4480:	95 40 00 01 	movigh gr20 0 <_cla_int_entry_group0_0>
    4484:	80 05 00 0b 	movg2c gr20
    4488:	84 c3 14 00 	add gr12 gr12 gr20
    448c:	84 d3 44 06 	xor gr13 gr13 gr4
    4490:	84 e3 8c 00 	add gr14 gr14 gr12
    4494:	84 f3 cd 06 	xor gr15 gr15 gr13
    4498:	84 c3 0f 00 	add gr12 gr12 gr15
    449c:	80 00 00 00 	nop
    44a0:	80 50 00 0f 	movc2g gr5
    44a4:	94 50 25 15 	movigl gr5 251 <Cla1Task3+0x31>
    44a8:	94 50 00 01 	movigh gr5 0 <_cla_int_entry_group0_0>
    44ac:	95 54 00 15 	movigl gr21 4001 <.L0 +0x12>
    44b0:	95 50 00 01 	movigh gr21 0 <_cla_int_entry_group0_0>
    44b4:	80 05 40 0b 	movg2c gr21
    44b8:	84 c3 15 00 	add gr12 gr12 gr21
    44bc:	84 d3 45 06 	xor gr13 gr13 gr5
    44c0:	84 e3 8c 00 	add gr14 gr14 gr12
    44c4:	84 f3 cd 06 	xor gr15 gr15 gr13
    44c8:	84 c3 0f 00 	add gr12 gr12 gr15
    44cc:	80 00 00 00 	nop
    44d0:	80 60 00 0f 	movc2g gr6
    44d4:	94 60 25 25 	movigl gr6 252 <Cla1Task3+0x32>
    44d8:	94 60 00 01 	movigh gr6 0 <_cla_int_entry_group0_0>
    44dc:	95 64 00 15 	movigl gr22 4001 <.L0 +0x12>
    44e0:	95 60 00 01 	movigh gr22 0 <_cla_int_entry_group0_0>
    44e4:	80 05 80 0b 	movg2c gr22
    44e8:	84 c3 16 00 	add gr12 gr12 gr22
    44ec:	84 d3 46 06 	xor gr13 gr13 gr6
    44f0:	84 e3 8c 00 	add gr14 gr14 gr12
    44f4:	84 f3 cd 06 	xor gr15 gr15 gr13
    44f8:	84 c3 0f 00 	add gr12 gr12 gr15
    44fc:	80 00 00 00 	nop
    4500:	80 70 00 0f 	movc2g gr7
    4504:	94 70 25 35 	movigl gr7 253 <Cla1Task3+0x33>
    4508:	94 70 00 01 	movigh gr7 0 <_cla_int_entry_group0_0>
    450c:	95 74 01 15 	movigl gr23 4011 <.L0 +0x7>
    4510:	95 70 00 01 	movigh gr23 0 <_cla_int_entry_group0_0>
    4514:	80 05 c0 0b 	movg2c gr23
    4518:	84 c3 17 00 	add gr12 gr12 gr23
    451c:	84 d3 47 06 	xor gr13 gr13 gr7
    4520:	84 e3 8c 00 	add gr14 gr14 gr12
    4524:	84 f3 cd 06 	xor gr15 gr15 gr13
    4528:	84 c3 0f 00 	add gr12 gr12 gr15
    452c:	80 00 00 00 	nop
    4530:	80 80 00 0f 	movc2g gr8
    4534:	94 80 25 45 	movigl gr8 254 <Cla1Task3+0x34>
    4538:	94 80 00 01 	movigh gr8 0 <_cla_int_entry_group0_0>
    453c:	95 84 00 15 	movigl gr24 4001 <.L0 +0x12>
    4540:	95 80 00 01 	movigh gr24 0 <_cla_int_entry_group0_0>
    4544:	80 06 00 0b 	movg2c gr24
    4548:	84 c3 18 00 	add gr12 gr12 gr24
    454c:	84 d3 48 06 	xor gr13 gr13 gr8
    4550:	84 e3 8c 00 	add gr14 gr14 gr12
    4554:	84 f3 cd 06 	xor gr15 gr15 gr13
    4558:	84 c3 0f 00 	add gr12 gr12 gr15
    455c:	80 00 00 00 	nop
    4560:	80 90 00 0f 	movc2g gr9
    4564:	94 90 25 55 	movigl gr9 255 <Cla1Task3+0x35>
    4568:	94 90 00 01 	movigh gr9 0 <_cla_int_entry_group0_0>
    456c:	95 94 00 15 	movigl gr25 4001 <.L0 +0x12>
    4570:	95 90 00 01 	movigh gr25 0 <_cla_int_entry_group0_0>
    4574:	80 06 40 0b 	movg2c gr25
    4578:	84 c3 19 00 	add gr12 gr12 gr25
    457c:	84 d3 49 06 	xor gr13 gr13 gr9
    4580:	84 e3 8c 00 	add gr14 gr14 gr12
    4584:	84 f3 cd 06 	xor gr15 gr15 gr13
    4588:	84 c3 0f 00 	add gr12 gr12 gr15
    458c:	80 00 00 00 	nop
    4590:	80 a0 00 0f 	movc2g gr10
    4594:	94 a0 25 65 	movigl gr10 256 <Cla1Task3+0x36>
    4598:	94 a0 00 01 	movigh gr10 0 <_cla_int_entry_group0_0>
    459c:	95 a4 01 15 	movigl gr26 4011 <.L0 +0x7>
    45a0:	95 a0 00 01 	movigh gr26 0 <_cla_int_entry_group0_0>
    45a4:	80 06 80 0b 	movg2c gr26
    45a8:	84 c3 1a 00 	add gr12 gr12 gr26
    45ac:	84 d3 4a 06 	xor gr13 gr13 gr10
    45b0:	84 e3 8c 00 	add gr14 gr14 gr12
    45b4:	84 f3 cd 06 	xor gr15 gr15 gr13
    45b8:	84 c3 0f 00 	add gr12 gr12 gr15
    45bc:	80 00 00 00 	nop
    45c0:	80 b0 00 0f 	movc2g gr11
    45c4:	94 b0 25 75 	movigl gr11 257 <Cla1Task3+0x37>
    45c8:	94 b0 00 01 	movigh gr11 0 <_cla_int_entry_group0_0>
    45cc:	95 b4 00 15 	movigl gr27 4001 <.L0 +0x12>
    45d0:	95 b0 00 01 	movigh gr27 0 <_cla_int_entry_group0_0>
    45d4:	80 06 c0 0b 	movg2c gr27
    45d8:	84 c3 1b 00 	add gr12 gr12 gr27
    45dc:	84 d3 4b 06 	xor gr13 gr13 gr11
    45e0:	84 e3 8c 00 	add gr14 gr14 gr12
    45e4:	84 f3 cd 06 	xor gr15 gr15 gr13
    45e8:	84 c3 0f 00 	add gr12 gr12 gr15
    45ec:	80 00 00 00 	nop
    45f0:	80 40 00 0f 	movc2g gr4
    45f4:	94 40 25 85 	movigl gr4 258 <Cla1Task3+0x38>
    45f8:	94 40 00 01 	movigh gr4 0 <_cla_int_entry_group0_0>
    45fc:	95 44 00 15 	movigl gr20 4001 <.L0 +0x12>
    4600:	95 40 00 01 	movigh gr20 0 <_cla_int_entry_group0_0>
    4604:	80 05 00 0b 	movg2c gr20
    4608:	84 c3 14 00 	add gr12 gr12 gr20
    460c:	84 d3 44 06 	xor gr13 gr13 gr4
    4610:	84 e3 8c 00 	add gr14 gr14 gr12
    4614:	84 f3 cd 06 	xor gr15 gr15 gr13
    4618:	84 c3 0f 00 	add gr12 gr12 gr15
    461c:	80 00 00 00 	nop
    4620:	80 50 00 0f 	movc2g gr5
    4624:	94 50 25 95 	movigl gr5 259 <Cla1Task3+0x39>
    4628:	94 50 00 01 	movigh gr5 0 <_cla_int_entry_group0_0>
    462c:	95 54 01 15 	movigl gr21 4011 <.L0 +0x7>
    4630:	95 50 00 01 	movigh gr21 0 <_cla_int_entry_group0_0>
    4634:	80 05 40 0b 	movg2c gr21
    4638:	84 c3 15 00 	add gr12 gr12 gr21
    463c:	84 d3 45 06 	xor gr13 gr13 gr5
    4640:	84 e3 8c 00 	add gr14 gr14 gr12
    4644:	84 f3 cd 06 	xor gr15 gr15 gr13
    4648:	84 c3 0f 00 	add gr12 gr12 gr15
    464c:	80 00 00 00 	nop
    4650:	80 60 00 0f 	movc2g gr6
    4654:	94 60 25 a5 	movigl gr6 25a <Cla1Task3+0x3a>
    4658:	94 60 00 01 	movigh gr6 0 <_cla_int_entry_group0_0>
    465c:	95 64 00 15 	movigl gr22 4001 <.L0 +0x12>
    4660:	95 60 00 01 	movigh gr22 0 <_cla_int_entry_group0_0>
    4664:	80 05 80 0b 	movg2c gr22
    4668:	84 c3 16 00 	add gr12 gr12 gr22
    466c:	84 d3 46 06 	xor gr13 gr13 gr6
    4670:	84 e3 8c 00 	add gr14 gr14 gr12
    4674:	84 f3 cd 06 	xor gr15 gr15 gr13
    4678:	84 c3 0f 00 	add gr12 gr12 gr15
    467c:	80 00 00 00 	nop
    4680:	80 70 00 0f 	movc2g gr7
    4684:	94 70 25 b5 	movigl gr7 25b <Cla1Task3+0x3b>
    4688:	94 70 00 01 	movigh gr7 0 <_cla_int_entry_group0_0>
    468c:	95 74 00 15 	movigl gr23 4001 <.L0 +0x12>
    4690:	95 70 00 01 	movigh gr23 0 <_cla_int_entry_group0_0>
    4694:	80 05 c0 0b 	movg2c gr23
    4698:	84 c3 17 00 	add gr12 gr12 gr23
    469c:	84 d3 47 06 	xor gr13 gr13 gr7
    46a0:	84 e3 8c 00 	add gr14 gr14 gr12
    46a4:	84 f3 cd 06 	xor gr15 gr15 gr13
    46a8:	84 c3 0f 00 	add gr12 gr12 gr15
    46ac:	80 00 00 00 	nop
    46b0:	80 80 00 0f 	movc2g gr8
    46b4:	94 80 25 c5 	movigl gr8 25c <Cla1Task3+0x3c>
    46b8:	94 80 00 01 	movigh gr8 0 <_cla_int_entry_group0_0>
    46bc:	95 84 01 15 	movigl gr24 4011 <.L0 +0x7>
    46c0:	95 80 00 01 	movigh gr24 0 <_cla_int_entry_group0_0>
    46c4:	80 06 00 0b 	movg2c gr24
    46c8:	84 c3 18 00 	add gr12 gr12 gr24
    46cc:	84 d3 48 06 	xor gr13 gr13 gr8
    46d0:	84 e3 8c 00 	add gr14 gr14 gr12
    46d4:	84 f3 cd 06 	xor gr15 gr15 gr13
    46d8:	84 c3 0f 00 	add gr12 gr12 gr15
    46dc:	80 00 00 00 	nop
    46e0:	80 90 00 0f 	movc2g gr9
    46e4:	94 90 25 d5 	movigl gr9 25d <Cla1Task3+0x3d>
    46e8:	94 90 00 01 	movigh gr9 0 <_cla_int_entry_group0_0>
    46ec:	95 94 00 15 	movigl gr25 4001 <.L0 +0x12>
    46f0:	95 90 00 01 	movigh gr25 0 <_cla_int_entry_group0_0>
    46f4:	80 06 40 0b 	movg2c gr25
    46f8:	84 c3 19 00 	add gr12 gr12 gr25
    46fc:	84 d3 49 06 	xor gr13 gr13 gr9
    4700:	84 e3 8c 00 	add gr14 gr14 gr12
    4704:	84 f3 cd 06 	xor gr15 gr15 gr13
    4708:	84 c3 0f 00 	add gr12 gr12 gr15
    470c:	80 00 00 00 	nop
    4710:	80 a0 00 0f 	movc2g gr10
    4714:	94 a0 25 e5 	movigl gr10 25e <Cla1Task3+0x3e>
    4718:	94 a0 00 01 	movigh gr10 0 <_cla_int_entry_group0_0>
    471c:	95 a4 00 15 	movigl gr26 4001 <.L0 +0x12>
    4720:	95 a0 00 01 	movigh gr26 0 <_cla_int_entry_group0_0>
    4724:	80 06 80 0b 	movg2c gr26
    4728:	84 c3 1a 00 	add gr12 gr12 gr26
    472c:	84 d3 4a 06 	xor gr13 gr13 gr10
    4730:	84 e3 8c 00 	add gr14 gr14 gr12
    4734:	84 f3 cd 06 	xor gr15 gr15 gr13
    4738:	84 c3 0f 00 	add gr12 gr12 gr15
    473c:	80 00 00 00 	nop
    4740:	80 b0 00 0f 	movc2g gr11
    4744:	94 b0 25 f5 	movigl gr11 25f <Cla1Task3+0x3f>
    4748:	94 b0 00 01 	movigh gr11 0 <_cla_int_entry_group0_0>
    474c:	95 b4 01 15 	movigl gr27 4011 <.L0 +0x7>
    4750:	95 b0 00 01 	movigh gr27 0 <_cla_int_entry_group0_0>
    4754:	80 06 c0 0b 	movg2c gr27
    4758:	84 c3 1b 00 	add gr12 gr12 gr27
    475c:	84 d3 4b 06 	xor gr13 gr13 gr11
    4760:	84 e3 8c 00 	add gr14 gr14 gr12
    4764:	84 f3 cd 06 	xor gr15 gr15 gr13
    4768:	84 c3 0f 00 	add gr12 gr12 gr15
    476c:	80 00 00 00 	nop
    4770:	80 40 00 0f 	movc2g gr4
    4774:	94 40 26 05 	movigl gr4 260 <Cla1Task3+0x40>
    4778:	94 40 00 01 	movigh gr4 0 <_cla_int_entry_group0_0>
    477c:	95 44 00 15 	movigl gr20 4001 <.L0 +0x12>
    4780:	95 40 00 01 	movigh gr20 0 <_cla_int_entry_group0_0>
    4784:	80 05 00 0b 	movg2c gr20
    4788:	84 c3 14 00 	add gr12 gr12 gr20
    478c:	84 d3 44 06 	xor gr13 gr13 gr4
    4790:	84 e3 8c 00 	add gr14 gr14 gr12
    4794:	84 f3 cd 06 	xor gr15 gr15 gr13
    4798:	84 c3 0f 00 	add gr12 gr12 gr15
    479c:	80 00 00 00 	nop
    47a0:	80 50 00 0f 	movc2g gr5
    47a4:	94 50 26 15 	movigl gr5 261 <Cla1Task3+0x41>
    47a8:	94 50 00 01 	movigh gr5 0 <_cla_int_entry_group0_0>
    47ac:	95 54 00 15 	movigl gr21 4001 <.L0 +0x12>
    47b0:	95 50 00 01 	movigh gr21 0 <_cla_int_entry_group0_0>
    47b4:	80 05 40 0b 	movg2c gr21
    47b8:	84 c3 15 00 	add gr12 gr12 gr21
    47bc:	84 d3 45 06 	xor gr13 gr13 gr5
    47c0:	84 e3 8c 00 	add gr14 gr14 gr12
    47c4:	84 f3 cd 06 	xor gr15 gr15 gr13
    47c8:	84 c3 0f 00 	add gr12 gr12 gr15
    47cc:	80 00 00 00 	nop
    47d0:	80 60 00 0f 	movc2g gr6
    47d4:	94 60 26 25 	movigl gr6 262 <Cla1Task3+0x42>
    47d8:	94 60 00 01 	movigh gr6 0 <_cla_int_entry_group0_0>
    47dc:	95 64 01 15 	movigl gr22 4011 <.L0 +0x7>
    47e0:	95 60 00 01 	movigh gr22 0 <_cla_int_entry_group0_0>
    47e4:	80 05 80 0b 	movg2c gr22
    47e8:	84 c3 16 00 	add gr12 gr12 gr22
    47ec:	84 d3 46 06 	xor gr13 gr13 gr6
    47f0:	84 e3 8c 00 	add gr14 gr14 gr12
    47f4:	84 f3 cd 06 	xor gr15 gr15 gr13
    47f8:	84 c3 0f 00 	add gr12 gr12 gr15
    47fc:	80 00 00 00 	nop
    4800:	80 70 00 0f 	movc2g gr7
    4804:	94 70 26 35 	movigl gr7 263 <Cla1Task3+0x43>
    4808:	94 70 00 01 	movigh gr7 0 <_cla_int_entry_group0_0>
    480c:	95 74 00 15 	movigl gr23 4001 <.L0 +0x12>
    4810:	95 70 00 01 	movigh gr23 0 <_cla_int_entry_group0_0>
    4814:	80 05 c0 0b 	movg2c gr23
    4818:	84 c3 17 00 	add gr12 gr12 gr23
    481c:	84 d3 47 06 	xor gr13 gr13 gr7
    4820:	84 e3 8c 00 	add gr14 gr14 gr12
    4824:	84 f3 cd 06 	xor gr15 gr15 gr13
    4828:	84 c3 0f 00 	add gr12 gr12 gr15
    482c:	80 00 00 00 	nop
    4830:	80 80 00 0f 	movc2g gr8
    4834:	94 80 26 45 	movigl gr8 264 <Cla1Task3+0x44>
    4838:	94 80 00 01 	movigh gr8 0 <_cla_int_entry_group0_0>
    483c:	95 84 00 15 	movigl gr24 4001 <.L0 +0x12>
    4840:	95 80 00 01 	movigh gr24 0 <_cla_int_entry_group0_0>
    4844:	80 06 00 0b 	movg2c gr24
    4848:	84 c3 18 00 	add gr12 gr12 gr24
    484c:	84 d3 48 06 	xor gr13 gr13 gr8
    4850:	84 e3 8c 00 	add gr14 gr14 gr12
    4854:	84 f3 cd 06 	xor gr15 gr15 gr13
    4858:	84 c3 0f 00 	add gr12 gr12 gr15
    485c:	80 00 00 00 	nop
    4860:	80 90 00 0f 	movc2g gr9
    4864:	94 90 26 55 	movigl gr9 265 <Cla1Task3+0x45>
    4868:	94 90 00 01 	movigh gr9 0 <_cla_int_entry_group0_0>
    486c:	95 94 01 15 	movigl gr25 4011 <.L0 +0x7>
    4870:	95 90 00 01 	movigh gr25 0 <_cla_int_entry_group0_0>
    4874:	80 06 40 0b 	movg2c gr25
    4878:	84 c3 19 00 	add gr12 gr12 gr25
    487c:	84 d3 49 06 	xor gr13 gr13 gr9
    4880:	84 e3 8c 00 	add gr14 gr14 gr12
    4884:	84 f3 cd 06 	xor gr15 gr15 gr13
    4888:	84 c3 0f 00 	add gr12 gr12 gr15
    488c:	80 00 00 00 	nop
    4890:	80 a0 00 0f 	movc2g gr10
    4894:	94 a0 26 65 	movigl gr10 266 <Cla1Task3+0x46>
    4898:	94 a0 00 01 	movigh gr10 0 <_cla_int_entry_group0_0>
    489c:	95 a4 00 15 	movigl gr26 4001 <.L0 +0x12>
    48a0:	95 a0 00 01 	movigh gr26 0 <_cla_int_entry_group0_0>
    48a4:	80 06 80 0b 	movg2c gr26
    48a8:	84 c3 1a 00 	add gr12 gr12 gr26
    48ac:	84 d3 4a 06 	xor gr13 gr13 gr10
    48b0:	84 e3 8c 00 	add gr14 gr14 gr12
    48b4:	84 f3 cd 06 	xor gr15 gr15 gr13
    48b8:	84 c3 0f 00 	add gr12 gr12 gr15
    48bc:	80 00 00 00 	nop
    48c0:	80 b0 00 0f 	movc2g gr11
    48c4:	94 b0 26 75 	movigl gr11 267 <Cla1Task3+0x47>
    48c8:	94 b0 00 01 	movigh gr11 0 <_cla_int_entry_group0_0>
    48cc:	95 b4 00 15 	movigl gr27 4001 <.L0 +0x12>
    48d0:	95 b0 00 01 	movigh gr27 0 <_cla_int_entry_group0_0>
    48d4:	80 06 c0 0b 	movg2c gr27
    48d8:	84 c3 1b 00 	add gr12 gr12 gr27
    48dc:	84 d3 4b 06 	xor gr13 gr13 gr11
    48e0:	84 e3 8c 00 	add gr14 gr14 gr12
    48e4:	84 f3 cd 06 	xor gr15 gr15 gr13
    48e8:	84 c3 0f 00 	add gr12 gr12 gr15
    48ec:	80 00 00 00 	nop
    48f0:	80 40 00 0f 	movc2g gr4
    48f4:	94 40 26 85 	movigl gr4 268 <.L0 >
    48f8:	94 40 00 01 	movigh gr4 0 <_cla_int_entry_group0_0>
    48fc:	95 44 01 15 	movigl gr20 4011 <.L0 +0x7>
    4900:	95 40 00 01 	movigh gr20 0 <_cla_int_entry_group0_0>
    4904:	80 05 00 0b 	movg2c gr20
    4908:	84 c3 14 00 	add gr12 gr12 gr20
    490c:	84 d3 44 06 	xor gr13 gr13 gr4
    4910:	84 e3 8c 00 	add gr14 gr14 gr12
    4914:	84 f3 cd 06 	xor gr15 gr15 gr13
    4918:	84 c3 0f 00 	add gr12 gr12 gr15
    491c:	80 00 00 00 	nop
    4920:	80 50 00 0f 	movc2g gr5
    4924:	94 50 26 95 	movigl gr5 269 <.L0 +0x1>
    4928:	94 50 00 01 	movigh gr5 0 <_cla_int_entry_group0_0>
    492c:	95 54 00 15 	movigl gr21 4001 <.L0 +0x12>
    4930:	95 50 00 01 	movigh gr21 0 <_cla_int_entry_group0_0>
    4934:	80 05 40 0b 	movg2c gr21
    4938:	84 c3 15 00 	add gr12 gr12 gr21
    493c:	84 d3 45 06 	xor gr13 gr13 gr5
    4940:	84 e3 8c 00 	add gr14 gr14 gr12
    4944:	84 f3 cd 06 	xor gr15 gr15 gr13
    4948:	84 c3 0f 00 	add gr12 gr12 gr15
    494c:	80 00 00 00 	nop
    4950:	80 60 00 0f 	movc2g gr6
    4954:	94 60 26 a5 	movigl gr6 26a <.L0 +0x2>
    4958:	94 60 00 01 	movigh gr6 0 <_cla_int_entry_group0_0>
    495c:	95 64 00 15 	movigl gr22 4001 <.L0 +0x12>
    4960:	95 60 00 01 	movigh gr22 0 <_cla_int_entry_group0_0>
    4964:	80 05 80 0b 	movg2c gr22
    4968:	84 c3 16 00 	add gr12 gr12 gr22
    496c:	84 d3 46 06 	xor gr13 gr13 gr6
    4970:	84 e3 8c 00 	add gr14 gr14 gr12
    4974:	84 f3 cd 06 	xor gr15 gr15 gr13
    4978:	84 c3 0f 00 	add gr12 gr12 gr15
    497c:	80 00 00 00 	nop
    4980:	80 70 00 0f 	movc2g gr7
    4984:	94 70 26 b5 	movigl gr7 26b <.L0 +0x3>
    4988:	94 70 00 01 	movigh gr7 0 <_cla_int_entry_group0_0>
    498c:	95 74 01 15 	movigl gr23 4011 <.L0 +0x7>
    4990:	95 70 00 01 	movigh gr23 0 <_cla_int_entry_group0_0>
    4994:	80 05 c0 0b 	movg2c gr23
    4998:	84 c3 17 00 	add gr12 gr12 gr23
    499c:	84 d3 47 06 	xor gr13 gr13 gr7
    49a0:	84 e3 8c 00 	add gr14 gr14 gr12
    49a4:	84 f3 cd 06 	xor gr15 gr15 gr13
    49a8:	84 c3 0f 00 	add gr12 gr12 gr15
    49ac:	80 00 00 00 	nop
    49b0:	80 80 00 0f 	movc2g gr8
    49b4:	94 80 26 c5 	movigl gr8 26c <.L0 +0x4>
    49b8:	94 80 00 01 	movigh gr8 0 <_cla_int_entry_group0_0>
    49bc:	95 84 00 15 	movigl gr24 4001 <.L0 +0x12>
    49c0:	95 80 00 01 	movigh gr24 0 <_cla_int_entry_group0_0>
    49c4:	80 06 00 0b 	movg2c gr24
    49c8:	84 c3 18 00 	add gr12 gr12 gr24
    49cc:	84 d3 48 06 	xor gr13 gr13 gr8
    49d0:	84 e3 8c 00 	add gr14 gr14 gr12
    49d4:	84 f3 cd 06 	xor gr15 gr15 gr13
    49d8:	84 c3 0f 00 	add gr12 gr12 gr15
    49dc:	80 00 00 00 	nop
    49e0:	80 90 00 0f 	movc2g gr9
    49e4:	94 90 26 d5 	movigl gr9 26d <.L0 +0x5>
    49e8:	94 90 00 01 	movigh gr9 0 <_cla_int_entry_group0_0>
    49ec:	95 94 00 15 	movigl gr25 4001 <.L0 +0x12>
    49f0:	95 90 00 01 	movigh gr25 0 <_cla_int_entry_group0_0>
    49f4:	80 06 40 0b 	movg2c gr25
    49f8:	84 c3 19 00 	add gr12 gr12 gr25
    49fc:	84 d3 49 06 	xor gr13 gr13 gr9
    4a00:	84 e3 8c 00 	add gr14 gr14 gr12
    4a04:	84 f3 cd 06 	xor gr15 gr15 gr13
    4a08:	84 c3 0f 00 	add gr12 gr12 gr15
    4a0c:	80 00 00 00 	nop
    4a10:	80 a0 00 0f 	movc2g gr10
    4a14:	94 a0 26 e5 	movigl gr10 26e <.L0 +0x6>
    4a18:	94 a0 00 01 	movigh gr10 0 <_cla_int_entry_group0_0>
    4a1c:	95 a4 01 15 	movigl gr26 4011 <.L0 +0x7>
    4a20:	95 a0 00 01 	movigh gr26 0 <_cla_int_entry_group0_0>
    4a24:	80 06 80 0b 	movg2c gr26
    4a28:	84 c3 1a 00 	add gr12 gr12 gr26
    4a2c:	84 d3 4a 06 	xor gr13 gr13 gr10
    4a30:	84 e3 8c 00 	add gr14 gr14 gr12
    4a34:	84 f3 cd 06 	xor gr15 gr15 gr13
    4a38:	84 c3 0f 00 	add gr12 gr12 gr15
    4a3c:	80 00 00 00 	nop
    4a40:	80 b0 00 0f 	movc2g gr11
    4a44:	94 b0 26 f5 	movigl gr11 26f <.L0 +0x7>
    4a48:	94 b0 00 01 	movigh gr11 0 <_cla_int_entry_group0_0>
    4a4c:	95 b4 00 15 	movigl gr27 4001 <.L0 +0x12>
    4a50:	95 b0 00 01 	movigh gr27 0 <_cla_int_entry_group0_0>
    4a54:	80 06 c0 0b 	movg2c gr27
    4a58:	84 c3 1b 00 	add gr12 gr12 gr27
    4a5c:	84 d3 4b 06 	xor gr13 gr13 gr11
    4a60:	84 e3 8c 00 	add gr14 gr14 gr12
    4a64:	84 f3 cd 06 	xor gr15 gr15 gr13
    4a68:	84 c3 0f 00 	add gr12 gr12 gr15
    4a6c:	80 00 00 00 	nop
    4a70:	80 40 00 0f 	movc2g gr4
    4a74:	94 40 27 05 	movigl gr4 270 <.L0 +0x8>
    4a78:	94 40 00 01 	movigh gr4 0 <_cla_int_entry_group0_0>
    4a7c:	95 44 00 15 	movigl gr20 4001 <.L0 +0x12>
    4a80:	95 40 00 01 	movigh gr20 0 <_cla_int_entry_group0_0>
    4a84:	80 05 00 0b 	movg2c gr20
    4a88:	84 c3 14 00 	add gr12 gr12 gr20
    4a8c:	84 d3 44 06 	xor gr13 gr13 gr4
    4a90:	84 e3 8c 00 	add gr14 gr14 gr12
    4a94:	84 f3 cd 06 	xor gr15 gr15 gr13
    4a98:	84 c3 0f 00 	add gr12 gr12 gr15
    4a9c:	80 00 00 00 	nop
    4aa0:	80 50 00 0f 	movc2g gr5
    4aa4:	94 50 27 15 	movigl gr5 271 <.L0 +0x9>
    4aa8:	94 50 00 01 	movigh gr5 0 <_cla_int_entry_group0_0>
    4aac:	95 54 01 15 	movigl gr21 4011 <.L0 +0x7>
    4ab0:	95 50 00 01 	movigh gr21 0 <_cla_int_entry_group0_0>
    4ab4:	80 05 40 0b 	movg2c gr21
    4ab8:	84 c3 15 00 	add gr12 gr12 gr21
    4abc:	84 d3 45 06 	xor gr13 gr13 gr5
    4ac0:	84 e3 8c 00 	add gr14 gr14 gr12
    4ac4:	84 f3 cd 06 	xor gr15 gr15 gr13
    4ac8:	84 c3 0f 00 	add gr12 gr12 gr15
    4acc:	80 00 00 00 	nop
    4ad0:	80 60 00 0f 	movc2g gr6
    4ad4:	94 60 27 25 	movigl gr6 272 <.L0 +0xa>
    4ad8:	94 60 00 01 	movigh gr6 0 <_cla_int_entry_group0_0>
    4adc:	95 64 00 15 	movigl gr22 4001 <.L0 +0x12>
    4ae0:	95 60 00 01 	movigh gr22 0 <_cla_int_entry_group0_0>
    4ae4:	80 05 80 0b 	movg2c gr22
    4ae8:	84 c3 16 00 	add gr12 gr12 gr22
    4aec:	84 d3 46 06 	xor gr13 gr13 gr6
    4af0:	84 e3 8c 00 	add gr14 gr14 gr12
    4af4:	84 f3 cd 06 	xor gr15 gr15 gr13
    4af8:	84 c3 0f 00 	add gr12 gr12 gr15
    4afc:	80 00 00 00 	nop
    4b00:	80 70 00 0f 	movc2g gr7
    4b04:	94 70 27 35 	movigl gr7 273 <.L0 +0xb>
    4b08:	94 70 00 01 	movigh gr7 0 <_cla_int_entry_group0_0>
    4b0c:	95 74 00 15 	movigl gr23 4001 <.L0 +0x12>
    4b10:	95 70 00 01 	movigh gr23 0 <_cla_int_entry_group0_0>
    4b14:	80 05 c0 0b 	movg2c gr23
    4b18:	84 c3 17 00 	add gr12 gr12 gr23
    4b1c:	84 d3 47 06 	xor gr13 gr13 gr7
    4b20:	84 e3 8c 00 	add gr14 gr14 gr12
    4b24:	84 f3 cd 06 	xor gr15 gr15 gr13
    4b28:	84 c3 0f 00 	add gr12 gr12 gr15
    4b2c:	80 00 00 00 	nop
    4b30:	80 80 00 0f 	movc2g gr8
    4b34:	94 80 27 45 	movigl gr8 274 <.L0 +0xc>
    4b38:	94 80 00 01 	movigh gr8 0 <_cla_int_entry_group0_0>
    4b3c:	95 84 01 15 	movigl gr24 4011 <.L0 +0x7>
    4b40:	95 80 00 01 	movigh gr24 0 <_cla_int_entry_group0_0>
    4b44:	80 06 00 0b 	movg2c gr24
    4b48:	84 c3 18 00 	add gr12 gr12 gr24
    4b4c:	84 d3 48 06 	xor gr13 gr13 gr8
    4b50:	84 e3 8c 00 	add gr14 gr14 gr12
    4b54:	84 f3 cd 06 	xor gr15 gr15 gr13
    4b58:	84 c3 0f 00 	add gr12 gr12 gr15
    4b5c:	80 00 00 00 	nop
    4b60:	80 90 00 0f 	movc2g gr9
    4b64:	94 90 27 55 	movigl gr9 275 <.L0 +0xd>
    4b68:	94 90 00 01 	movigh gr9 0 <_cla_int_entry_group0_0>
    4b6c:	95 94 00 15 	movigl gr25 4001 <.L0 +0x12>
    4b70:	95 90 00 01 	movigh gr25 0 <_cla_int_entry_group0_0>
    4b74:	80 06 40 0b 	movg2c gr25
    4b78:	84 c3 19 00 	add gr12 gr12 gr25
    4b7c:	84 d3 49 06 	xor gr13 gr13 gr9
    4b80:	84 e3 8c 00 	add gr14 gr14 gr12
    4b84:	84 f3 cd 06 	xor gr15 gr15 gr13
    4b88:	84 c3 0f 00 	add gr12 gr12 gr15
    4b8c:	80 00 00 00 	nop
    4b90:	80 a0 00 0f 	movc2g gr10
    4b94:	94 a0 27 65 	movigl gr10 276 <.L0 +0xe>
    4b98:	94 a0 00 01 	movigh gr10 0 <_cla_int_entry_group0_0>
    4b9c:	95 a4 00 15 	movigl gr26 4001 <.L0 +0x12>
    4ba0:	95 a0 00 01 	movigh gr26 0 <_cla_int_entry_group0_0>
    4ba4:	80 06 80 0b 	movg2c gr26
    4ba8:	84 c3 1a 00 	add gr12 gr12 gr26
    4bac:	84 d3 4a 06 	xor gr13 gr13 gr10
    4bb0:	84 e3 8c 00 	add gr14 gr14 gr12
    4bb4:	84 f3 cd 06 	xor gr15 gr15 gr13
    4bb8:	84 c3 0f 00 	add gr12 gr12 gr15
    4bbc:	80 00 00 00 	nop
    4bc0:	80 b0 00 0f 	movc2g gr11
    4bc4:	94 b0 27 75 	movigl gr11 277 <.L0 +0xf>
    4bc8:	94 b0 00 01 	movigh gr11 0 <_cla_int_entry_group0_0>
    4bcc:	95 b4 01 15 	movigl gr27 4011 <.L0 +0x7>
    4bd0:	95 b0 00 01 	movigh gr27 0 <_cla_int_entry_group0_0>
    4bd4:	80 06 c0 0b 	movg2c gr27
    4bd8:	84 c3 1b 00 	add gr12 gr12 gr27
    4bdc:	84 d3 4b 06 	xor gr13 gr13 gr11
    4be0:	84 e3 8c 00 	add gr14 gr14 gr12
    4be4:	84 f3 cd 06 	xor gr15 gr15 gr13
    4be8:	84 c3 0f 00 	add gr12 gr12 gr15
    4bec:	80 00 00 00 	nop
    4bf0:	80 40 00 0f 	movc2g gr4
    4bf4:	94 40 27 85 	movigl gr4 278 <.L0 +0x10>
    4bf8:	94 40 00 01 	movigh gr4 0 <_cla_int_entry_group0_0>
    4bfc:	95 44 00 15 	movigl gr20 4001 <.L0 +0x12>
    4c00:	95 40 00 01 	movigh gr20 0 <_cla_int_entry_group0_0>
    4c04:	80 05 00 0b 	movg2c gr20
    4c08:	84 c3 14 00 	add gr12 gr12 gr20
    4c0c:	84 d3 44 06 	xor gr13 gr13 gr4
    4c10:	84 e3 8c 00 	add gr14 gr14 gr12
    4c14:	84 f3 cd 06 	xor gr15 gr15 gr13
    4c18:	84 c3 0f 00 	add gr12 gr12 gr15
    4c1c:	80 00 00 00 	nop
    4c20:	80 50 00 0f 	movc2g gr5
    4c24:	94 50 27 95 	movigl gr5 279 <.L0 +0x11>
    4c28:	94 50 00 01 	movigh gr5 0 <_cla_int_entry_group0_0>
    4c2c:	95 54 00 15 	movigl gr21 4001 <.L0 +0x12>
    4c30:	95 50 00 01 	movigh gr21 0 <_cla_int_entry_group0_0>
    4c34:	80 05 40 0b 	movg2c gr21
    4c38:	84 c3 15 00 	add gr12 gr12 gr21
    4c3c:	84 d3 45 06 	xor gr13 gr13 gr5
    4c40:	84 e3 8c 00 	add gr14 gr14 gr12
    4c44:	84 f3 cd 06 	xor gr15 gr15 gr13
    4c48:	84 c3 0f 00 	add gr12 gr12 gr15
    4c4c:	80 00 00 00 	nop
    4c50:	80 60 00 0f 	movc2g gr6
    4c54:	94 60 27 a5 	movigl gr6 27a <.L0 +0x12>
    4c58:	94 60 00 01 	movigh gr6 0 <_cla_int_entry_group0_0>
    4c5c:	95 64 01 15 	movigl gr22 4011 <.L0 +0x7>
    4c60:	95 60 00 01 	movigh gr22 0 <_cla_int_entry_group0_0>
    4c64:	80 05 80 0b 	movg2c gr22
    4c68:	84 c3 16 00 	add gr12 gr12 gr22
    4c6c:	84 d3 46 06 	xor gr13 gr13 gr6
    4c70:	84 e3 8c 00 	add gr14 gr14 gr12
    4c74:	84 f3 cd 06 	xor gr15 gr15 gr13
    4c78:	84 c3 0f 00 	add gr12 gr12 gr15
    4c7c:	80 00 00 00 	nop
    4c80:	80 70 00 0f 	movc2g gr7
    4c84:	94 70 27 b5 	movigl gr7 27b <.L0 +0x13>
    4c88:	94 70 00 01 	movigh gr7 0 <_cla_int_entry_group0_0>
    4c8c:	95 74 00 15 	movigl gr23 4001 <.L0 +0x12>
    4c90:	95 70 00 01 	movigh gr23 0 <_cla_int_entry_group0_0>
    4c94:	80 05 c0 0b 	movg2c gr23
    4c98:	84 c3 17 00 	add gr12 gr12 gr23
    4c9c:	84 d3 47 06 	xor gr13 gr13 gr7
    4ca0:	84 e3 8c 00 	add gr14 gr14 gr12
    4ca4:	84 f3 cd 06 	xor gr15 gr15 gr13
    4ca8:	84 c3 0f 00 	add gr12 gr12 gr15
    4cac:	80 00 00 00 	nop
    4cb0:	80 80 00 0f 	movc2g gr8
    4cb4:	94 80 27 c5 	movigl gr8 27c <.L0 +0x14>
    4cb8:	94 80 00 01 	movigh gr8 0 <_cla_int_entry_group0_0>
    4cbc:	95 84 00 15 	movigl gr24 4001 <.L0 +0x12>
    4cc0:	95 80 00 01 	movigh gr24 0 <_cla_int_entry_group0_0>
    4cc4:	80 06 00 0b 	movg2c gr24
    4cc8:	84 c3 18 00 	add gr12 gr12 gr24
    4ccc:	84 d3 48 06 	xor gr13 gr13 gr8
    4cd0:	84 e3 8c 00 	add gr14 gr14 gr12
    4cd4:	84 f3 cd 06 	xor gr15 gr15 gr13
    4cd8:	84 c3 0f 00 	add gr12 gr12 gr15
    4cdc:	80 00 00 00 	nop
    4ce0:	80 90 00 0f 	movc2g gr9
    4ce4:	94 90 27 d5 	movigl gr9 27d <.L0 +0x15>
    4ce8:	94 90 00 01 	movigh gr9 0 <_cla_int_entry_group0_0>
    4cec:	95 94 01 15 	movigl gr25 4011 <.L0 +0x7>
    4cf0:	95 90 00 01 	movigh gr25 0 <_cla_int_entry_group0_0>
    4cf4:	80 06 40 0b 	movg2c gr25
    4cf8:	84 c3 19 00 	add gr12 gr12 gr25
    4cfc:	84 d3 49 06 	xor gr13 gr13 gr9
    4d00:	84 e3 8c 00 	add gr14 gr14 gr12
    4d04:	84 f3 cd 06 	xor gr15 gr15 gr13
    4d08:	84 c3 0f 00 	add gr12 gr12 gr15
    4d0c:	80 00 00 00 	nop
    4d10:	80 a0 00 0f 	movc2g gr10
    4d14:	94 a0 27 e5 	movigl gr10 27e <.L0 +0x16>
    4d18:	94 a0 00 01 	movigh gr10 0 <_cla_int_entry_group0_0>
    4d1c:	95 a4 00 15 	movigl gr26 4001 <.L0 +0x12>
    4d20:	95 a0 00 01 	movigh gr26 0 <_cla_int_entry_group0_0>
    4d24:	80 06 80 0b 	movg2c gr26
    4d28:	84 c3 1a 00 	add gr12 gr12 gr26
    4d2c:	84 d3 4a 06 	xor gr13 gr13 gr10
    4d30:	84 e3 8c 00 	add gr14 gr14 gr12
    4d34:	84 f3 cd 06 	xor gr15 gr15 gr13
    4d38:	84 c3 0f 00 	add gr12 gr12 gr15
    4d3c:	80 00 00 00 	nop
    4d40:	80 b0 00 0f 	movc2g gr11
    4d44:	94 b0 27 f5 	movigl gr11 27f <.L0 +0x17>
    4d48:	94 b0 00 01 	movigh gr11 0 <_cla_int_entry_group0_0>
    4d4c:	95 b4 00 15 	movigl gr27 4001 <.L0 +0x12>
    4d50:	95 b0 00 01 	movigh gr27 0 <_cla_int_entry_group0_0>
    4d54:	80 06 c0 0b 	movg2c gr27
    4d58:	84 c3 1b 00 	add gr12 gr12 gr27
    4d5c:	84 d3 4b 06 	xor gr13 gr13 gr11
    4d60:	84 e3 8c 00 	add gr14 gr14 gr12
    4d64:	84 f3 cd 06 	xor gr15 gr15 gr13
    4d68:	84 c3 0f 00 	add gr12 gr12 gr15
    4d6c:	80 00 00 00 	nop
    4d70:	80 40 00 0f 	movc2g gr4
    4d74:	94 40 28 05 	movigl gr4 280 <.L0 +0x18>
    4d78:	94 40 00 01 	movigh gr4 0 <_cla_int_entry_group0_0>
    4d7c:	95 44 01 15 	movigl gr20 4011 <.L0 +0x7>
    4d80:	95 40 00 01 	movigh gr20 0 <_cla_int_entry_group0_0>
    4d84:	80 05 00 0b 	movg2c gr20
    4d88:	84 c3 14 00 	add gr12 gr12 gr20
    4d8c:	84 d3 44 06 	xor gr13 gr13 gr4
    4d90:	84 e3 8c 00 	add gr14 gr14 gr12
    4d94:	84 f3 cd 06 	xor gr15 gr15 gr13
    4d98:	84 c3 0f 00 	add gr12 gr12 gr15
    4d9c:	80 00 00 00 	nop
    4da0:	80 50 00 0f 	movc2g gr5
    4da4:	94 50 28 15 	movigl gr5 281 <.L0 +0x19>
    4da8:	94 50 00 01 	movigh gr5 0 <_cla_int_entry_group0_0>
    4dac:	95 54 00 15 	movigl gr21 4001 <.L0 +0x12>
    4db0:	95 50 00 01 	movigh gr21 0 <_cla_int_entry_group0_0>
    4db4:	80 05 40 0b 	movg2c gr21
    4db8:	84 c3 15 00 	add gr12 gr12 gr21
    4dbc:	84 d3 45 06 	xor gr13 gr13 gr5
    4dc0:	84 e3 8c 00 	add gr14 gr14 gr12
    4dc4:	84 f3 cd 06 	xor gr15 gr15 gr13
    4dc8:	84 c3 0f 00 	add gr12 gr12 gr15
    4dcc:	80 00 00 00 	nop
    4dd0:	80 60 00 0f 	movc2g gr6
    4dd4:	94 60 28 25 	movigl gr6 282 <.L0 +0x1a>
    4dd8:	94 60 00 01 	movigh gr6 0 <_cla_int_entry_group0_0>
    4ddc:	95 64 00 15 	movigl gr22 4001 <.L0 +0x12>
    4de0:	95 60 00 01 	movigh gr22 0 <_cla_int_entry_group0_0>
    4de4:	80 05 80 0b 	movg2c gr22
    4de8:	84 c3 16 00 	add gr12 gr12 gr22
    4dec:	84 d3 46 06 	xor gr13 gr13 gr6
    4df0:	84 e3 8c 00 	add gr14 gr14 gr12
    4df4:	84 f3 cd 06 	xor gr15 gr15 gr13
    4df8:	84 c3 0f 00 	add gr12 gr12 gr15
    4dfc:	80 00 00 00 	nop
    4e00:	80 70 00 0f 	movc2g gr7
    4e04:	94 70 28 35 	movigl gr7 283 <.L0 +0x1b>
    4e08:	94 70 00 01 	movigh gr7 0 <_cla_int_entry_group0_0>
    4e0c:	95 74 01 15 	movigl gr23 4011 <.L0 +0x7>
    4e10:	95 70 00 01 	movigh gr23 0 <_cla_int_entry_group0_0>
    4e14:	80 05 c0 0b 	movg2c gr23
    4e18:	84 c3 17 00 	add gr12 gr12 gr23
    4e1c:	84 d3 47 06 	xor gr13 gr13 gr7
    4e20:	84 e3 8c 00 	add gr14 gr14 gr12
    4e24:	84 f3 cd 06 	xor gr15 gr15 gr13
    4e28:	84 c3 0f 00 	add gr12 gr12 gr15
    4e2c:	80 00 00 00 	nop
    4e30:	80 80 00 0f 	movc2g gr8
    4e34:	94 80 28 45 	movigl gr8 284 <.L0 +0x1c>
    4e38:	94 80 00 01 	movigh gr8 0 <_cla_int_entry_group0_0>
    4e3c:	95 84 00 15 	movigl gr24 4001 <.L0 +0x12>
    4e40:	95 80 00 01 	movigh gr24 0 <_cla_int_entry_group0_0>
    4e44:	80 06 00 0b 	movg2c gr24
    4e48:	84 c3 18 00 	add gr12 gr12 gr24
    4e4c:	84 d3 48 06 	xor gr13 gr13 gr8
    4e50:	84 e3 8c 00 	add gr14 gr14 gr12
    4e54:	84 f3 cd 06 	xor gr15 gr15 gr13
    4e58:	84 c3 0f 00 	add gr12 gr12 gr15
    4e5c:	80 00 00 00 	nop
    4e60:	80 90 00 0f 	movc2g gr9
    4e64:	94 90 28 55 	movigl gr9 285 <.L0 +0x1d>
    4e68:	94 90 00 01 	movigh gr9 0 <_cla_int_entry_group0_0>
    4e6c:	95 94 00 15 	movigl gr25 4001 <.L0 +0x12>
    4e70:	95 90 00 01 	movigh gr25 0 <_cla_int_entry_group0_0>
    4e74:	80 06 40 0b 	movg2c gr25
    4e78:	84 c3 19 00 	add gr12 gr12 gr25
    4e7c:	84 d3 49 06 	xor gr13 gr13 gr9
    4e80:	84 e3 8c 00 	add gr14 gr14 gr12
    4e84:	84 f3 cd 06 	xor gr15 gr15 gr13
    4e88:	84 c3 0f 00 	add gr12 gr12 gr15
    4e8c:	80 00 00 00 	nop
    4e90:	80 a0 00 0f 	movc2g gr10
    4e94:	94 a0 28 65 	movigl gr10 286 <.L0 +0x1e>
    4e98:	94 a0 00 01 	movigh gr10 0 <_cla_int_entry_group0_0>
    4e9c:	95 a4 01 15 	movigl gr26 4011 <.L0 +0x7>
    4ea0:	95 a0 00 01 	movigh gr26 0 <_cla_int_entry_group0_0>
    4ea4:	80 06 80 0b 	movg2c gr26
    4ea8:	84 c3 1a 00 	add gr12 gr12 gr26
    4eac:	84 d3 4a 06 	xor gr13 gr13 gr10
    4eb0:	84 e3 8c 00 	add gr14 gr14 gr12
    4eb4:	84 f3 cd 06 	xor gr15 gr15 gr13
    4eb8:	84 c3 0f 00 	add gr12 gr12 gr15
    4ebc:	80 00 00 00 	nop
    4ec0:	80 b0 00 0f 	movc2g gr11
    4ec4:	94 b0 28 75 	movigl gr11 287 <.L0 +0x1f>
    4ec8:	94 b0 00 01 	movigh gr11 0 <_cla_int_entry_group0_0>
    4ecc:	95 b4 00 15 	movigl gr27 4001 <.L0 +0x12>
    4ed0:	95 b0 00 01 	movigh gr27 0 <_cla_int_entry_group0_0>
    4ed4:	80 06 c0 0b 	movg2c gr27
    4ed8:	84 c3 1b 00 	add gr12 gr12 gr27
    4edc:	84 d3 4b 06 	xor gr13 gr13 gr11
    4ee0:	84 e3 8c 00 	add gr14 gr14 gr12
    4ee4:	84 f3 cd 06 	xor gr15 gr15 gr13
    4ee8:	84 c3 0f 00 	add gr12 gr12 gr15
    4eec:	80 00 00 00 	nop
    4ef0:	80 40 00 0f 	movc2g gr4
    4ef4:	94 40 28 85 	movigl gr4 288 <.L0 +0x20>
    4ef8:	94 40 00 01 	movigh gr4 0 <_cla_int_entry_group0_0>
    4efc:	95 44 00 15 	movigl gr20 4001 <.L0 +0x12>
    4f00:	95 40 00 01 	movigh gr20 0 <_cla_int_entry_group0_0>
    4f04:	80 05 00 0b 	movg2c gr20
    4f08:	84 c3 14 00 	add gr12 gr12 gr20
    4f0c:	84 d3 44 06 	xor gr13 gr13 gr4
    4f10:	84 e3 8c 00 	add gr14 gr14 gr12
    4f14:	84 f3 cd 06 	xor gr15 gr15 gr13
    4f18:	84 c3 0f 00 	add gr12 gr12 gr15
    4f1c:	80 00 00 00 	nop
    4f20:	80 50 00 0f 	movc2g gr5
    4f24:	94 50 28 95 	movigl gr5 289 <.L0 +0x21>
    4f28:	94 50 00 01 	movigh gr5 0 <_cla_int_entry_group0_0>
    4f2c:	95 54 01 15 	movigl gr21 4011 <.L0 +0x7>
    4f30:	95 50 00 01 	movigh gr21 0 <_cla_int_entry_group0_0>
    4f34:	80 05 40 0b 	movg2c gr21
    4f38:	84 c3 15 00 	add gr12 gr12 gr21
    4f3c:	84 d3 45 06 	xor gr13 gr13 gr5
    4f40:	84 e3 8c 00 	add gr14 gr14 gr12
    4f44:	84 f3 cd 06 	xor gr15 gr15 gr13
    4f48:	84 c3 0f 00 	add gr12 gr12 gr15
    4f4c:	80 00 00 00 	nop
    4f50:	80 60 00 0f 	movc2g gr6
    4f54:	94 60 28 a5 	movigl gr6 28a <.L0 +0x22>
    4f58:	94 60 00 01 	movigh gr6 0 <_cla_int_entry_group0_0>
    4f5c:	95 64 00 15 	movigl gr22 4001 <.L0 +0x12>
    4f60:	95 60 00 01 	movigh gr22 0 <_cla_int_entry_group0_0>
    4f64:	80 05 80 0b 	movg2c gr22
    4f68:	84 c3 16 00 	add gr12 gr12 gr22
    4f6c:	84 d3 46 06 	xor gr13 gr13 gr6
    4f70:	84 e3 8c 00 	add gr14 gr14 gr12
    4f74:	84 f3 cd 06 	xor gr15 gr15 gr13
    4f78:	84 c3 0f 00 	add gr12 gr12 gr15
    4f7c:	80 00 00 00 	nop
    4f80:	80 70 00 0f 	movc2g gr7
    4f84:	94 70 28 b5 	movigl gr7 28b <.L0 +0x23>
    4f88:	94 70 00 01 	movigh gr7 0 <_cla_int_entry_group0_0>
    4f8c:	95 74 00 15 	movigl gr23 4001 <.L0 +0x12>
    4f90:	95 70 00 01 	movigh gr23 0 <_cla_int_entry_group0_0>
    4f94:	80 05 c0 0b 	movg2c gr23
    4f98:	84 c3 17 00 	add gr12 gr12 gr23
    4f9c:	84 d3 47 06 	xor gr13 gr13 gr7
    4fa0:	84 e3 8c 00 	add gr14 gr14 gr12
    4fa4:	84 f3 cd 06 	xor gr15 gr15 gr13
    4fa8:	84 c3 0f 00 	add gr12 gr12 gr15
    4fac:	80 00 00 00 	nop
    4fb0:	80 80 00 0f 	movc2g gr8
    4fb4:	94 80 28 c5 	movigl gr8 28c <.L0 +0x24>
    4fb8:	94 80 00 01 	movigh gr8 0 <_cla_int_entry_group0_0>
    4fbc:	95 84 01 15 	movigl gr24 4011 <.L0 +0x7>
    4fc0:	95 80 00 01 	movigh gr24 0 <_cla_int_entry_group0_0>
    4fc4:	80 06 00 0b 	movg2c gr24
    4fc8:	84 c3 18 00 	add gr12 gr12 gr24
    4fcc:	84 d3 48 06 	xor gr13 gr13 gr8
    4fd0:	84 e3 8c 00 	add gr14 gr14 gr12
    4fd4:	84 f3 cd 06 	xor gr15 gr15 gr13
    4fd8:	84 c3 0f 00 	add gr12 gr12 gr15
    4fdc:	80 00 00 00 	nop
    4fe0:	80 90 00 0f 	movc2g gr9
    4fe4:	94 90 28 d5 	movigl gr9 28d <.L0 +0x25>
    4fe8:	94 90 00 01 	movigh gr9 0 <_cla_int_entry_group0_0>
    4fec:	95 94 00 15 	movigl gr25 4001 <.L0 +0x12>
    4ff0:	95 90 00 01 	movigh gr25 0 <_cla_int_entry_group0_0>
    4ff4:	80 06 40 0b 	movg2c gr25
    4ff8:	84 c3 19 00 	add gr12 gr12 gr25
    4ffc:	84 d3 49 06 	xor gr13 gr13 gr9
    5000:	84 e3 8c 00 	add gr14 gr14 gr12
    5004:	84 f3 cd 06 	xor gr15 gr15 gr13
    5008:	84 c3 0f 00 	add gr12 gr12 gr15
    500c:	80 00 00 00 	nop
    5010:	80 a0 00 0f 	movc2g gr10
    5014:	94 a0 28 e5 	movigl gr10 28e <.L0 +0x26>
    5018:	94 a0 00 01 	movigh gr10 0 <_cla_int_entry_group0_0>
    501c:	95 a4 00 15 	movigl gr26 4001 <.L0 +0x12>
    5020:	95 a0 00 01 	movigh gr26 0 <_cla_int_entry_group0_0>
    5024:	80 06 80 0b 	movg2c gr26
    5028:	84 c3 1a 00 	add gr12 gr12 gr26
    502c:	84 d3 4a 06 	xor gr13 gr13 gr10
    5030:	84 e3 8c 00 	add gr14 gr14 gr12
    5034:	84 f3 cd 06 	xor gr15 gr15 gr13
    5038:	84 c3 0f 00 	add gr12 gr12 gr15
    503c:	80 00 00 00 	nop
    5040:	80 b0 00 0f 	movc2g gr11
    5044:	94 b0 28 f5 	movigl gr11 28f <.L0 +0x27>
    5048:	94 b0 00 01 	movigh gr11 0 <_cla_int_entry_group0_0>
    504c:	95 b4 01 15 	movigl gr27 4011 <.L0 +0x7>
    5050:	95 b0 00 01 	movigh gr27 0 <_cla_int_entry_group0_0>
    5054:	80 06 c0 0b 	movg2c gr27
    5058:	84 c3 1b 00 	add gr12 gr12 gr27
    505c:	84 d3 4b 06 	xor gr13 gr13 gr11
    5060:	84 e3 8c 00 	add gr14 gr14 gr12
    5064:	84 f3 cd 06 	xor gr15 gr15 gr13
    5068:	84 c3 0f 00 	add gr12 gr12 gr15
    506c:	80 00 00 00 	nop
    5070:	80 40 00 0f 	movc2g gr4
    5074:	94 40 29 05 	movigl gr4 290 <.L0 +0x28>
    5078:	94 40 00 01 	movigh gr4 0 <_cla_int_entry_group0_0>
    507c:	95 44 00 15 	movigl gr20 4001 <.L0 +0x12>
    5080:	95 40 00 01 	movigh gr20 0 <_cla_int_entry_group0_0>
    5084:	80 05 00 0b 	movg2c gr20
    5088:	84 c3 14 00 	add gr12 gr12 gr20
    508c:	84 d3 44 06 	xor gr13 gr13 gr4
    5090:	84 e3 8c 00 	add gr14 gr14 gr12
    5094:	84 f3 cd 06 	xor gr15 gr15 gr13
    5098:	84 c3 0f 00 	add gr12 gr12 gr15
    509c:	80 00 00 00 	nop
    50a0:	80 50 00 0f 	movc2g gr5
    50a4:	94 50 29 15 	movigl gr5 291 <.L0 +0x29>
    50a8:	94 50 00 01 	movigh gr5 0 <_cla_int_entry_group0_0>
    50ac:	95 54 00 15 	movigl gr21 4001 <.L0 +0x12>
    50b0:	95 50 00 01 	movigh gr21 0 <_cla_int_entry_group0_0>
    50b4:	80 05 40 0b 	movg2c gr21
    50b8:	84 c3 15 00 	add gr12 gr12 gr21
    50bc:	84 d3 45 06 	xor gr13 gr13 gr5
    50c0:	84 e3 8c 00 	add gr14 gr14 gr12
    50c4:	84 f3 cd 06 	xor gr15 gr15 gr13
    50c8:	84 c3 0f 00 	add gr12 gr12 gr15
    50cc:	80 00 00 00 	nop
    50d0:	80 60 00 0f 	movc2g gr6
    50d4:	94 60 29 25 	movigl gr6 292 <.L0 +0x2a>
    50d8:	94 60 00 01 	movigh gr6 0 <_cla_int_entry_group0_0>
    50dc:	95 64 01 15 	movigl gr22 4011 <.L0 +0x7>
    50e0:	95 60 00 01 	movigh gr22 0 <_cla_int_entry_group0_0>
    50e4:	80 05 80 0b 	movg2c gr22
    50e8:	84 c3 16 00 	add gr12 gr12 gr22
    50ec:	84 d3 46 06 	xor gr13 gr13 gr6
    50f0:	84 e3 8c 00 	add gr14 gr14 gr12
    50f4:	84 f3 cd 06 	xor gr15 gr15 gr13
    50f8:	84 c3 0f 00 	add gr12 gr12 gr15
    50fc:	80 00 00 00 	nop
    5100:	80 70 00 0f 	movc2g gr7
    5104:	94 70 29 35 	movigl gr7 293 <.L0 +0x2b>
    5108:	94 70 00 01 	movigh gr7 0 <_cla_int_entry_group0_0>
    510c:	95 74 00 15 	movigl gr23 4001 <.L0 +0x12>
    5110:	95 70 00 01 	movigh gr23 0 <_cla_int_entry_group0_0>
    5114:	80 05 c0 0b 	movg2c gr23
    5118:	84 c3 17 00 	add gr12 gr12 gr23
    511c:	84 d3 47 06 	xor gr13 gr13 gr7
    5120:	84 e3 8c 00 	add gr14 gr14 gr12
    5124:	84 f3 cd 06 	xor gr15 gr15 gr13
    5128:	84 c3 0f 00 	add gr12 gr12 gr15
    512c:	80 00 00 00 	nop
    5130:	80 80 00 0f 	movc2g gr8
    5134:	94 80 29 45 	movigl gr8 294 <.L0 +0x2c>
    5138:	94 80 00 01 	movigh gr8 0 <_cla_int_entry_group0_0>
    513c:	95 84 00 15 	movigl gr24 4001 <.L0 +0x12>
    5140:	95 80 00 01 	movigh gr24 0 <_cla_int_entry_group0_0>
    5144:	80 06 00 0b 	movg2c gr24
    5148:	84 c3 18 00 	add gr12 gr12 gr24
    514c:	84 d3 48 06 	xor gr13 gr13 gr8
    5150:	84 e3 8c 00 	add gr14 gr14 gr12
    5154:	84 f3 cd 06 	xor gr15 gr15 gr13
    5158:	84 c3 0f 00 	add gr12 gr12 gr15
    515c:	80 00 00 00 	nop
    5160:	80 90 00 0f 	movc2g gr9
    5164:	94 90 29 55 	movigl gr9 295 <.L0 +0x2d>
    5168:	94 90 00 01 	movigh gr9 0 <_cla_int_entry_group0_0>
    516c:	95 94 01 15 	movigl gr25 4011 <.L0 +0x7>
    5170:	95 90 00 01 	movigh gr25 0 <_cla_int_entry_group0_0>
    5174:	80 06 40 0b 	movg2c gr25
    5178:	84 c3 19 00 	add gr12 gr12 gr25
    517c:	84 d3 49 06 	xor gr13 gr13 gr9
    5180:	84 e3 8c 00 	add gr14 gr14 gr12
    5184:	84 f3 cd 06 	xor gr15 gr15 gr13
    5188:	84 c3 0f 00 	add gr12 gr12 gr15
    518c:	80 00 00 00 	nop
    5190:	80 a0 00 0f 	movc2g gr10
    5194:	94 a0 29 65 	movigl gr10 296 <.L0 +0x2e>
    5198:	94 a0 00 01 	movigh gr10 0 <_cla_int_entry_group0_0>
    519c:	95 a4 00 15 	movigl gr26 4001 <.L0 +0x12>
    51a0:	95 a0 00 01 	movigh gr26 0 <_cla_int_entry_group0_0>
    51a4:	80 06 80 0b 	movg2c gr26
    51a8:	84 c3 1a 00 	add gr12 gr12 gr26
    51ac:	84 d3 4a 06 	xor gr13 gr13 gr10
    51b0:	84 e3 8c 00 	add gr14 gr14 gr12
    51b4:	84 f3 cd 06 	xor gr15 gr15 gr13
    51b8:	84 c3 0f 00 	add gr12 gr12 gr15
    51bc:	80 00 00 00 	nop
    51c0:	80 b0 00 0f 	movc2g gr11
    51c4:	94 b0 29 75 	movigl gr11 297 <.L0 +0x2f>
    51c8:	94 b0 00 01 	movigh gr11 0 <_cla_int_entry_group0_0>
    51cc:	95 b4 00 15 	movigl gr27 4001 <.L0 +0x12>
    51d0:	95 b0 00 01 	movigh gr27 0 <_cla_int_entry_group0_0>
    51d4:	80 06 c0 0b 	movg2c gr27
    51d8:	84 c3 1b 00 	add gr12 gr12 gr27
    51dc:	84 d3 4b 06 	xor gr13 gr13 gr11
    51e0:	84 e3 8c 00 	add gr14 gr14 gr12
    51e4:	84 f3 cd 06 	xor gr15 gr15 gr13
    51e8:	84 c3 0f 00 	add gr12 gr12 gr15
    51ec:	80 00 00 00 	nop
    51f0:	80 40 00 0f 	movc2g gr4
    51f4:	94 40 29 85 	movigl gr4 298 <.L0 >
    51f8:	94 40 00 01 	movigh gr4 0 <_cla_int_entry_group0_0>
    51fc:	95 44 01 15 	movigl gr20 4011 <.L0 +0x7>
    5200:	95 40 00 01 	movigh gr20 0 <_cla_int_entry_group0_0>
    5204:	80 05 00 0b 	movg2c gr20
    5208:	84 c3 14 00 	add gr12 gr12 gr20
    520c:	84 d3 44 06 	xor gr13 gr13 gr4
    5210:	84 e3 8c 00 	add gr14 gr14 gr12
    5214:	84 f3 cd 06 	xor gr15 gr15 gr13
    5218:	84 c3 0f 00 	add gr12 gr12 gr15
    521c:	80 00 00 00 	nop
    5220:	80 50 00 0f 	movc2g gr5
    5224:	94 50 29 95 	movigl gr5 299 <.L0 +0x1>
    5228:	94 50 00 01 	movigh gr5 0 <_cla_int_entry_group0_0>
    522c:	95 54 00 15 	movigl gr21 4001 <.L0 +0x12>
    5230:	95 50 00 01 	movigh gr21 0 <_cla_int_entry_group0_0>
    5234:	80 05 40 0b 	movg2c gr21
    5238:	84 c3 15 00 	add gr12 gr12 gr21
    523c:	84 d3 45 06 	xor gr13 gr13 gr5
    5240:	84 e3 8c 00 	add gr14 gr14 gr12
    5244:	84 f3 cd 06 	xor gr15 gr15 gr13
    5248:	84 c3 0f 00 	add gr12 gr12 gr15
    524c:	80 00 00 00 	nop
    5250:	80 60 00 0f 	movc2g gr6
    5254:	94 60 29 a5 	movigl gr6 29a <.L0 +0x2>
    5258:	94 60 00 01 	movigh gr6 0 <_cla_int_entry_group0_0>
    525c:	95 64 00 15 	movigl gr22 4001 <.L0 +0x12>
    5260:	95 60 00 01 	movigh gr22 0 <_cla_int_entry_group0_0>
    5264:	80 05 80 0b 	movg2c gr22
    5268:	84 c3 16 00 	add gr12 gr12 gr22
    526c:	84 d3 46 06 	xor gr13 gr13 gr6
    5270:	84 e3 8c 00 	add gr14 gr14 gr12
    5274:	84 f3 cd 06 	xor gr15 gr15 gr13
    5278:	84 c3 0f 00 	add gr12 gr12 gr15
    527c:	80 00 00 00 	nop
    5280:	80 70 00 0f 	movc2g gr7
    5284:	94 70 29 b5 	movigl gr7 29b <.L0 +0x3>
    5288:	94 70 00 01 	movigh gr7 0 <_cla_int_entry_group0_0>
    528c:	95 74 01 15 	movigl gr23 4011 <.L0 +0x7>
    5290:	95 70 00 01 	movigh gr23 0 <_cla_int_entry_group0_0>
    5294:	80 05 c0 0b 	movg2c gr23
    5298:	84 c3 17 00 	add gr12 gr12 gr23
    529c:	84 d3 47 06 	xor gr13 gr13 gr7
    52a0:	84 e3 8c 00 	add gr14 gr14 gr12
    52a4:	84 f3 cd 06 	xor gr15 gr15 gr13
    52a8:	84 c3 0f 00 	add gr12 gr12 gr15
    52ac:	80 00 00 00 	nop
    52b0:	80 80 00 0f 	movc2g gr8
    52b4:	94 80 29 c5 	movigl gr8 29c <.L0 +0x4>
    52b8:	94 80 00 01 	movigh gr8 0 <_cla_int_entry_group0_0>
    52bc:	95 84 00 15 	movigl gr24 4001 <.L0 +0x12>
    52c0:	95 80 00 01 	movigh gr24 0 <_cla_int_entry_group0_0>
    52c4:	80 06 00 0b 	movg2c gr24
    52c8:	84 c3 18 00 	add gr12 gr12 gr24
    52cc:	84 d3 48 06 	xor gr13 gr13 gr8
    52d0:	84 e3 8c 00 	add gr14 gr14 gr12
    52d4:	84 f3 cd 06 	xor gr15 gr15 gr13
    52d8:	84 c3 0f 00 	add gr12 gr12 gr15
    52dc:	80 00 00 00 	nop
    52e0:	80 90 00 0f 	movc2g gr9
    52e4:	94 90 29 d5 	movigl gr9 29d <.L0 +0x5>
    52e8:	94 90 00 01 	movigh gr9 0 <_cla_int_entry_group0_0>
    52ec:	95 94 00 15 	movigl gr25 4001 <.L0 +0x12>
    52f0:	95 90 00 01 	movigh gr25 0 <_cla_int_entry_group0_0>
    52f4:	80 06 40 0b 	movg2c gr25
    52f8:	84 c3 19 00 	add gr12 gr12 gr25
    52fc:	84 d3 49 06 	xor gr13 gr13 gr9
    5300:	84 e3 8c 00 	add gr14 gr14 gr12
    5304:	84 f3 cd 06 	xor gr15 gr15 gr13
    5308:	84 c3 0f 00 	add gr12 gr12 gr15
    530c:	80 00 00 00 	nop
    5310:	80 a0 00 0f 	movc2g gr10
    5314:	94 a0 29 e5 	movigl gr10 29e <.L0 +0x6>
    5318:	94 a0 00 01 	movigh gr10 0 <_cla_int_entry_group0_0>
    531c:	95 a4 01 15 	movigl gr26 4011 <.L0 +0x7>
    5320:	95 a0 00 01 	movigh gr26 0 <_cla_int_entry_group0_0>
    5324:	80 06 80 0b 	movg2c gr26
    5328:	84 c3 1a 00 	add gr12 gr12 gr26
    532c:	84 d3 4a 06 	xor gr13 gr13 gr10
    5330:	84 e3 8c 00 	add gr14 gr14 gr12
    5334:	84 f3 cd 06 	xor gr15 gr15 gr13
    5338:	84 c3 0f 00 	add gr12 gr12 gr15
    533c:	80 00 00 00 	nop
    5340:	80 b0 00 0f 	movc2g gr11
    5344:	94 b0 29 f5 	movigl gr11 29f <.L0 +0x7>
    5348:	94 b0 00 01 	movigh gr11 0 <_cla_int_entry_group0_0>
    534c:	95 b4 00 15 	movigl gr27 4001 <.L0 +0x12>
    5350:	95 b0 00 01 	movigh gr27 0 <_cla_int_entry_group0_0>
    5354:	80 06 c0 0b 	movg2c gr27
    5358:	84 c3 1b 00 	add gr12 gr12 gr27
    535c:	84 d3 4b 06 	xor gr13 gr13 gr11
    5360:	84 e3 8c 00 	add gr14 gr14 gr12
    5364:	84 f3 cd 06 	xor gr15 gr15 gr13
    5368:	84 c3 0f 00 	add gr12 gr12 gr15
    536c:	80 00 00 00 	nop
    5370:	80 40 00 0f 	movc2g gr4
    5374:	94 40 2a 05 	movigl gr4 2a0 <.L0 +0x8>
    5378:	94 40 00 01 	movigh gr4 0 <_cla_int_entry_group0_0>
    537c:	95 44 00 15 	movigl gr20 4001 <.L0 +0x12>
    5380:	95 40 00 01 	movigh gr20 0 <_cla_int_entry_group0_0>
    5384:	80 05 00 0b 	movg2c gr20
    5388:	84 c3 14 00 	add gr12 gr12 gr20
    538c:	84 d3 44 06 	xor gr13 gr13 gr4
    5390:	84 e3 8c 00 	add gr14 gr14 gr12
    5394:	84 f3 cd 06 	xor gr15 gr15 gr13
    5398:	84 c3 0f 00 	add gr12 gr12 gr15
    539c:	80 00 00 00 	nop
    53a0:	80 50 00 0f 	movc2g gr5
    53a4:	94 50 2a 15 	movigl gr5 2a1 <.L0 +0x9>
    53a8:	94 50 00 01 	movigh gr5 0 <_cla_int_entry_group0_0>
    53ac:	95 54 01 15 	movigl gr21 4011 <.L0 +0x7>
    53b0:	95 50 00 01 	movigh gr21 0 <_cla_int_entry_group0_0>
    53b4:	80 05 40 0b 	movg2c gr21
    53b8:	84 c3 15 00 	add gr12 gr12 gr21
    53bc:	84 d3 45 06 	xor gr13 gr13 gr5
    53c0:	84 e3 8c 00 	add gr14 gr14 gr12
    53c4:	84 f3 cd 06 	xor gr15 gr15 gr13
    53c8:	84 c3 0f 00 	add gr12 gr12 gr15
    53cc:	80 00 00 00 	nop
    53d0:	80 60 00 0f 	movc2g gr6
    53d4:	94 60 2a 25 	movigl gr6 2a2 <.L0 +0xa>
    53d8:	94 60 00 01 	movigh gr6 0 <_cla_int_entry_group0_0>
    53dc:	95 64 00 15 	movigl gr22 4001 <.L0 +0x12>
    53e0:	95 60 00 01 	movigh gr22 0 <_cla_int_entry_group0_0>
    53e4:	80 05 80 0b 	movg2c gr22
    53e8:	84 c3 16 00 	add gr12 gr12 gr22
    53ec:	84 d3 46 06 	xor gr13 gr13 gr6
    53f0:	84 e3 8c 00 	add gr14 gr14 gr12
    53f4:	84 f3 cd 06 	xor gr15 gr15 gr13
    53f8:	84 c3 0f 00 	add gr12 gr12 gr15
    53fc:	80 00 00 00 	nop
    5400:	80 70 00 0f 	movc2g gr7
    5404:	94 70 2a 35 	movigl gr7 2a3 <.L0 +0xb>
    5408:	94 70 00 01 	movigh gr7 0 <_cla_int_entry_group0_0>
    540c:	95 74 00 15 	movigl gr23 4001 <.L0 +0x12>
    5410:	95 70 00 01 	movigh gr23 0 <_cla_int_entry_group0_0>
    5414:	80 05 c0 0b 	movg2c gr23
    5418:	84 c3 17 00 	add gr12 gr12 gr23
    541c:	84 d3 47 06 	xor gr13 gr13 gr7
    5420:	84 e3 8c 00 	add gr14 gr14 gr12
    5424:	84 f3 cd 06 	xor gr15 gr15 gr13
    5428:	84 c3 0f 00 	add gr12 gr12 gr15
    542c:	80 00 00 00 	nop
    5430:	80 80 00 0f 	movc2g gr8
    5434:	94 80 2a 45 	movigl gr8 2a4 <.L0 +0xc>
    5438:	94 80 00 01 	movigh gr8 0 <_cla_int_entry_group0_0>
    543c:	95 84 01 15 	movigl gr24 4011 <.L0 +0x7>
    5440:	95 80 00 01 	movigh gr24 0 <_cla_int_entry_group0_0>
    5444:	80 06 00 0b 	movg2c gr24
    5448:	84 c3 18 00 	add gr12 gr12 gr24
    544c:	84 d3 48 06 	xor gr13 gr13 gr8
    5450:	84 e3 8c 00 	add gr14 gr14 gr12
    5454:	84 f3 cd 06 	xor gr15 gr15 gr13
    5458:	84 c3 0f 00 	add gr12 gr12 gr15
    545c:	80 00 00 00 	nop
    5460:	80 90 00 0f 	movc2g gr9
    5464:	94 90 2a 55 	movigl gr9 2a5 <.L0 +0xd>
    5468:	94 90 00 01 	movigh gr9 0 <_cla_int_entry_group0_0>
    546c:	95 94 00 15 	movigl gr25 4001 <.L0 +0x12>
    5470:	95 90 00 01 	movigh gr25 0 <_cla_int_entry_group0_0>
    5474:	80 06 40 0b 	movg2c gr25
    5478:	84 c3 19 00 	add gr12 gr12 gr25
    547c:	84 d3 49 06 	xor gr13 gr13 gr9
    5480:	84 e3 8c 00 	add gr14 gr14 gr12
    5484:	84 f3 cd 06 	xor gr15 gr15 gr13
    5488:	84 c3 0f 00 	add gr12 gr12 gr15
    548c:	80 00 00 00 	nop
    5490:	80 a0 00 0f 	movc2g gr10
    5494:	94 a0 2a 65 	movigl gr10 2a6 <.L0 +0xe>
    5498:	94 a0 00 01 	movigh gr10 0 <_cla_int_entry_group0_0>
    549c:	95 a4 00 15 	movigl gr26 4001 <.L0 +0x12>
    54a0:	95 a0 00 01 	movigh gr26 0 <_cla_int_entry_group0_0>
    54a4:	80 06 80 0b 	movg2c gr26
    54a8:	84 c3 1a 00 	add gr12 gr12 gr26
    54ac:	84 d3 4a 06 	xor gr13 gr13 gr10
    54b0:	84 e3 8c 00 	add gr14 gr14 gr12
    54b4:	84 f3 cd 06 	xor gr15 gr15 gr13
    54b8:	84 c3 0f 00 	add gr12 gr12 gr15
    54bc:	80 00 00 00 	nop
    54c0:	80 b0 00 0f 	movc2g gr11
    54c4:	94 b0 2a 75 	movigl gr11 2a7 <.L0 +0xf>
    54c8:	94 b0 00 01 	movigh gr11 0 <_cla_int_entry_group0_0>
    54cc:	95 b4 01 15 	movigl gr27 4011 <.L0 +0x7>
    54d0:	95 b0 00 01 	movigh gr27 0 <_cla_int_entry_group0_0>
    54d4:	80 06 c0 0b 	movg2c gr27
    54d8:	84 c3 1b 00 	add gr12 gr12 gr27
    54dc:	84 d3 4b 06 	xor gr13 gr13 gr11
    54e0:	84 e3 8c 00 	add gr14 gr14 gr12
    54e4:	84 f3 cd 06 	xor gr15 gr15 gr13
    54e8:	84 c3 0f 00 	add gr12 gr12 gr15
    54ec:	80 00 00 00 	nop
    54f0:	80 40 00 0f 	movc2g gr4
    54f4:	94 40 2a 85 	movigl gr4 2a8 <.L0 +0x10>
    54f8:	94 40 00 01 	movigh gr4 0 <_cla_int_entry_group0_0>
    54fc:	95 44 00 15 	movigl gr20 4001 <.L0 +0x12>
    5500:	95 40 00 01 	movigh gr20 0 <_cla_int_entry_group0_0>
    5504:	80 05 00 0b 	movg2c gr20
    5508:	84 c3 14 00 	add gr12 gr12 gr20
    550c:	84 d3 44 06 	xor gr13 gr13 gr4
    5510:	84 e3 8c 00 	add gr14 gr14 gr12
    5514:	84 f3 cd 06 	xor gr15 gr15 gr13
    5518:	84 c3 0f 00 	add gr12 gr12 gr15
    551c:	80 00 00 00 	nop
    5520:	80 50 00 0f 	movc2g gr5
    5524:	94 50 2a 95 	movigl gr5 2a9 <.L0 +0x11>
    5528:	94 50 00 01 	movigh gr5 0 <_cla_int_entry_group0_0>
    552c:	95 54 00 15 	movigl gr21 4001 <.L0 +0x12>
    5530:	95 50 00 01 	movigh gr21 0 <_cla_int_entry_group0_0>
    5534:	80 05 40 0b 	movg2c gr21
    5538:	84 c3 15 00 	add gr12 gr12 gr21
    553c:	84 d3 45 06 	xor gr13 gr13 gr5
    5540:	84 e3 8c 00 	add gr14 gr14 gr12
    5544:	84 f3 cd 06 	xor gr15 gr15 gr13
    5548:	84 c3 0f 00 	add gr12 gr12 gr15
    554c:	80 00 00 00 	nop
    5550:	80 60 00 0f 	movc2g gr6
    5554:	94 60 2a a5 	movigl gr6 2aa <.L0 +0x12>
    5558:	94 60 00 01 	movigh gr6 0 <_cla_int_entry_group0_0>
    555c:	95 64 01 15 	movigl gr22 4011 <.L0 +0x7>
    5560:	95 60 00 01 	movigh gr22 0 <_cla_int_entry_group0_0>
    5564:	80 05 80 0b 	movg2c gr22
    5568:	84 c3 16 00 	add gr12 gr12 gr22
    556c:	84 d3 46 06 	xor gr13 gr13 gr6
    5570:	84 e3 8c 00 	add gr14 gr14 gr12
    5574:	84 f3 cd 06 	xor gr15 gr15 gr13
    5578:	84 c3 0f 00 	add gr12 gr12 gr15
    557c:	80 00 00 00 	nop
    5580:	80 70 00 0f 	movc2g gr7
    5584:	94 70 2a b5 	movigl gr7 2ab <.L0 +0x13>
    5588:	94 70 00 01 	movigh gr7 0 <_cla_int_entry_group0_0>
    558c:	95 74 00 15 	movigl gr23 4001 <.L0 +0x12>
    5590:	95 70 00 01 	movigh gr23 0 <_cla_int_entry_group0_0>
    5594:	80 05 c0 0b 	movg2c gr23
    5598:	84 c3 17 00 	add gr12 gr12 gr23
    559c:	84 d3 47 06 	xor gr13 gr13 gr7
    55a0:	84 e3 8c 00 	add gr14 gr14 gr12
    55a4:	84 f3 cd 06 	xor gr15 gr15 gr13
    55a8:	84 c3 0f 00 	add gr12 gr12 gr15
    55ac:	80 00 00 00 	nop
    55b0:	80 80 00 0f 	movc2g gr8
    55b4:	94 80 2a c5 	movigl gr8 2ac <.L0 +0x14>
    55b8:	94 80 00 01 	movigh gr8 0 <_cla_int_entry_group0_0>
    55bc:	95 84 00 15 	movigl gr24 4001 <.L0 +0x12>
    55c0:	95 80 00 01 	movigh gr24 0 <_cla_int_entry_group0_0>
    55c4:	80 06 00 0b 	movg2c gr24
    55c8:	84 c3 18 00 	add gr12 gr12 gr24
    55cc:	84 d3 48 06 	xor gr13 gr13 gr8
    55d0:	84 e3 8c 00 	add gr14 gr14 gr12
    55d4:	84 f3 cd 06 	xor gr15 gr15 gr13
    55d8:	84 c3 0f 00 	add gr12 gr12 gr15
    55dc:	80 00 00 00 	nop
    55e0:	80 90 00 0f 	movc2g gr9
    55e4:	94 90 2a d5 	movigl gr9 2ad <.L0 +0x15>
    55e8:	94 90 00 01 	movigh gr9 0 <_cla_int_entry_group0_0>
    55ec:	95 94 01 15 	movigl gr25 4011 <.L0 +0x7>
    55f0:	95 90 00 01 	movigh gr25 0 <_cla_int_entry_group0_0>
    55f4:	80 06 40 0b 	movg2c gr25
    55f8:	84 c3 19 00 	add gr12 gr12 gr25
    55fc:	84 d3 49 06 	xor gr13 gr13 gr9
    5600:	84 e3 8c 00 	add gr14 gr14 gr12
    5604:	84 f3 cd 06 	xor gr15 gr15 gr13
    5608:	84 c3 0f 00 	add gr12 gr12 gr15
    560c:	80 00 00 00 	nop
    5610:	80 a0 00 0f 	movc2g gr10
    5614:	94 a0 2a e5 	movigl gr10 2ae <.L0 +0x16>
    5618:	94 a0 00 01 	movigh gr10 0 <_cla_int_entry_group0_0>
    561c:	95 a4 00 15 	movigl gr26 4001 <.L0 +0x12>
    5620:	95 a0 00 01 	movigh gr26 0 <_cla_int_entry_group0_0>
    5624:	80 06 80 0b 	movg2c gr26
    5628:	84 c3 1a 00 	add gr12 gr12 gr26
    562c:	84 d3 4a 06 	xor gr13 gr13 gr10
    5630:	84 e3 8c 00 	add gr14 gr14 gr12
    5634:	84 f3 cd 06 	xor gr15 gr15 gr13
    5638:	84 c3 0f 00 	add gr12 gr12 gr15
    563c:	80 00 00 00 	nop
    5640:	80 b0 00 0f 	movc2g gr11
    5644:	94 b0 2a f5 	movigl gr11 2af <.L0 +0x17>
    5648:	94 b0 00 01 	movigh gr11 0 <_cla_int_entry_group0_0>
    564c:	95 b4 00 15 	movigl gr27 4001 <.L0 +0x12>
    5650:	95 b0 00 01 	movigh gr27 0 <_cla_int_entry_group0_0>
    5654:	80 06 c0 0b 	movg2c gr27
    5658:	84 c3 1b 00 	add gr12 gr12 gr27
    565c:	84 d3 4b 06 	xor gr13 gr13 gr11
    5660:	84 e3 8c 00 	add gr14 gr14 gr12
    5664:	84 f3 cd 06 	xor gr15 gr15 gr13
    5668:	84 c3 0f 00 	add gr12 gr12 gr15
    566c:	80 00 00 00 	nop
    5670:	80 40 00 0f 	movc2g gr4
    5674:	94 40 2b 05 	movigl gr4 2b0 <Cla1Task4>
    5678:	94 40 00 01 	movigh gr4 0 <_cla_int_entry_group0_0>
    567c:	95 44 01 15 	movigl gr20 4011 <.L0 +0x7>
    5680:	95 40 00 01 	movigh gr20 0 <_cla_int_entry_group0_0>
    5684:	80 05 00 0b 	movg2c gr20
    5688:	84 c3 14 00 	add gr12 gr12 gr20
    568c:	84 d3 44 06 	xor gr13 gr13 gr4
    5690:	84 e3 8c 00 	add gr14 gr14 gr12
    5694:	84 f3 cd 06 	xor gr15 gr15 gr13
    5698:	84 c3 0f 00 	add gr12 gr12 gr15
    569c:	80 00 00 00 	nop
    56a0:	80 50 00 0f 	movc2g gr5
    56a4:	94 50 2b 15 	movigl gr5 2b1 <Cla1Task4+0x1>
    56a8:	94 50 00 01 	movigh gr5 0 <_cla_int_entry_group0_0>
    56ac:	95 54 00 15 	movigl gr21 4001 <.L0 +0x12>
    56b0:	95 50 00 01 	movigh gr21 0 <_cla_int_entry_group0_0>
    56b4:	80 05 40 0b 	movg2c gr21
    56b8:	84 c3 15 00 	add gr12 gr12 gr21
    56bc:	84 d3 45 06 	xor gr13 gr13 gr5
    56c0:	84 e3 8c 00 	add gr14 gr14 gr12
    56c4:	84 f3 cd 06 	xor gr15 gr15 gr13
    56c8:	84 c3 0f 00 	add gr12 gr12 gr15
    56cc:	80 00 00 00 	nop
    56d0:	80 60 00 0f 	movc2g gr6
    56d4:	94 60 2b 25 	movigl gr6 2b2 <Cla1Task4+0x2>
    56d8:	94 60 00 01 	movigh gr6 0 <_cla_int_entry_group0_0>
    56dc:	95 64 00 15 	movigl gr22 4001 <.L0 +0x12>
    56e0:	95 60 00 01 	movigh gr22 0 <_cla_int_entry_group0_0>
    56e4:	80 05 80 0b 	movg2c gr22
    56e8:	84 c3 16 00 	add gr12 gr12 gr22
    56ec:	84 d3 46 06 	xor gr13 gr13 gr6
    56f0:	84 e3 8c 00 	add gr14 gr14 gr12
    56f4:	84 f3 cd 06 	xor gr15 gr15 gr13
    56f8:	84 c3 0f 00 	add gr12 gr12 gr15
    56fc:	80 00 00 00 	nop
    5700:	80 70 00 0f 	movc2g gr7
    5704:	94 70 2b 35 	movigl gr7 2b3 <Cla1Task4+0x3>
    5708:	94 70 00 01 	movigh gr7 0 <_cla_int_entry_group0_0>
    570c:	95 74 01 15 	movigl gr23 4011 <.L0 +0x7>
    5710:	95 70 00 01 	movigh gr23 0 <_cla_int_entry_group0_0>
    5714:	80 05 c0 0b 	movg2c gr23
    5718:	84 c3 17 00 	add gr12 gr12 gr23
    571c:	84 d3 47 06 	xor gr13 gr13 gr7
    5720:	84 e3 8c 00 	add gr14 gr14 gr12
    5724:	84 f3 cd 06 	xor gr15 gr15 gr13
    5728:	84 c3 0f 00 	add gr12 gr12 gr15
    572c:	80 00 00 00 	nop
    5730:	80 80 00 0f 	movc2g gr8
    5734:	94 80 2b 45 	movigl gr8 2b4 <Cla1Task4+0x4>
    5738:	94 80 00 01 	movigh gr8 0 <_cla_int_entry_group0_0>
    573c:	95 84 00 15 	movigl gr24 4001 <.L0 +0x12>
    5740:	95 80 00 01 	movigh gr24 0 <_cla_int_entry_group0_0>
    5744:	80 06 00 0b 	movg2c gr24
    5748:	84 c3 18 00 	add gr12 gr12 gr24
    574c:	84 d3 48 06 	xor gr13 gr13 gr8
    5750:	84 e3 8c 00 	add gr14 gr14 gr12
    5754:	84 f3 cd 06 	xor gr15 gr15 gr13
    5758:	84 c3 0f 00 	add gr12 gr12 gr15
    575c:	80 00 00 00 	nop
    5760:	80 90 00 0f 	movc2g gr9
    5764:	94 90 2b 55 	movigl gr9 2b5 <Cla1Task4+0x5>
    5768:	94 90 00 01 	movigh gr9 0 <_cla_int_entry_group0_0>
    576c:	95 94 00 15 	movigl gr25 4001 <.L0 +0x12>
    5770:	95 90 00 01 	movigh gr25 0 <_cla_int_entry_group0_0>
    5774:	80 06 40 0b 	movg2c gr25
    5778:	84 c3 19 00 	add gr12 gr12 gr25
    577c:	84 d3 49 06 	xor gr13 gr13 gr9
    5780:	84 e3 8c 00 	add gr14 gr14 gr12
    5784:	84 f3 cd 06 	xor gr15 gr15 gr13
    5788:	84 c3 0f 00 	add gr12 gr12 gr15
    578c:	80 00 00 00 	nop
    5790:	80 a0 00 0f 	movc2g gr10
    5794:	94 a0 2b 65 	movigl gr10 2b6 <Cla1Task4+0x6>
    5798:	94 a0 00 01 	movigh gr10 0 <_cla_int_entry_group0_0>
    579c:	95 a4 01 15 	movigl gr26 4011 <.L0 +0x7>
    57a0:	95 a0 00 01 	movigh gr26 0 <_cla_int_entry_group0_0>
    57a4:	80 06 80 0b 	movg2c gr26
    57a8:	84 c3 1a 00 	add gr12 gr12 gr26
    57ac:	84 d3 4a 06 	xor gr13 gr13 gr10
    57b0:	84 e3 8c 00 	add gr14 gr14 gr12
    57b4:	84 f3 cd 06 	xor gr15 gr15 gr13
    57b8:	84 c3 0f 00 	add gr12 gr12 gr15
    57bc:	80 00 00 00 	nop
    57c0:	80 b0 00 0f 	movc2g gr11
    57c4:	94 b0 2b 75 	movigl gr11 2b7 <Cla1Task4+0x7>
    57c8:	94 b0 00 01 	movigh gr11 0 <_cla_int_entry_group0_0>
    57cc:	95 b4 00 15 	movigl gr27 4001 <.L0 +0x12>
    57d0:	95 b0 00 01 	movigh gr27 0 <_cla_int_entry_group0_0>
    57d4:	80 06 c0 0b 	movg2c gr27
    57d8:	84 c3 1b 00 	add gr12 gr12 gr27
    57dc:	84 d3 4b 06 	xor gr13 gr13 gr11
    57e0:	84 e3 8c 00 	add gr14 gr14 gr12
    57e4:	84 f3 cd 06 	xor gr15 gr15 gr13
    57e8:	84 c3 0f 00 	add gr12 gr12 gr15
    57ec:	80 00 00 00 	nop
    57f0:	80 40 00 0f 	movc2g gr4
    57f4:	94 40 2b 85 	movigl gr4 2b8 <Cla1Task4+0x8>
    57f8:	94 40 00 01 	movigh gr4 0 <_cla_int_entry_group0_0>
    57fc:	95 44 00 15 	movigl gr20 4001 <.L0 +0x12>
    5800:	95 40 00 01 	movigh gr20 0 <_cla_int_entry_group0_0>
    5804:	80 05 00 0b 	movg2c gr20
    5808:	84 c3 14 00 	add gr12 gr12 gr20
    580c:	84 d3 44 06 	xor gr13 gr13 gr4
    5810:	84 e3 8c 00 	add gr14 gr14 gr12
    5814:	84 f3 cd 06 	xor gr15 gr15 gr13
    5818:	84 c3 0f 00 	add gr12 gr12 gr15
    581c:	80 00 00 00 	nop
    5820:	80 50 00 0f 	movc2g gr5
    5824:	94 50 2b 95 	movigl gr5 2b9 <Cla1Task4+0x9>
    5828:	94 50 00 01 	movigh gr5 0 <_cla_int_entry_group0_0>
    582c:	95 54 01 15 	movigl gr21 4011 <.L0 +0x7>
    5830:	95 50 00 01 	movigh gr21 0 <_cla_int_entry_group0_0>
    5834:	80 05 40 0b 	movg2c gr21
    5838:	84 c3 15 00 	add gr12 gr12 gr21
    583c:	84 d3 45 06 	xor gr13 gr13 gr5
    5840:	84 e3 8c 00 	add gr14 gr14 gr12
    5844:	84 f3 cd 06 	xor gr15 gr15 gr13
    5848:	84 c3 0f 00 	add gr12 gr12 gr15
    584c:	80 00 00 00 	nop
    5850:	80 60 00 0f 	movc2g gr6
    5854:	94 60 2b a5 	movigl gr6 2ba <Cla1Task4+0xa>
    5858:	94 60 00 01 	movigh gr6 0 <_cla_int_entry_group0_0>
    585c:	95 64 00 15 	movigl gr22 4001 <.L0 +0x12>
    5860:	95 60 00 01 	movigh gr22 0 <_cla_int_entry_group0_0>
    5864:	80 05 80 0b 	movg2c gr22
    5868:	84 c3 16 00 	add gr12 gr12 gr22
    586c:	84 d3 46 06 	xor gr13 gr13 gr6
    5870:	84 e3 8c 00 	add gr14 gr14 gr12
    5874:	84 f3 cd 06 	xor gr15 gr15 gr13
    5878:	84 c3 0f 00 	add gr12 gr12 gr15
    587c:	80 00 00 00 	nop
    5880:	80 70 00 0f 	movc2g gr7
    5884:	94 70 2b b5 	movigl gr7 2bb <Cla1Task4+0xb>
    5888:	94 70 00 01 	movigh gr7 0 <_cla_int_entry_group0_0>
    588c:	95 74 00 15 	movigl gr23 4001 <.L0 +0x12>
    5890:	95 70 00 01 	movigh gr23 0 <_cla_int_entry_group0_0>
    5894:	80 05 c0 0b 	movg2c gr23
    5898:	84 c3 17 00 	add gr12 gr12 gr23
    589c:	84 d3 47 06 	xor gr13 gr13 gr7
    58a0:	84 e3 8c 00 	add gr14 gr14 gr12
    58a4:	84 f3 cd 06 	xor gr15 gr15 gr13
    58a8:	84 c3 0f 00 	add gr12 gr12 gr15
    58ac:	80 00 00 00 	nop
    58b0:	80 80 00 0f 	movc2g gr8
    58b4:	94 80 2b c5 	movigl gr8 2bc <Cla1Task4+0xc>
    58b8:	94 80 00 01 	movigh gr8 0 <_cla_int_entry_group0_0>
    58bc:	95 84 01 15 	movigl gr24 4011 <.L0 +0x7>
    58c0:	95 80 00 01 	movigh gr24 0 <_cla_int_entry_group0_0>
    58c4:	80 06 00 0b 	movg2c gr24
    58c8:	84 c3 18 00 	add gr12 gr12 gr24
    58cc:	84 d3 48 06 	xor gr13 gr13 gr8
    58d0:	84 e3 8c 00 	add gr14 gr14 gr12
    58d4:	84 f3 cd 06 	xor gr15 gr15 gr13
    58d8:	84 c3 0f 00 	add gr12 gr12 gr15
    58dc:	80 00 00 00 	nop
    58e0:	80 90 00 0f 	movc2g gr9
    58e4:	94 90 2b d5 	movigl gr9 2bd <Cla1Task4+0xd>
    58e8:	94 90 00 01 	movigh gr9 0 <_cla_int_entry_group0_0>
    58ec:	95 94 00 15 	movigl gr25 4001 <.L0 +0x12>
    58f0:	95 90 00 01 	movigh gr25 0 <_cla_int_entry_group0_0>
    58f4:	80 06 40 0b 	movg2c gr25
    58f8:	84 c3 19 00 	add gr12 gr12 gr25
    58fc:	84 d3 49 06 	xor gr13 gr13 gr9
    5900:	84 e3 8c 00 	add gr14 gr14 gr12
    5904:	84 f3 cd 06 	xor gr15 gr15 gr13
    5908:	84 c3 0f 00 	add gr12 gr12 gr15
    590c:	80 00 00 00 	nop
    5910:	80 a0 00 0f 	movc2g gr10
    5914:	94 a0 2b e5 	movigl gr10 2be <Cla1Task4+0xe>
    5918:	94 a0 00 01 	movigh gr10 0 <_cla_int_entry_group0_0>
    591c:	95 a4 00 15 	movigl gr26 4001 <.L0 +0x12>
    5920:	95 a0 00 01 	movigh gr26 0 <_cla_int_entry_group0_0>
    5924:	80 06 80 0b 	movg2c gr26
    5928:	84 c3 1a 00 	add gr12 gr12 gr26
    592c:	84 d3 4a 06 	xor gr13 gr13 gr10
    5930:	84 e3 8c 00 	add gr14 gr14 gr12
    5934:	84 f3 cd 06 	xor gr15 gr15 gr13
    5938:	84 c3 0f 00 	add gr12 gr12 gr15
    593c:	80 00 00 00 	nop
    5940:	80 b0 00 0f 	movc2g gr11
    5944:	94 b0 2b f5 	movigl gr11 2bf <Cla1Task4+0xf>
    5948:	94 b0 00 01 	movigh gr11 0 <_cla_int_entry_group0_0>
    594c:	95 b4 01 15 	movigl gr27 4011 <.L0 +0x7>
    5950:	95 b0 00 01 	movigh gr27 0 <_cla_int_entry_group0_0>
    5954:	80 06 c0 0b 	movg2c gr27
    5958:	84 c3 1b 00 	add gr12 gr12 gr27
    595c:	84 d3 4b 06 	xor gr13 gr13 gr11
    5960:	84 e3 8c 00 	add gr14 gr14 gr12
    5964:	84 f3 cd 06 	xor gr15 gr15 gr13
    5968:	84 c3 0f 00 	add gr12 gr12 gr15
    596c:	80 00 00 00 	nop
    5970:	80 40 00 0f 	movc2g gr4
    5974:	94 40 2c 05 	movigl gr4 2c0 <.L0 >
    5978:	94 40 00 01 	movigh gr4 0 <_cla_int_entry_group0_0>
    597c:	95 44 00 15 	movigl gr20 4001 <.L0 +0x12>
    5980:	95 40 00 01 	movigh gr20 0 <_cla_int_entry_group0_0>
    5984:	80 05 00 0b 	movg2c gr20
    5988:	84 c3 14 00 	add gr12 gr12 gr20
    598c:	84 d3 44 06 	xor gr13 gr13 gr4
    5990:	84 e3 8c 00 	add gr14 gr14 gr12
    5994:	84 f3 cd 06 	xor gr15 gr15 gr13
    5998:	84 c3 0f 00 	add gr12 gr12 gr15
    599c:	80 00 00 00 	nop
    59a0:	80 50 00 0f 	movc2g gr5
    59a4:	94 50 2c 15 	movigl gr5 2c1 <.L0 +0x1>
    59a8:	94 50 00 01 	movigh gr5 0 <_cla_int_entry_group0_0>
    59ac:	95 54 00 15 	movigl gr21 4001 <.L0 +0x12>
    59b0:	95 50 00 01 	movigh gr21 0 <_cla_int_entry_group0_0>
    59b4:	80 05 40 0b 	movg2c gr21
    59b8:	84 c3 15 00 	add gr12 gr12 gr21
    59bc:	84 d3 45 06 	xor gr13 gr13 gr5
    59c0:	84 e3 8c 00 	add gr14 gr14 gr12
    59c4:	84 f3 cd 06 	xor gr15 gr15 gr13
    59c8:	84 c3 0f 00 	add gr12 gr12 gr15
    59cc:	80 00 00 00 	nop
    59d0:	80 60 00 0f 	movc2g gr6
    59d4:	94 60 2c 25 	movigl gr6 2c2 <.L0 +0x2>
    59d8:	94 60 00 01 	movigh gr6 0 <_cla_int_entry_group0_0>
    59dc:	95 64 01 15 	movigl gr22 4011 <.L0 +0x7>
    59e0:	95 60 00 01 	movigh gr22 0 <_cla_int_entry_group0_0>
    59e4:	80 05 80 0b 	movg2c gr22
    59e8:	84 c3 16 00 	add gr12 gr12 gr22
    59ec:	84 d3 46 06 	xor gr13 gr13 gr6
    59f0:	84 e3 8c 00 	add gr14 gr14 gr12
    59f4:	84 f3 cd 06 	xor gr15 gr15 gr13
    59f8:	84 c3 0f 00 	add gr12 gr12 gr15
    59fc:	80 00 00 00 	nop
    5a00:	80 70 00 0f 	movc2g gr7
    5a04:	94 70 2c 35 	movigl gr7 2c3 <.L0 +0x3>
    5a08:	94 70 00 01 	movigh gr7 0 <_cla_int_entry_group0_0>
    5a0c:	95 74 00 15 	movigl gr23 4001 <.L0 +0x12>
    5a10:	95 70 00 01 	movigh gr23 0 <_cla_int_entry_group0_0>
    5a14:	80 05 c0 0b 	movg2c gr23
    5a18:	84 c3 17 00 	add gr12 gr12 gr23
    5a1c:	84 d3 47 06 	xor gr13 gr13 gr7
    5a20:	84 e3 8c 00 	add gr14 gr14 gr12
    5a24:	84 f3 cd 06 	xor gr15 gr15 gr13
    5a28:	84 c3 0f 00 	add gr12 gr12 gr15
    5a2c:	80 00 00 00 	nop
    5a30:	80 80 00 0f 	movc2g gr8
    5a34:	94 80 2c 45 	movigl gr8 2c4 <.L0 >
    5a38:	94 80 00 01 	movigh gr8 0 <_cla_int_entry_group0_0>
    5a3c:	95 84 00 15 	movigl gr24 4001 <.L0 +0x12>
    5a40:	95 80 00 01 	movigh gr24 0 <_cla_int_entry_group0_0>
    5a44:	80 06 00 0b 	movg2c gr24
    5a48:	84 c3 18 00 	add gr12 gr12 gr24
    5a4c:	84 d3 48 06 	xor gr13 gr13 gr8
    5a50:	84 e3 8c 00 	add gr14 gr14 gr12
    5a54:	84 f3 cd 06 	xor gr15 gr15 gr13
    5a58:	84 c3 0f 00 	add gr12 gr12 gr15
    5a5c:	80 00 00 00 	nop
    5a60:	80 90 00 0f 	movc2g gr9
    5a64:	94 90 2c 55 	movigl gr9 2c5 <.L0 +0x1>
    5a68:	94 90 00 01 	movigh gr9 0 <_cla_int_entry_group0_0>
    5a6c:	95 94 01 15 	movigl gr25 4011 <.L0 +0x7>
    5a70:	95 90 00 01 	movigh gr25 0 <_cla_int_entry_group0_0>
    5a74:	80 06 40 0b 	movg2c gr25
    5a78:	84 c3 19 00 	add gr12 gr12 gr25
    5a7c:	84 d3 49 06 	xor gr13 gr13 gr9
    5a80:	84 e3 8c 00 	add gr14 gr14 gr12
    5a84:	84 f3 cd 06 	xor gr15 gr15 gr13
    5a88:	84 c3 0f 00 	add gr12 gr12 gr15
    5a8c:	80 00 00 00 	nop
    5a90:	80 a0 00 0f 	movc2g gr10
    5a94:	94 a0 2c 65 	movigl gr10 2c6 <.L0 +0x2>
    5a98:	94 a0 00 01 	movigh gr10 0 <_cla_int_entry_group0_0>
    5a9c:	95 a4 00 15 	movigl gr26 4001 <.L0 +0x12>
    5aa0:	95 a0 00 01 	movigh gr26 0 <_cla_int_entry_group0_0>
    5aa4:	80 06 80 0b 	movg2c gr26
    5aa8:	84 c3 1a 00 	add gr12 gr12 gr26
    5aac:	84 d3 4a 06 	xor gr13 gr13 gr10
    5ab0:	84 e3 8c 00 	add gr14 gr14 gr12
    5ab4:	84 f3 cd 06 	xor gr15 gr15 gr13
    5ab8:	84 c3 0f 00 	add gr12 gr12 gr15
    5abc:	80 00 00 00 	nop
    5ac0:	80 b0 00 0f 	movc2g gr11
    5ac4:	94 b0 2c 75 	movigl gr11 2c7 <.L0 +0x3>
    5ac8:	94 b0 00 01 	movigh gr11 0 <_cla_int_entry_group0_0>
    5acc:	95 b4 00 15 	movigl gr27 4001 <.L0 +0x12>
    5ad0:	95 b0 00 01 	movigh gr27 0 <_cla_int_entry_group0_0>
    5ad4:	80 06 c0 0b 	movg2c gr27
    5ad8:	84 c3 1b 00 	add gr12 gr12 gr27
    5adc:	84 d3 4b 06 	xor gr13 gr13 gr11
    5ae0:	84 e3 8c 00 	add gr14 gr14 gr12
    5ae4:	84 f3 cd 06 	xor gr15 gr15 gr13
    5ae8:	84 c3 0f 00 	add gr12 gr12 gr15
    5aec:	80 00 00 00 	nop
    5af0:	80 40 00 0f 	movc2g gr4
    5af4:	94 40 2c 85 	movigl gr4 2c8 <.L0 +0x4>
    5af8:	94 40 00 01 	movigh gr4 0 <_cla_int_entry_group0_0>
    5afc:	95 44 01 15 	movigl gr20 4011 <.L0 +0x7>
    5b00:	95 40 00 01 	movigh gr20 0 <_cla_int_entry_group0_0>
    5b04:	80 05 00 0b 	movg2c gr20
    5b08:	84 c3 14 00 	add gr12 gr12 gr20
    5b0c:	84 d3 44 06 	xor gr13 gr13 gr4
    5b10:	84 e3 8c 00 	add gr14 gr14 gr12
    5b14:	84 f3 cd 06 	xor gr15 gr15 gr13
    5b18:	84 c3 0f 00 	add gr12 gr12 gr15
    5b1c:	80 00 00 00 	nop
    5b20:	80 50 00 0f 	movc2g gr5
    5b24:	94 50 2c 95 	movigl gr5 2c9 <.L0 +0x5>
    5b28:	94 50 00 01 	movigh gr5 0 <_cla_int_entry_group0_0>
    5b2c:	95 54 00 15 	movigl gr21 4001 <.L0 +0x12>
    5b30:	95 50 00 01 	movigh gr21 0 <_cla_int_entry_group0_0>
    5b34:	80 05 40 0b 	movg2c gr21
    5b38:	84 c3 15 00 	add gr12 gr12 gr21
    5b3c:	84 d3 45 06 	xor gr13 gr13 gr5
    5b40:	84 e3 8c 00 	add gr14 gr14 gr12
    5b44:	84 f3 cd 06 	xor gr15 gr15 gr13
    5b48:	84 c3 0f 00 	add gr12 gr12 gr15
    5b4c:	80 00 00 00 	nop
    5b50:	80 60 00 0f 	movc2g gr6
    5b54:	94 60 2c a5 	movigl gr6 2ca <.L0 +0x6>
    5b58:	94 60 00 01 	movigh gr6 0 <_cla_int_entry_group0_0>
    5b5c:	95 64 00 15 	movigl gr22 4001 <.L0 +0x12>
    5b60:	95 60 00 01 	movigh gr22 0 <_cla_int_entry_group0_0>
    5b64:	80 05 80 0b 	movg2c gr22
    5b68:	84 c3 16 00 	add gr12 gr12 gr22
    5b6c:	84 d3 46 06 	xor gr13 gr13 gr6
    5b70:	84 e3 8c 00 	add gr14 gr14 gr12
    5b74:	84 f3 cd 06 	xor gr15 gr15 gr13
    5b78:	84 c3 0f 00 	add gr12 gr12 gr15
    5b7c:	80 00 00 00 	nop
    5b80:	80 70 00 0f 	movc2g gr7
    5b84:	94 70 2c b5 	movigl gr7 2cb <.L0 +0x7>
    5b88:	94 70 00 01 	movigh gr7 0 <_cla_int_entry_group0_0>
    5b8c:	95 74 01 15 	movigl gr23 4011 <.L0 +0x7>
    5b90:	95 70 00 01 	movigh gr23 0 <_cla_int_entry_group0_0>
    5b94:	80 05 c0 0b 	movg2c gr23
    5b98:	84 c3 17 00 	add gr12 gr12 gr23
    5b9c:	84 d3 47 06 	xor gr13 gr13 gr7
    5ba0:	84 e3 8c 00 	add gr14 gr14 gr12
    5ba4:	84 f3 cd 06 	xor gr15 gr15 gr13
    5ba8:	84 c3 0f 00 	add gr12 gr12 gr15
    5bac:	80 00 00 00 	nop
    5bb0:	80 80 00 0f 	movc2g gr8
    5bb4:	94 80 2c c5 	movigl gr8 2cc <.L0 +0x8>
    5bb8:	94 80 00 01 	movigh gr8 0 <_cla_int_entry_group0_0>
    5bbc:	95 84 00 15 	movigl gr24 4001 <.L0 +0x12>
    5bc0:	95 80 00 01 	movigh gr24 0 <_cla_int_entry_group0_0>
    5bc4:	80 06 00 0b 	movg2c gr24
    5bc8:	84 c3 18 00 	add gr12 gr12 gr24
    5bcc:	84 d3 48 06 	xor gr13 gr13 gr8
    5bd0:	84 e3 8c 00 	add gr14 gr14 gr12
    5bd4:	84 f3 cd 06 	xor gr15 gr15 gr13
    5bd8:	84 c3 0f 00 	add gr12 gr12 gr15
    5bdc:	80 00 00 00 	nop
    5be0:	80 90 00 0f 	movc2g gr9
    5be4:	94 90 2c d5 	movigl gr9 2cd <.L0 +0x9>
    5be8:	94 90 00 01 	movigh gr9 0 <_cla_int_entry_group0_0>
    5bec:	95 94 00 15 	movigl gr25 4001 <.L0 +0x12>
    5bf0:	95 90 00 01 	movigh gr25 0 <_cla_int_entry_group0_0>
    5bf4:	80 06 40 0b 	movg2c gr25
    5bf8:	84 c3 19 00 	add gr12 gr12 gr25
    5bfc:	84 d3 49 06 	xor gr13 gr13 gr9
    5c00:	84 e3 8c 00 	add gr14 gr14 gr12
    5c04:	84 f3 cd 06 	xor gr15 gr15 gr13
    5c08:	84 c3 0f 00 	add gr12 gr12 gr15
    5c0c:	80 00 00 00 	nop
    5c10:	80 a0 00 0f 	movc2g gr10
    5c14:	94 a0 2c e5 	movigl gr10 2ce <.L0 +0xa>
    5c18:	94 a0 00 01 	movigh gr10 0 <_cla_int_entry_group0_0>
    5c1c:	95 a4 01 15 	movigl gr26 4011 <.L0 +0x7>
    5c20:	95 a0 00 01 	movigh gr26 0 <_cla_int_entry_group0_0>
    5c24:	80 06 80 0b 	movg2c gr26
    5c28:	84 c3 1a 00 	add gr12 gr12 gr26
    5c2c:	84 d3 4a 06 	xor gr13 gr13 gr10
    5c30:	84 e3 8c 00 	add gr14 gr14 gr12
    5c34:	84 f3 cd 06 	xor gr15 gr15 gr13
    5c38:	84 c3 0f 00 	add gr12 gr12 gr15
    5c3c:	80 00 00 00 	nop
    5c40:	80 b0 00 0f 	movc2g gr11
    5c44:	94 b0 2c f5 	movigl gr11 2cf <.L0 +0xb>
    5c48:	94 b0 00 01 	movigh gr11 0 <_cla_int_entry_group0_0>
    5c4c:	95 b4 00 15 	movigl gr27 4001 <.L0 +0x12>
    5c50:	95 b0 00 01 	movigh gr27 0 <_cla_int_entry_group0_0>
    5c54:	80 06 c0 0b 	movg2c gr27
    5c58:	84 c3 1b 00 	add gr12 gr12 gr27
    5c5c:	84 d3 4b 06 	xor gr13 gr13 gr11
    5c60:	84 e3 8c 00 	add gr14 gr14 gr12
    5c64:	84 f3 cd 06 	xor gr15 gr15 gr13
    5c68:	84 c3 0f 00 	add gr12 gr12 gr15
    5c6c:	80 00 00 00 	nop
    5c70:	80 40 00 0f 	movc2g gr4
    5c74:	94 40 2d 05 	movigl gr4 2d0 <.L0 +0xc>
    5c78:	94 40 00 01 	movigh gr4 0 <_cla_int_entry_group0_0>
    5c7c:	95 44 00 15 	movigl gr20 4001 <.L0 +0x12>
    5c80:	95 40 00 01 	movigh gr20 0 <_cla_int_entry_group0_0>
    5c84:	80 05 00 0b 	movg2c gr20
    5c88:	84 c3 14 00 	add gr12 gr12 gr20
    5c8c:	84 d3 44 06 	xor gr13 gr13 gr4
    5c90:	84 e3 8c 00 	add gr14 gr14 gr12
    5c94:	84 f3 cd 06 	xor gr15 gr15 gr13
    5c98:	84 c3 0f 00 	add gr12 gr12 gr15
    5c9c:	80 00 00 00 	nop
    5ca0:	80 50 00 0f 	movc2g gr5
    5ca4:	94 50 2d 15 	movigl gr5 2d1 <.L0 +0xd>
    5ca8:	94 50 00 01 	movigh gr5 0 <_cla_int_entry_group0_0>
    5cac:	95 54 01 15 	movigl gr21 4011 <.L0 +0x7>
    5cb0:	95 50 00 01 	movigh gr21 0 <_cla_int_entry_group0_0>
    5cb4:	80 05 40 0b 	movg2c gr21
    5cb8:	84 c3 15 00 	add gr12 gr12 gr21
    5cbc:	84 d3 45 06 	xor gr13 gr13 gr5
    5cc0:	84 e3 8c 00 	add gr14 gr14 gr12
    5cc4:	84 f3 cd 06 	xor gr15 gr15 gr13
    5cc8:	84 c3 0f 00 	add gr12 gr12 gr15
    5ccc:	80 00 00 00 	nop
    5cd0:	80 60 00 0f 	movc2g gr6
    5cd4:	94 60 2d 25 	movigl gr6 2d2 <.L0 +0xe>
    5cd8:	94 60 00 01 	movigh gr6 0 <_cla_int_entry_group0_0>
    5cdc:	95 64 00 15 	movigl gr22 4001 <.L0 +0x12>
    5ce0:	95 60 00 01 	movigh gr22 0 <_cla_int_entry_group0_0>
    5ce4:	80 05 80 0b 	movg2c gr22
    5ce8:	84 c3 16 00 	add gr12 gr12 gr22
    5cec:	84 d3 46 06 	xor gr13 gr13 gr6
    5cf0:	84 e3 8c 00 	add gr14 gr14 gr12
    5cf4:	84 f3 cd 06 	xor gr15 gr15 gr13
    5cf8:	84 c3 0f 00 	add gr12 gr12 gr15
    5cfc:	80 00 00 00 	nop
    5d00:	80 70 00 0f 	movc2g gr7
    5d04:	94 70 2d 35 	movigl gr7 2d3 <.L0 +0xf>
    5d08:	94 70 00 01 	movigh gr7 0 <_cla_int_entry_group0_0>
    5d0c:	95 74 00 15 	movigl gr23 4001 <.L0 +0x12>
    5d10:	95 70 00 01 	movigh gr23 0 <_cla_int_entry_group0_0>
    5d14:	80 05 c0 0b 	movg2c gr23
    5d18:	84 c3 17 00 	add gr12 gr12 gr23
    5d1c:	84 d3 47 06 	xor gr13 gr13 gr7
    5d20:	84 e3 8c 00 	add gr14 gr14 gr12
    5d24:	84 f3 cd 06 	xor gr15 gr15 gr13
    5d28:	84 c3 0f 00 	add gr12 gr12 gr15
    5d2c:	80 00 00 00 	nop
    5d30:	80 80 00 0f 	movc2g gr8
    5d34:	94 80 2d 45 	movigl gr8 2d4 <.L0 +0x10>
    5d38:	94 80 00 01 	movigh gr8 0 <_cla_int_entry_group0_0>
    5d3c:	95 84 01 15 	movigl gr24 4011 <.L0 +0x7>
    5d40:	95 80 00 01 	movigh gr24 0 <_cla_int_entry_group0_0>
    5d44:	80 06 00 0b 	movg2c gr24
    5d48:	84 c3 18 00 	add gr12 gr12 gr24
    5d4c:	84 d3 48 06 	xor gr13 gr13 gr8
    5d50:	84 e3 8c 00 	add gr14 gr14 gr12
    5d54:	84 f3 cd 06 	xor gr15 gr15 gr13
    5d58:	84 c3 0f 00 	add gr12 gr12 gr15
    5d5c:	80 00 00 00 	nop
    5d60:	80 90 00 0f 	movc2g gr9
    5d64:	94 90 2d 55 	movigl gr9 2d5 <.L0 +0x11>
    5d68:	94 90 00 01 	movigh gr9 0 <_cla_int_entry_group0_0>
    5d6c:	95 94 00 15 	movigl gr25 4001 <.L0 +0x12>
    5d70:	95 90 00 01 	movigh gr25 0 <_cla_int_entry_group0_0>
    5d74:	80 06 40 0b 	movg2c gr25
    5d78:	84 c3 19 00 	add gr12 gr12 gr25
    5d7c:	84 d3 49 06 	xor gr13 gr13 gr9
    5d80:	84 e3 8c 00 	add gr14 gr14 gr12
    5d84:	84 f3 cd 06 	xor gr15 gr15 gr13
    5d88:	84 c3 0f 00 	add gr12 gr12 gr15
    5d8c:	80 00 00 00 	nop
    5d90:	80 a0 00 0f 	movc2g gr10
    5d94:	94 a0 2d 65 	movigl gr10 2d6 <.L0 +0x12>
    5d98:	94 a0 00 01 	movigh gr10 0 <_cla_int_entry_group0_0>
    5d9c:	95 a4 00 15 	movigl gr26 4001 <.L0 +0x12>
    5da0:	95 a0 00 01 	movigh gr26 0 <_cla_int_entry_group0_0>
    5da4:	80 06 80 0b 	movg2c gr26
    5da8:	84 c3 1a 00 	add gr12 gr12 gr26
    5dac:	84 d3 4a 06 	xor gr13 gr13 gr10
    5db0:	84 e3 8c 00 	add gr14 gr14 gr12
    5db4:	84 f3 cd 06 	xor gr15 gr15 gr13
    5db8:	84 c3 0f 00 	add gr12 gr12 gr15
    5dbc:	80 00 00 00 	nop
    5dc0:	80 b0 00 0f 	movc2g gr11
    5dc4:	94 b0 2d 75 	movigl gr11 2d7 <.L0 +0x13>
    5dc8:	94 b0 00 01 	movigh gr11 0 <_cla_int_entry_group0_0>
    5dcc:	95 b4 01 15 	movigl gr27 4011 <.L0 +0x7>
    5dd0:	95 b0 00 01 	movigh gr27 0 <_cla_int_entry_group0_0>
    5dd4:	80 06 c0 0b 	movg2c gr27
    5dd8:	84 c3 1b 00 	add gr12 gr12 gr27
    5ddc:	84 d3 4b 06 	xor gr13 gr13 gr11
    5de0:	84 e3 8c 00 	add gr14 gr14 gr12
    5de4:	84 f3 cd 06 	xor gr15 gr15 gr13
    5de8:	84 c3 0f 00 	add gr12 gr12 gr15
    5dec:	80 00 00 00 	nop
    5df0:	80 40 00 0f 	movc2g gr4
    5df4:	94 40 2d 85 	movigl gr4 2d8 <.L0 +0x14>
    5df8:	94 40 00 01 	movigh gr4 0 <_cla_int_entry_group0_0>
    5dfc:	95 44 00 15 	movigl gr20 4001 <.L0 +0x12>
    5e00:	95 40 00 01 	movigh gr20 0 <_cla_int_entry_group0_0>
    5e04:	80 05 00 0b 	movg2c gr20
    5e08:	84 c3 14 00 	add gr12 gr12 gr20
    5e0c:	84 d3 44 06 	xor gr13 gr13 gr4
    5e10:	84 e3 8c 00 	add gr14 gr14 gr12
    5e14:	84 f3 cd 06 	xor gr15 gr15 gr13
    5e18:	84 c3 0f 00 	add gr12 gr12 gr15
    5e1c:	80 00 00 00 	nop
    5e20:	80 50 00 0f 	movc2g gr5
    5e24:	94 50 2d 95 	movigl gr5 2d9 <.L0 +0x15>
    5e28:	94 50 00 01 	movigh gr5 0 <_cla_int_entry_group0_0>
    5e2c:	95 54 00 15 	movigl gr21 4001 <.L0 +0x12>
    5e30:	95 50 00 01 	movigh gr21 0 <_cla_int_entry_group0_0>
    5e34:	80 05 40 0b 	movg2c gr21
    5e38:	84 c3 15 00 	add gr12 gr12 gr21
    5e3c:	84 d3 45 06 	xor gr13 gr13 gr5
    5e40:	84 e3 8c 00 	add gr14 gr14 gr12
    5e44:	84 f3 cd 06 	xor gr15 gr15 gr13
    5e48:	84 c3 0f 00 	add gr12 gr12 gr15
    5e4c:	80 00 00 00 	nop
    5e50:	80 60 00 0f 	movc2g gr6
    5e54:	94 60 2d a5 	movigl gr6 2da <.L0 +0x16>
    5e58:	94 60 00 01 	movigh gr6 0 <_cla_int_entry_group0_0>
    5e5c:	95 64 01 15 	movigl gr22 4011 <.L0 +0x7>
    5e60:	95 60 00 01 	movigh gr22 0 <_cla_int_entry_group0_0>
    5e64:	80 05 80 0b 	movg2c gr22
    5e68:	84 c3 16 00 	add gr12 gr12 gr22
    5e6c:	84 d3 46 06 	xor gr13 gr13 gr6
    5e70:	84 e3 8c 00 	add gr14 gr14 gr12
    5e74:	84 f3 cd 06 	xor gr15 gr15 gr13
    5e78:	84 c3 0f 00 	add gr12 gr12 gr15
    5e7c:	80 00 00 00 	nop
    5e80:	80 70 00 0f 	movc2g gr7
    5e84:	94 70 2d b5 	movigl gr7 2db <.L0 +0x17>
    5e88:	94 70 00 01 	movigh gr7 0 <_cla_int_entry_group0_0>
    5e8c:	95 74 00 15 	movigl gr23 4001 <.L0 +0x12>
    5e90:	95 70 00 01 	movigh gr23 0 <_cla_int_entry_group0_0>
    5e94:	80 05 c0 0b 	movg2c gr23
    5e98:	84 c3 17 00 	add gr12 gr12 gr23
    5e9c:	84 d3 47 06 	xor gr13 gr13 gr7
    5ea0:	84 e3 8c 00 	add gr14 gr14 gr12
    5ea4:	84 f3 cd 06 	xor gr15 gr15 gr13
    5ea8:	84 c3 0f 00 	add gr12 gr12 gr15
    5eac:	80 00 00 00 	nop
    5eb0:	80 80 00 0f 	movc2g gr8
    5eb4:	94 80 2d c5 	movigl gr8 2dc <.L0 +0x18>
    5eb8:	94 80 00 01 	movigh gr8 0 <_cla_int_entry_group0_0>
    5ebc:	95 84 00 15 	movigl gr24 4001 <.L0 +0x12>
    5ec0:	95 80 00 01 	movigh gr24 0 <_cla_int_entry_group0_0>
    5ec4:	80 06 00 0b 	movg2c gr24
    5ec8:	84 c3 18 00 	add gr12 gr12 gr24
    5ecc:	84 d3 48 06 	xor gr13 gr13 gr8
    5ed0:	84 e3 8c 00 	add gr14 gr14 gr12
    5ed4:	84 f3 cd 06 	xor gr15 gr15 gr13
    5ed8:	84 c3 0f 00 	add gr12 gr12 gr15
    5edc:	80 00 00 00 	nop
    5ee0:	80 90 00 0f 	movc2g gr9
    5ee4:	94 90 2d d5 	movigl gr9 2dd <.L0 +0x19>
    5ee8:	94 90 00 01 	movigh gr9 0 <_cla_int_entry_group0_0>
    5eec:	95 94 01 15 	movigl gr25 4011 <.L0 +0x7>
    5ef0:	95 90 00 01 	movigh gr25 0 <_cla_int_entry_group0_0>
    5ef4:	80 06 40 0b 	movg2c gr25
    5ef8:	84 c3 19 00 	add gr12 gr12 gr25
    5efc:	84 d3 49 06 	xor gr13 gr13 gr9
    5f00:	84 e3 8c 00 	add gr14 gr14 gr12
    5f04:	84 f3 cd 06 	xor gr15 gr15 gr13
    5f08:	84 c3 0f 00 	add gr12 gr12 gr15
    5f0c:	80 00 00 00 	nop
    5f10:	80 a0 00 0f 	movc2g gr10
    5f14:	94 a0 2d e5 	movigl gr10 2de <.L0 +0x1a>
    5f18:	94 a0 00 01 	movigh gr10 0 <_cla_int_entry_group0_0>
    5f1c:	95 a4 00 15 	movigl gr26 4001 <.L0 +0x12>
    5f20:	95 a0 00 01 	movigh gr26 0 <_cla_int_entry_group0_0>
    5f24:	80 06 80 0b 	movg2c gr26
    5f28:	84 c3 1a 00 	add gr12 gr12 gr26
    5f2c:	84 d3 4a 06 	xor gr13 gr13 gr10
    5f30:	84 e3 8c 00 	add gr14 gr14 gr12
    5f34:	84 f3 cd 06 	xor gr15 gr15 gr13
    5f38:	84 c3 0f 00 	add gr12 gr12 gr15
    5f3c:	80 00 00 00 	nop
    5f40:	80 b0 00 0f 	movc2g gr11
    5f44:	94 b0 2d f5 	movigl gr11 2df <.L0 +0x1b>
    5f48:	94 b0 00 01 	movigh gr11 0 <_cla_int_entry_group0_0>
    5f4c:	95 b4 00 15 	movigl gr27 4001 <.L0 +0x12>
    5f50:	95 b0 00 01 	movigh gr27 0 <_cla_int_entry_group0_0>
    5f54:	80 06 c0 0b 	movg2c gr27
    5f58:	84 c3 1b 00 	add gr12 gr12 gr27
    5f5c:	84 d3 4b 06 	xor gr13 gr13 gr11
    5f60:	84 e3 8c 00 	add gr14 gr14 gr12
    5f64:	84 f3 cd 06 	xor gr15 gr15 gr13
    5f68:	84 c3 0f 00 	add gr12 gr12 gr15
    5f6c:	80 00 00 00 	nop
    5f70:	80 40 00 0f 	movc2g gr4
    5f74:	94 40 2e 05 	movigl gr4 2e0 <.L0 +0x1c>
    5f78:	94 40 00 01 	movigh gr4 0 <_cla_int_entry_group0_0>
    5f7c:	95 44 01 15 	movigl gr20 4011 <.L0 +0x7>
    5f80:	95 40 00 01 	movigh gr20 0 <_cla_int_entry_group0_0>
    5f84:	80 05 00 0b 	movg2c gr20
    5f88:	84 c3 14 00 	add gr12 gr12 gr20
    5f8c:	84 d3 44 06 	xor gr13 gr13 gr4
    5f90:	84 e3 8c 00 	add gr14 gr14 gr12
    5f94:	84 f3 cd 06 	xor gr15 gr15 gr13
    5f98:	84 c3 0f 00 	add gr12 gr12 gr15
    5f9c:	80 00 00 00 	nop
    5fa0:	80 50 00 0f 	movc2g gr5
    5fa4:	94 50 2e 15 	movigl gr5 2e1 <.L0 +0x1d>
    5fa8:	94 50 00 01 	movigh gr5 0 <_cla_int_entry_group0_0>
    5fac:	95 54 00 15 	movigl gr21 4001 <.L0 +0x12>
    5fb0:	95 50 00 01 	movigh gr21 0 <_cla_int_entry_group0_0>
    5fb4:	80 05 40 0b 	movg2c gr21
    5fb8:	84 c3 15 00 	add gr12 gr12 gr21
    5fbc:	84 d3 45 06 	xor gr13 gr13 gr5
    5fc0:	84 e3 8c 00 	add gr14 gr14 gr12
    5fc4:	84 f3 cd 06 	xor gr15 gr15 gr13
    5fc8:	84 c3 0f 00 	add gr12 gr12 gr15
    5fcc:	80 00 00 00 	nop
    5fd0:	80 60 00 0f 	movc2g gr6
    5fd4:	94 60 2e 25 	movigl gr6 2e2 <.L0 +0x1e>
    5fd8:	94 60 00 01 	movigh gr6 0 <_cla_int_entry_group0_0>
    5fdc:	95 64 00 15 	movigl gr22 4001 <.L0 +0x12>
    5fe0:	95 60 00 01 	movigh gr22 0 <_cla_int_entry_group0_0>
    5fe4:	80 05 80 0b 	movg2c gr22
    5fe8:	84 c3 16 00 	add gr12 gr12 gr22
    5fec:	84 d3 46 06 	xor gr13 gr13 gr6
    5ff0:	84 e3 8c 00 	add gr14 gr14 gr12
    5ff4:	84 f3 cd 06 	xor gr15 gr15 gr13
    5ff8:	84 c3 0f 00 	add gr12 gr12 gr15
    5ffc:	80 00 00 00 	nop
    6000:	80 70 00 0f 	movc2g gr7
    6004:	94 70 2e 35 	movigl gr7 2e3 <.L0 +0x1f>
    6008:	94 70 00 01 	movigh gr7 0 <_cla_int_entry_group0_0>
    600c:	95 74 01 15 	movigl gr23 4011 <.L0 +0x7>
    6010:	95 70 00 01 	movigh gr23 0 <_cla_int_entry_group0_0>
    6014:	80 05 c0 0b 	movg2c gr23
    6018:	84 c3 17 00 	add gr12 gr12 gr23
    601c:	84 d3 47 06 	xor gr13 gr13 gr7
    6020:	84 e3 8c 00 	add gr14 gr14 gr12
    6024:	84 f3 cd 06 	xor gr15 gr15 gr13
    6028:	84 c3 0f 00 	add gr12 gr12 gr15
    602c:	80 00 00 00 	nop
    6030:	80 80 00 0f 	movc2g gr8
    6034:	94 80 2e 45 	movigl gr8 2e4 <.L0 +0x20>
    6038:	94 80 00 01 	movigh gr8 0 <_cla_int_entry_group0_0>
    603c:	95 84 00 15 	movigl gr24 4001 <.L0 +0x12>
    6040:	95 80 00 01 	movigh gr24 0 <_cla_int_entry_group0_0>
    6044:	80 06 00 0b 	movg2c gr24
    6048:	84 c3 18 00 	add gr12 gr12 gr24
    604c:	84 d3 48 06 	xor gr13 gr13 gr8
    6050:	84 e3 8c 00 	add gr14 gr14 gr12
    6054:	84 f3 cd 06 	xor gr15 gr15 gr13
    6058:	84 c3 0f 00 	add gr12 gr12 gr15
    605c:	80 00 00 00 	nop
    6060:	80 90 00 0f 	movc2g gr9
    6064:	94 90 2e 55 	movigl gr9 2e5 <.L0 +0x21>
    6068:	94 90 00 01 	movigh gr9 0 <_cla_int_entry_group0_0>
    606c:	95 94 00 15 	movigl gr25 4001 <.L0 +0x12>
    6070:	95 90 00 01 	movigh gr25 0 <_cla_int_entry_group0_0>
    6074:	80 06 40 0b 	movg2c gr25
    6078:	84 c3 19 00 	add gr12 gr12 gr25
    607c:	84 d3 49 06 	xor gr13 gr13 gr9
    6080:	84 e3 8c 00 	add gr14 gr14 gr12
    6084:	84 f3 cd 06 	xor gr15 gr15 gr13
    6088:	84 c3 0f 00 	add gr12 gr12 gr15
    608c:	80 00 00 00 	nop
    6090:	80 a0 00 0f 	movc2g gr10
    6094:	94 a0 2e 65 	movigl gr10 2e6 <.L0 +0x22>
    6098:	94 a0 00 01 	movigh gr10 0 <_cla_int_entry_group0_0>
    609c:	95 a4 01 15 	movigl gr26 4011 <.L0 +0x7>
    60a0:	95 a0 00 01 	movigh gr26 0 <_cla_int_entry_group0_0>
    60a4:	80 06 80 0b 	movg2c gr26
    60a8:	84 c3 1a 00 	add gr12 gr12 gr26
    60ac:	84 d3 4a 06 	xor gr13 gr13 gr10
    60b0:	84 e3 8c 00 	add gr14 gr14 gr12
    60b4:	84 f3 cd 06 	xor gr15 gr15 gr13
    60b8:	84 c3 0f 00 	add gr12 gr12 gr15
    60bc:	80 00 00 00 	nop
    60c0:	80 b0 00 0f 	movc2g gr11
    60c4:	94 b0 2e 75 	movigl gr11 2e7 <.L0 +0x23>
    60c8:	94 b0 00 01 	movigh gr11 0 <_cla_int_entry_group0_0>
    60cc:	95 b4 00 15 	movigl gr27 4001 <.L0 +0x12>
    60d0:	95 b0 00 01 	movigh gr27 0 <_cla_int_entry_group0_0>
    60d4:	80 06 c0 0b 	movg2c gr27
    60d8:	84 c3 1b 00 	add gr12 gr12 gr27
    60dc:	84 d3 4b 06 	xor gr13 gr13 gr11
    60e0:	84 e3 8c 00 	add gr14 gr14 gr12
    60e4:	84 f3 cd 06 	xor gr15 gr15 gr13
    60e8:	84 c3 0f 00 	add gr12 gr12 gr15
    60ec:	80 00 00 00 	nop
    60f0:	80 40 00 0f 	movc2g gr4
    60f4:	94 40 2e 85 	movigl gr4 2e8 <.L0 +0x24>
    60f8:	94 40 00 01 	movigh gr4 0 <_cla_int_entry_group0_0>
    60fc:	95 44 00 15 	movigl gr20 4001 <.L0 +0x12>
    6100:	95 40 00 01 	movigh gr20 0 <_cla_int_entry_group0_0>
    6104:	80 05 00 0b 	movg2c gr20
    6108:	84 c3 14 00 	add gr12 gr12 gr20
    610c:	84 d3 44 06 	xor gr13 gr13 gr4
    6110:	84 e3 8c 00 	add gr14 gr14 gr12
    6114:	84 f3 cd 06 	xor gr15 gr15 gr13
    6118:	84 c3 0f 00 	add gr12 gr12 gr15
    611c:	80 00 00 00 	nop
    6120:	80 50 00 0f 	movc2g gr5
    6124:	94 50 2e 95 	movigl gr5 2e9 <.L0 +0x25>
    6128:	94 50 00 01 	movigh gr5 0 <_cla_int_entry_group0_0>
    612c:	95 54 01 15 	movigl gr21 4011 <.L0 +0x7>
    6130:	95 50 00 01 	movigh gr21 0 <_cla_int_entry_group0_0>
    6134:	80 05 40 0b 	movg2c gr21
    6138:	84 c3 15 00 	add gr12 gr12 gr21
    613c:	84 d3 45 06 	xor gr13 gr13 gr5
    6140:	84 e3 8c 00 	add gr14 gr14 gr12
    6144:	84 f3 cd 06 	xor gr15 gr15 gr13
    6148:	84 c3 0f 00 	add gr12 gr12 gr15
    614c:	80 00 00 00 	nop
    6150:	80 60 00 0f 	movc2g gr6
    6154:	94 60 2e a5 	movigl gr6 2ea <.L0 +0x26>
    6158:	94 60 00 01 	movigh gr6 0 <_cla_int_entry_group0_0>
    615c:	95 64 00 15 	movigl gr22 4001 <.L0 +0x12>
    6160:	95 60 00 01 	movigh gr22 0 <_cla_int_entry_group0_0>
    6164:	80 05 80 0b 	movg2c gr22
    6168:	84 c3 16 00 	add gr12 gr12 gr22
    616c:	84 d3 46 06 	xor gr13 gr13 gr6
    6170:	84 e3 8c 00 	add gr14 gr14 gr12
    6174:	84 f3 cd 06 	xor gr15 gr15 gr13
    6178:	84 c3 0f 00 	add gr12 gr12 gr15
    617c:	80 00 00 00 	nop
    6180:	80 70 00 0f 	movc2g gr7
    6184:	94 70 2e b5 	movigl gr7 2eb <.L0 +0x27>
    6188:	94 70 00 01 	movigh gr7 0 <_cla_int_entry_group0_0>
    618c:	95 74 00 15 	movigl gr23 4001 <.L0 +0x12>
    6190:	95 70 00 01 	movigh gr23 0 <_cla_int_entry_group0_0>
    6194:	80 05 c0 0b 	movg2c gr23
    6198:	84 c3 17 00 	add gr12 gr12 gr23
    619c:	84 d3 47 06 	xor gr13 gr13 gr7
    61a0:	84 e3 8c 00 	add gr14 gr14 gr12
    61a4:	84 f3 cd 06 	xor gr15 gr15 gr13
    61a8:	84 c3 0f 00 	add gr12 gr12 gr15
    61ac:	80 00 00 00 	nop
    61b0:	80 80 00 0f 	movc2g gr8
    61b4:	94 80 2e c5 	movigl gr8 2ec <.L0 +0x28>
    61b8:	94 80 00 01 	movigh gr8 0 <_cla_int_entry_group0_0>
    61bc:	95 84 01 15 	movigl gr24 4011 <.L0 +0x7>
    61c0:	95 80 00 01 	movigh gr24 0 <_cla_int_entry_group0_0>
    61c4:	80 06 00 0b 	movg2c gr24
    61c8:	84 c3 18 00 	add gr12 gr12 gr24
    61cc:	84 d3 48 06 	xor gr13 gr13 gr8
    61d0:	84 e3 8c 00 	add gr14 gr14 gr12
    61d4:	84 f3 cd 06 	xor gr15 gr15 gr13
    61d8:	84 c3 0f 00 	add gr12 gr12 gr15
    61dc:	80 00 00 00 	nop
    61e0:	80 90 00 0f 	movc2g gr9
    61e4:	94 90 2e d5 	movigl gr9 2ed <.L0 +0x29>
    61e8:	94 90 00 01 	movigh gr9 0 <_cla_int_entry_group0_0>
    61ec:	95 94 00 15 	movigl gr25 4001 <.L0 +0x12>
    61f0:	95 90 00 01 	movigh gr25 0 <_cla_int_entry_group0_0>
    61f4:	80 06 40 0b 	movg2c gr25
    61f8:	84 c3 19 00 	add gr12 gr12 gr25
    61fc:	84 d3 49 06 	xor gr13 gr13 gr9
    6200:	84 e3 8c 00 	add gr14 gr14 gr12
    6204:	84 f3 cd 06 	xor gr15 gr15 gr13
    6208:	84 c3 0f 00 	add gr12 gr12 gr15
    620c:	80 00 00 00 	nop
    6210:	80 a0 00 0f 	movc2g gr10
    6214:	94 a0 2e e5 	movigl gr10 2ee <.L0 +0x2a>
    6218:	94 a0 00 01 	movigh gr10 0 <_cla_int_entry_group0_0>
    621c:	95 a4 00 15 	movigl gr26 4001 <.L0 +0x12>
    6220:	95 a0 00 01 	movigh gr26 0 <_cla_int_entry_group0_0>
    6224:	80 06 80 0b 	movg2c gr26
    6228:	84 c3 1a 00 	add gr12 gr12 gr26
    622c:	84 d3 4a 06 	xor gr13 gr13 gr10
    6230:	84 e3 8c 00 	add gr14 gr14 gr12
    6234:	84 f3 cd 06 	xor gr15 gr15 gr13
    6238:	84 c3 0f 00 	add gr12 gr12 gr15
    623c:	80 00 00 00 	nop
    6240:	80 b0 00 0f 	movc2g gr11
    6244:	94 b0 2e f5 	movigl gr11 2ef <.L0 +0x2b>
    6248:	94 b0 00 01 	movigh gr11 0 <_cla_int_entry_group0_0>
    624c:	95 b4 01 15 	movigl gr27 4011 <.L0 +0x7>
    6250:	95 b0 00 01 	movigh gr27 0 <_cla_int_entry_group0_0>
    6254:	80 06 c0 0b 	movg2c gr27
    6258:	84 c3 1b 00 	add gr12 gr12 gr27
    625c:	84 d3 4b 06 	xor gr13 gr13 gr11
    6260:	84 e3 8c 00 	add gr14 gr14 gr12
    6264:	84 f3 cd 06 	xor gr15 gr15 gr13
    6268:	84 c3 0f 00 	add gr12 gr12 gr15
    626c:	80 00 00 00 	nop
    6270:	80 40 00 0f 	movc2g gr4
    6274:	94 40 2f 05 	movigl gr4 2f0 <.L0 +0x2c>
    6278:	94 40 00 01 	movigh gr4 0 <_cla_int_entry_group0_0>
    627c:	95 44 00 15 	movigl gr20 4001 <.L0 +0x12>
    6280:	95 40 00 01 	movigh gr20 0 <_cla_int_entry_group0_0>
    6284:	80 05 00 0b 	movg2c gr20
    6288:	84 c3 14 00 	add gr12 gr12 gr20
    628c:	84 d3 44 06 	xor gr13 gr13 gr4
    6290:	84 e3 8c 00 	add gr14 gr14 gr12
    6294:	84 f3 cd 06 	xor gr15 gr15 gr13
    6298:	84 c3 0f 00 	add gr12 gr12 gr15
    629c:	80 00 00 00 	nop
    62a0:	80 50 00 0f 	movc2g gr5
    62a4:	94 50 2f 15 	movigl gr5 2f1 <.L0 +0x2d>
    62a8:	94 50 00 01 	movigh gr5 0 <_cla_int_entry_group0_0>
    62ac:	95 54 00 15 	movigl gr21 4001 <.L0 +0x12>
    62b0:	95 50 00 01 	movigh gr21 0 <_cla_int_entry_group0_0>
    62b4:	80 05 40 0b 	movg2c gr21
    62b8:	84 c3 15 00 	add gr12 gr12 gr21
    62bc:	84 d3 45 06 	xor gr13 gr13 gr5
    62c0:	84 e3 8c 00 	add gr14 gr14 gr12
    62c4:	84 f3 cd 06 	xor gr15 gr15 gr13
    62c8:	84 c3 0f 00 	add gr12 gr12 gr15
    62cc:	80 00 00 00 	nop
    62d0:	80 60 00 0f 	movc2g gr6
    62d4:	94 60 2f 25 	movigl gr6 2f2 <.L0 +0x2e>
    62d8:	94 60 00 01 	movigh gr6 0 <_cla_int_entry_group0_0>
    62dc:	95 64 01 15 	movigl gr22 4011 <.L0 +0x7>
    62e0:	95 60 00 01 	movigh gr22 0 <_cla_int_entry_group0_0>
    62e4:	80 05 80 0b 	movg2c gr22
    62e8:	84 c3 16 00 	add gr12 gr12 gr22
    62ec:	84 d3 46 06 	xor gr13 gr13 gr6
    62f0:	84 e3 8c 00 	add gr14 gr14 gr12
    62f4:	84 f3 cd 06 	xor gr15 gr15 gr13
    62f8:	84 c3 0f 00 	add gr12 gr12 gr15
    62fc:	80 00 00 00 	nop
    6300:	80 70 00 0f 	movc2g gr7
    6304:	94 70 2f 35 	movigl gr7 2f3 <.L0 +0x2f>
    6308:	94 70 00 01 	movigh gr7 0 <_cla_int_entry_group0_0>
    630c:	95 74 00 15 	movigl gr23 4001 <.L0 +0x12>
    6310:	95 70 00 01 	movigh gr23 0 <_cla_int_entry_group0_0>
    6314:	80 05 c0 0b 	movg2c gr23
    6318:	84 c3 17 00 	add gr12 gr12 gr23
    631c:	84 d3 47 06 	xor gr13 gr13 gr7
    6320:	84 e3 8c 00 	add gr14 gr14 gr12
    6324:	84 f3 cd 06 	xor gr15 gr15 gr13
    6328:	84 c3 0f 00 	add gr12 gr12 gr15
    632c:	80 00 00 00 	nop
    6330:	80 80 00 0f 	movc2g gr8
    6334:	94 80 2f 45 	movigl gr8 2f4 <.L0 +0x30>
    6338:	94 80 00 01 	movigh gr8 0 <_cla_int_entry_group0_0>
    633c:	95 84 00 15 	movigl gr24 4001 <.L0 +0x12>
    6340:	95 80 00 01 	movigh gr24 0 <_cla_int_entry_group0_0>
    6344:	80 06 00 0b 	movg2c gr24
    6348:	84 c3 18 00 	add gr12 gr12 gr24
    634c:	84 d3 48 06 	xor gr13 gr13 gr8
    6350:	84 e3 8c 00 	add gr14 gr14 gr12
    6354:	84 f3 cd 06 	xor gr15 gr15 gr13
    6358:	84 c3 0f 00 	add gr12 gr12 gr15
    635c:	80 00 00 00 	nop
    6360:	80 90 00 0f 	movc2g gr9
    6364:	94 90 2f 55 	movigl gr9 2f5 <.L0 +0x31>
    6368:	94 90 00 01 	movigh gr9 0 <_cla_int_entry_group0_0>
    636c:	95 94 01 15 	movigl gr25 4011 <.L0 +0x7>
    6370:	95 90 00 01 	movigh gr25 0 <_cla_int_entry_group0_0>
    6374:	80 06 40 0b 	movg2c gr25
    6378:	84 c3 19 00 	add gr12 gr12 gr25
    637c:	84 d3 49 06 	xor gr13 gr13 gr9
    6380:	84 e3 8c 00 	add gr14 gr14 gr12
    6384:	84 f3 cd 06 	xor gr15 gr15 gr13
    6388:	84 c3 0f 00 	add gr12 gr12 gr15
    638c:	80 00 00 00 	nop
    6390:	80 a0 00 0f 	movc2g gr10
    6394:	94 a0 2f 65 	movigl gr10 2f6 <.L0 +0x32>
    6398:	94 a0 00 01 	movigh gr10 0 <_cla_int_entry_group0_0>
    639c:	95 a4 00 15 	movigl gr26 4001 <.L0 +0x12>
    63a0:	95 a0 00 01 	movigh gr26 0 <_cla_int_entry_group0_0>
    63a4:	80 06 80 0b 	movg2c gr26
    63a8:	84 c3 1a 00 	add gr12 gr12 gr26
    63ac:	84 d3 4a 06 	xor gr13 gr13 gr10
    63b0:	84 e3 8c 00 	add gr14 gr14 gr12
    63b4:	84 f3 cd 06 	xor gr15 gr15 gr13
    63b8:	84 c3 0f 00 	add gr12 gr12 gr15
    63bc:	80 00 00 00 	nop
    63c0:	80 b0 00 0f 	movc2g gr11
    63c4:	94 b0 2f 75 	movigl gr11 2f7 <.L0 +0x33>
    63c8:	94 b0 00 01 	movigh gr11 0 <_cla_int_entry_group0_0>
    63cc:	95 b4 00 15 	movigl gr27 4001 <.L0 +0x12>
    63d0:	95 b0 00 01 	movigh gr27 0 <_cla_int_entry_group0_0>
    63d4:	80 06 c0 0b 	movg2c gr27
    63d8:	84 c3 1b 00 	add gr12 gr12 gr27
    63dc:	84 d3 4b 06 	xor gr13 gr13 gr11
    63e0:	84 e3 8c 00 	add gr14 gr14 gr12
    63e4:	84 f3 cd 06 	xor gr15 gr15 gr13
    63e8:	84 c3 0f 00 	add gr12 gr12 gr15
    63ec:	80 00 00 00 	nop
    63f0:	80 40 00 0f 	movc2g gr4
    63f4:	94 40 2f 85 	movigl gr4 2f8 <.L0 +0x34>
    63f8:	94 40 00 01 	movigh gr4 0 <_cla_int_entry_group0_0>
    63fc:	95 44 01 15 	movigl gr20 4011 <.L0 +0x7>
    6400:	95 40 00 01 	movigh gr20 0 <_cla_int_entry_group0_0>
    6404:	80 05 00 0b 	movg2c gr20
    6408:	84 c3 14 00 	add gr12 gr12 gr20
    640c:	84 d3 44 06 	xor gr13 gr13 gr4
    6410:	84 e3 8c 00 	add gr14 gr14 gr12
    6414:	84 f3 cd 06 	xor gr15 gr15 gr13
    6418:	84 c3 0f 00 	add gr12 gr12 gr15
    641c:	80 00 00 00 	nop
    6420:	80 50 00 0f 	movc2g gr5
    6424:	94 50 2f 95 	movigl gr5 2f9 <.L0 +0x35>
    6428:	94 50 00 01 	movigh gr5 0 <_cla_int_entry_group0_0>
    642c:	95 54 00 15 	movigl gr21 4001 <.L0 +0x12>
    6430:	95 50 00 01 	movigh gr21 0 <_cla_int_entry_group0_0>
    6434:	80 05 40 0b 	movg2c gr21
    6438:	84 c3 15 00 	add gr12 gr12 gr21
    643c:	84 d3 45 06 	xor gr13 gr13 gr5
    6440:	84 e3 8c 00 	add gr14 gr14 gr12
    6444:	84 f3 cd 06 	xor gr15 gr15 gr13
    6448:	84 c3 0f 00 	add gr12 gr12 gr15
    644c:	80 00 00 00 	nop
    6450:	80 60 00 0f 	movc2g gr6
    6454:	94 60 2f a5 	movigl gr6 2fa <.L0 +0x36>
    6458:	94 60 00 01 	movigh gr6 0 <_cla_int_entry_group0_0>
    645c:	95 64 00 15 	movigl gr22 4001 <.L0 +0x12>
    6460:	95 60 00 01 	movigh gr22 0 <_cla_int_entry_group0_0>
    6464:	80 05 80 0b 	movg2c gr22
    6468:	84 c3 16 00 	add gr12 gr12 gr22
    646c:	84 d3 46 06 	xor gr13 gr13 gr6
    6470:	84 e3 8c 00 	add gr14 gr14 gr12
    6474:	84 f3 cd 06 	xor gr15 gr15 gr13
    6478:	84 c3 0f 00 	add gr12 gr12 gr15
    647c:	80 00 00 00 	nop
    6480:	80 70 00 0f 	movc2g gr7
    6484:	94 70 2f b5 	movigl gr7 2fb <.L0 +0x37>
    6488:	94 70 00 01 	movigh gr7 0 <_cla_int_entry_group0_0>
    648c:	95 74 01 15 	movigl gr23 4011 <.L0 +0x7>
    6490:	95 70 00 01 	movigh gr23 0 <_cla_int_entry_group0_0>
    6494:	80 05 c0 0b 	movg2c gr23
    6498:	84 c3 17 00 	add gr12 gr12 gr23
    649c:	84 d3 47 06 	xor gr13 gr13 gr7
    64a0:	84 e3 8c 00 	add gr14 gr14 gr12
    64a4:	84 f3 cd 06 	xor gr15 gr15 gr13
    64a8:	84 c3 0f 00 	add gr12 gr12 gr15
    64ac:	80 00 00 00 	nop
    64b0:	80 80 00 0f 	movc2g gr8
    64b4:	94 80 2f c5 	movigl gr8 2fc <.L0 +0x38>
    64b8:	94 80 00 01 	movigh gr8 0 <_cla_int_entry_group0_0>
    64bc:	95 84 00 15 	movigl gr24 4001 <.L0 +0x12>
    64c0:	95 80 00 01 	movigh gr24 0 <_cla_int_entry_group0_0>
    64c4:	80 06 00 0b 	movg2c gr24
    64c8:	84 c3 18 00 	add gr12 gr12 gr24
    64cc:	84 d3 48 06 	xor gr13 gr13 gr8
    64d0:	84 e3 8c 00 	add gr14 gr14 gr12
    64d4:	84 f3 cd 06 	xor gr15 gr15 gr13
    64d8:	84 c3 0f 00 	add gr12 gr12 gr15
    64dc:	80 00 00 00 	nop
    64e0:	80 90 00 0f 	movc2g gr9
    64e4:	94 90 2f d5 	movigl gr9 2fd <.L0 +0x39>
    64e8:	94 90 00 01 	movigh gr9 0 <_cla_int_entry_group0_0>
    64ec:	95 94 00 15 	movigl gr25 4001 <.L0 +0x12>
    64f0:	95 90 00 01 	movigh gr25 0 <_cla_int_entry_group0_0>
    64f4:	80 06 40 0b 	movg2c gr25
    64f8:	84 c3 19 00 	add gr12 gr12 gr25
    64fc:	84 d3 49 06 	xor gr13 gr13 gr9
    6500:	84 e3 8c 00 	add gr14 gr14 gr12
    6504:	84 f3 cd 06 	xor gr15 gr15 gr13
    6508:	84 c3 0f 00 	add gr12 gr12 gr15
    650c:	80 00 00 00 	nop
    6510:	80 a0 00 0f 	movc2g gr10
    6514:	94 a0 2f e5 	movigl gr10 2fe <.L0 +0x3a>
    6518:	94 a0 00 01 	movigh gr10 0 <_cla_int_entry_group0_0>
    651c:	95 a4 01 15 	movigl gr26 4011 <.L0 +0x7>
    6520:	95 a0 00 01 	movigh gr26 0 <_cla_int_entry_group0_0>
    6524:	80 06 80 0b 	movg2c gr26
    6528:	84 c3 1a 00 	add gr12 gr12 gr26
    652c:	84 d3 4a 06 	xor gr13 gr13 gr10
    6530:	84 e3 8c 00 	add gr14 gr14 gr12
    6534:	84 f3 cd 06 	xor gr15 gr15 gr13
    6538:	84 c3 0f 00 	add gr12 gr12 gr15
    653c:	80 00 00 00 	nop
    6540:	80 b0 00 0f 	movc2g gr11
    6544:	94 b0 2f f5 	movigl gr11 2ff <.L0 +0x3b>
    6548:	94 b0 00 01 	movigh gr11 0 <_cla_int_entry_group0_0>
    654c:	95 b4 00 15 	movigl gr27 4001 <.L0 +0x12>
    6550:	95 b0 00 01 	movigh gr27 0 <_cla_int_entry_group0_0>
    6554:	80 06 c0 0b 	movg2c gr27
    6558:	84 c3 1b 00 	add gr12 gr12 gr27
    655c:	84 d3 4b 06 	xor gr13 gr13 gr11
    6560:	84 e3 8c 00 	add gr14 gr14 gr12
    6564:	84 f3 cd 06 	xor gr15 gr15 gr13
    6568:	84 c3 0f 00 	add gr12 gr12 gr15
    656c:	80 00 00 00 	nop
    6570:	80 40 00 0f 	movc2g gr4
    6574:	94 40 30 05 	movigl gr4 300 <.L0 +0x3c>
    6578:	94 40 00 01 	movigh gr4 0 <_cla_int_entry_group0_0>
    657c:	95 44 00 15 	movigl gr20 4001 <.L0 +0x12>
    6580:	95 40 00 01 	movigh gr20 0 <_cla_int_entry_group0_0>
    6584:	80 05 00 0b 	movg2c gr20
    6588:	84 c3 14 00 	add gr12 gr12 gr20
    658c:	84 d3 44 06 	xor gr13 gr13 gr4
    6590:	84 e3 8c 00 	add gr14 gr14 gr12
    6594:	84 f3 cd 06 	xor gr15 gr15 gr13
    6598:	84 c3 0f 00 	add gr12 gr12 gr15
    659c:	80 00 00 00 	nop
    65a0:	80 50 00 0f 	movc2g gr5
    65a4:	94 50 30 15 	movigl gr5 301 <.L0 +0x3d>
    65a8:	94 50 00 01 	movigh gr5 0 <_cla_int_entry_group0_0>
    65ac:	95 54 01 15 	movigl gr21 4011 <.L0 +0x7>
    65b0:	95 50 00 01 	movigh gr21 0 <_cla_int_entry_group0_0>
    65b4:	80 05 40 0b 	movg2c gr21
    65b8:	84 c3 15 00 	add gr12 gr12 gr21
    65bc:	84 d3 45 06 	xor gr13 gr13 gr5
    65c0:	84 e3 8c 00 	add gr14 gr14 gr12
    65c4:	84 f3 cd 06 	xor gr15 gr15 gr13
    65c8:	84 c3 0f 00 	add gr12 gr12 gr15
    65cc:	80 00 00 00 	nop
    65d0:	80 60 00 0f 	movc2g gr6
    65d4:	94 60 30 25 	movigl gr6 302 <.L0 +0x3e>
    65d8:	94 60 00 01 	movigh gr6 0 <_cla_int_entry_group0_0>
    65dc:	95 64 00 15 	movigl gr22 4001 <.L0 +0x12>
    65e0:	95 60 00 01 	movigh gr22 0 <_cla_int_entry_group0_0>
    65e4:	80 05 80 0b 	movg2c gr22
    65e8:	84 c3 16 00 	add gr12 gr12 gr22
    65ec:	84 d3 46 06 	xor gr13 gr13 gr6
    65f0:	84 e3 8c 00 	add gr14 gr14 gr12
    65f4:	84 f3 cd 06 	xor gr15 gr15 gr13
    65f8:	84 c3 0f 00 	add gr12 gr12 gr15
    65fc:	80 00 00 00 	nop
    6600:	80 70 00 0f 	movc2g gr7
    6604:	94 70 30 35 	movigl gr7 303 <.L0 +0x3f>
    6608:	94 70 00 01 	movigh gr7 0 <_cla_int_entry_group0_0>
    660c:	95 74 00 15 	movigl gr23 4001 <.L0 +0x12>
    6610:	95 70 00 01 	movigh gr23 0 <_cla_int_entry_group0_0>
    6614:	80 05 c0 0b 	movg2c gr23
    6618:	84 c3 17 00 	add gr12 gr12 gr23
    661c:	84 d3 47 06 	xor gr13 gr13 gr7
    6620:	84 e3 8c 00 	add gr14 gr14 gr12
    6624:	84 f3 cd 06 	xor gr15 gr15 gr13
    6628:	84 c3 0f 00 	add gr12 gr12 gr15
    662c:	80 00 00 00 	nop
    6630:	80 80 00 0f 	movc2g gr8
    6634:	94 80 30 45 	movigl gr8 304 <.L0 +0x40>
    6638:	94 80 00 01 	movigh gr8 0 <_cla_int_entry_group0_0>
    663c:	95 84 01 15 	movigl gr24 4011 <.L0 +0x7>
    6640:	95 80 00 01 	movigh gr24 0 <_cla_int_entry_group0_0>
    6644:	80 06 00 0b 	movg2c gr24
    6648:	84 c3 18 00 	add gr12 gr12 gr24
    664c:	84 d3 48 06 	xor gr13 gr13 gr8
    6650:	84 e3 8c 00 	add gr14 gr14 gr12
    6654:	84 f3 cd 06 	xor gr15 gr15 gr13
    6658:	84 c3 0f 00 	add gr12 gr12 gr15
    665c:	80 00 00 00 	nop
    6660:	80 90 00 0f 	movc2g gr9
    6664:	94 90 30 55 	movigl gr9 305 <.L0 +0x41>
    6668:	94 90 00 01 	movigh gr9 0 <_cla_int_entry_group0_0>
    666c:	95 94 00 15 	movigl gr25 4001 <.L0 +0x12>
    6670:	95 90 00 01 	movigh gr25 0 <_cla_int_entry_group0_0>
    6674:	80 06 40 0b 	movg2c gr25
    6678:	84 c3 19 00 	add gr12 gr12 gr25
    667c:	84 d3 49 06 	xor gr13 gr13 gr9
    6680:	84 e3 8c 00 	add gr14 gr14 gr12
    6684:	84 f3 cd 06 	xor gr15 gr15 gr13
    6688:	84 c3 0f 00 	add gr12 gr12 gr15
    668c:	80 00 00 00 	nop
    6690:	80 a0 00 0f 	movc2g gr10
    6694:	94 a0 30 65 	movigl gr10 306 <.L0 +0x42>
    6698:	94 a0 00 01 	movigh gr10 0 <_cla_int_entry_group0_0>
    669c:	95 a4 00 15 	movigl gr26 4001 <.L0 +0x12>
    66a0:	95 a0 00 01 	movigh gr26 0 <_cla_int_entry_group0_0>
    66a4:	80 06 80 0b 	movg2c gr26
    66a8:	84 c3 1a 00 	add gr12 gr12 gr26
    66ac:	84 d3 4a 06 	xor gr13 gr13 gr10
    66b0:	84 e3 8c 00 	add gr14 gr14 gr12
    66b4:	84 f3 cd 06 	xor gr15 gr15 gr13
    66b8:	84 c3 0f 00 	add gr12 gr12 gr15
    66bc:	80 00 00 00 	nop
    66c0:	80 b0 00 0f 	movc2g gr11
    66c4:	94 b0 30 75 	movigl gr11 307 <.L0 +0x43>
    66c8:	94 b0 00 01 	movigh gr11 0 <_cla_int_entry_group0_0>
    66cc:	95 b4 01 15 	movigl gr27 4011 <.L0 +0x7>
    66d0:	95 b0 00 01 	movigh gr27 0 <_cla_int_entry_group0_0>
    66d4:	80 06 c0 0b 	movg2c gr27
    66d8:	84 c3 1b 00 	add gr12 gr12 gr27
    66dc:	84 d3 4b 06 	xor gr13 gr13 gr11
    66e0:	84 e3 8c 00 	add gr14 gr14 gr12
    66e4:	84 f3 cd 06 	xor gr15 gr15 gr13
    66e8:	84 c3 0f 00 	add gr12 gr12 gr15
    66ec:	80 00 00 00 	nop
    66f0:	80 00 00 00 	nop
    66f4:	80 00 00 00 	nop
    66f8:	80 00 00 00 	nop
    66fc:	80 00 00 0a 	mstop
    6700:	80 00 00 00 	nop
    6704:	80 00 00 00 	nop
    6708:	80 00 00 00 	nop
    670c:	80 00 00 00 	nop
